
/nfs/home/fuwenyi/xiaohe/nexus-am/apps/microbench/build/microbench-riscv64-nutshell.elf:     file format elf64-littleriscv


Disassembly of section .text:

0000000080000000 <_start>:
    80000000:	00000413          	li	s0,0
    80000004:	00015117          	auipc	sp,0x15
    80000008:	ffc10113          	addi	sp,sp,-4 # 80015000 <_end>
    8000000c:	314080ef          	jal	ra,80008320 <_trm_init>

0000000080000010 <bench_prepare>:
    80000010:	fe010113          	addi	sp,sp,-32
    80000014:	00113c23          	sd	ra,24(sp)
    80000018:	00813823          	sd	s0,16(sp)
    8000001c:	02010413          	addi	s0,sp,32
    80000020:	fea43423          	sd	a0,-24(s0)
    80000024:	7690a0ef          	jal	ra,8000af8c <uptime>
    80000028:	00050793          	mv	a5,a0
    8000002c:	0007879b          	sext.w	a5,a5
    80000030:	02079713          	slli	a4,a5,0x20
    80000034:	02075713          	srli	a4,a4,0x20
    80000038:	fe843783          	ld	a5,-24(s0)
    8000003c:	00e7b823          	sd	a4,16(a5)
    80000040:	00000013          	nop
    80000044:	01813083          	ld	ra,24(sp)
    80000048:	01013403          	ld	s0,16(sp)
    8000004c:	02010113          	addi	sp,sp,32
    80000050:	00008067          	ret

0000000080000054 <bench_reset>:
    80000054:	ff010113          	addi	sp,sp,-16
    80000058:	00813423          	sd	s0,8(sp)
    8000005c:	01010413          	addi	s0,sp,16
    80000060:	0000c797          	auipc	a5,0xc
    80000064:	1c878793          	addi	a5,a5,456 # 8000c228 <_heap>
    80000068:	0007b783          	ld	a5,0(a5)
    8000006c:	00778793          	addi	a5,a5,7
    80000070:	ff87f793          	andi	a5,a5,-8
    80000074:	00078713          	mv	a4,a5
    80000078:	0000c797          	auipc	a5,0xc
    8000007c:	1c078793          	addi	a5,a5,448 # 8000c238 <hbrk>
    80000080:	00e7b023          	sd	a4,0(a5)
    80000084:	00000013          	nop
    80000088:	00813403          	ld	s0,8(sp)
    8000008c:	01010113          	addi	sp,sp,16
    80000090:	00008067          	ret

0000000080000094 <bench_done>:
    80000094:	fe010113          	addi	sp,sp,-32
    80000098:	00113c23          	sd	ra,24(sp)
    8000009c:	00813823          	sd	s0,16(sp)
    800000a0:	02010413          	addi	s0,sp,32
    800000a4:	fea43423          	sd	a0,-24(s0)
    800000a8:	6e50a0ef          	jal	ra,8000af8c <uptime>
    800000ac:	00050793          	mv	a5,a0
    800000b0:	0007879b          	sext.w	a5,a5
    800000b4:	02079713          	slli	a4,a5,0x20
    800000b8:	02075713          	srli	a4,a4,0x20
    800000bc:	fe843783          	ld	a5,-24(s0)
    800000c0:	0107b783          	ld	a5,16(a5)
    800000c4:	40f70733          	sub	a4,a4,a5
    800000c8:	fe843783          	ld	a5,-24(s0)
    800000cc:	00e7b823          	sd	a4,16(a5)
    800000d0:	00000013          	nop
    800000d4:	01813083          	ld	ra,24(sp)
    800000d8:	01013403          	ld	s0,16(sp)
    800000dc:	02010113          	addi	sp,sp,32
    800000e0:	00008067          	ret

00000000800000e4 <bench_check>:
    800000e4:	fd010113          	addi	sp,sp,-48
    800000e8:	02813423          	sd	s0,40(sp)
    800000ec:	03010413          	addi	s0,sp,48
    800000f0:	fca43c23          	sd	a0,-40(s0)
    800000f4:	0000c797          	auipc	a5,0xc
    800000f8:	13478793          	addi	a5,a5,308 # 8000c228 <_heap>
    800000fc:	0087b783          	ld	a5,8(a5)
    80000100:	00078713          	mv	a4,a5
    80000104:	0000c797          	auipc	a5,0xc
    80000108:	12478793          	addi	a5,a5,292 # 8000c228 <_heap>
    8000010c:	0007b783          	ld	a5,0(a5)
    80000110:	40f707b3          	sub	a5,a4,a5
    80000114:	fef43423          	sd	a5,-24(s0)
    80000118:	0000c797          	auipc	a5,0xc
    8000011c:	24078793          	addi	a5,a5,576 # 8000c358 <setting>
    80000120:	0007b783          	ld	a5,0(a5)
    80000124:	0087b783          	ld	a5,8(a5)
    80000128:	fe843703          	ld	a4,-24(s0)
    8000012c:	00f77863          	bgeu	a4,a5,8000013c <bench_check+0x58>
    80000130:	0000b797          	auipc	a5,0xb
    80000134:	fc878793          	addi	a5,a5,-56 # 8000b0f8 <uptime+0x16c>
    80000138:	0080006f          	j	80000140 <bench_check+0x5c>
    8000013c:	00000793          	li	a5,0
    80000140:	00078513          	mv	a0,a5
    80000144:	02813403          	ld	s0,40(sp)
    80000148:	03010113          	addi	sp,sp,48
    8000014c:	00008067          	ret

0000000080000150 <run_once>:
    80000150:	fe010113          	addi	sp,sp,-32
    80000154:	00113c23          	sd	ra,24(sp)
    80000158:	00813823          	sd	s0,16(sp)
    8000015c:	02010413          	addi	s0,sp,32
    80000160:	fea43423          	sd	a0,-24(s0)
    80000164:	feb43023          	sd	a1,-32(s0)
    80000168:	eedff0ef          	jal	ra,80000054 <bench_reset>
    8000016c:	0000c797          	auipc	a5,0xc
    80000170:	1e478793          	addi	a5,a5,484 # 8000c350 <current>
    80000174:	0007b783          	ld	a5,0(a5)
    80000178:	0007b783          	ld	a5,0(a5)
    8000017c:	000780e7          	jalr	a5
    80000180:	fe043503          	ld	a0,-32(s0)
    80000184:	e8dff0ef          	jal	ra,80000010 <bench_prepare>
    80000188:	0000c797          	auipc	a5,0xc
    8000018c:	1c878793          	addi	a5,a5,456 # 8000c350 <current>
    80000190:	0007b783          	ld	a5,0(a5)
    80000194:	0087b783          	ld	a5,8(a5)
    80000198:	000780e7          	jalr	a5
    8000019c:	fe043503          	ld	a0,-32(s0)
    800001a0:	ef5ff0ef          	jal	ra,80000094 <bench_done>
    800001a4:	0000c797          	auipc	a5,0xc
    800001a8:	1ac78793          	addi	a5,a5,428 # 8000c350 <current>
    800001ac:	0007b783          	ld	a5,0(a5)
    800001b0:	0107b783          	ld	a5,16(a5)
    800001b4:	000780e7          	jalr	a5
    800001b8:	00050793          	mv	a5,a0
    800001bc:	00078713          	mv	a4,a5
    800001c0:	fe043783          	ld	a5,-32(s0)
    800001c4:	00e7a023          	sw	a4,0(a5)
    800001c8:	00000013          	nop
    800001cc:	01813083          	ld	ra,24(sp)
    800001d0:	01013403          	ld	s0,16(sp)
    800001d4:	02010113          	addi	sp,sp,32
    800001d8:	00008067          	ret

00000000800001dc <score>:
    800001dc:	fd010113          	addi	sp,sp,-48
    800001e0:	02813423          	sd	s0,40(sp)
    800001e4:	03010413          	addi	s0,sp,48
    800001e8:	fea43423          	sd	a0,-24(s0)
    800001ec:	feb43023          	sd	a1,-32(s0)
    800001f0:	fcc43c23          	sd	a2,-40(s0)
    800001f4:	fd843783          	ld	a5,-40(s0)
    800001f8:	00079663          	bnez	a5,80000204 <score+0x28>
    800001fc:	00000793          	li	a5,0
    80000200:	0240006f          	j	80000224 <score+0x48>
    80000204:	0000c797          	auipc	a5,0xc
    80000208:	15478793          	addi	a5,a5,340 # 8000c358 <setting>
    8000020c:	0007b783          	ld	a5,0(a5)
    80000210:	0107b703          	ld	a4,16(a5)
    80000214:	06400793          	li	a5,100
    80000218:	02f70733          	mul	a4,a4,a5
    8000021c:	fd843783          	ld	a5,-40(s0)
    80000220:	02f757b3          	divu	a5,a4,a5
    80000224:	00078513          	mv	a0,a5
    80000228:	02813403          	ld	s0,40(sp)
    8000022c:	03010113          	addi	sp,sp,48
    80000230:	00008067          	ret

0000000080000234 <main>:
    80000234:	f7010113          	addi	sp,sp,-144
    80000238:	08113423          	sd	ra,136(sp)
    8000023c:	08813023          	sd	s0,128(sp)
    80000240:	09010413          	addi	s0,sp,144
    80000244:	f6a43c23          	sd	a0,-136(s0)
    80000248:	f7843783          	ld	a5,-136(s0)
    8000024c:	fef43423          	sd	a5,-24(s0)
    80000250:	f7843783          	ld	a5,-136(s0)
    80000254:	00078e63          	beqz	a5,80000270 <main+0x3c>
    80000258:	0000b597          	auipc	a1,0xb
    8000025c:	eb858593          	addi	a1,a1,-328 # 8000b110 <uptime+0x184>
    80000260:	f7843503          	ld	a0,-136(s0)
    80000264:	4a90a0ef          	jal	ra,8000af0c <strcmp>
    80000268:	00050793          	mv	a5,a0
    8000026c:	00079e63          	bnez	a5,80000288 <main+0x54>
    80000270:	0000b517          	auipc	a0,0xb
    80000274:	ea850513          	addi	a0,a0,-344 # 8000b118 <uptime+0x18c>
    80000278:	4110a0ef          	jal	ra,8000ae88 <printf_>
    8000027c:	0000b797          	auipc	a5,0xb
    80000280:	ec478793          	addi	a5,a5,-316 # 8000b140 <uptime+0x1b4>
    80000284:	fef43423          	sd	a5,-24(s0)
    80000288:	fff00793          	li	a5,-1
    8000028c:	fef42223          	sw	a5,-28(s0)
    80000290:	0000b597          	auipc	a1,0xb
    80000294:	eb858593          	addi	a1,a1,-328 # 8000b148 <uptime+0x1bc>
    80000298:	fe843503          	ld	a0,-24(s0)
    8000029c:	4710a0ef          	jal	ra,8000af0c <strcmp>
    800002a0:	00050793          	mv	a5,a0
    800002a4:	00079663          	bnez	a5,800002b0 <main+0x7c>
    800002a8:	fe042223          	sw	zero,-28(s0)
    800002ac:	0640006f          	j	80000310 <main+0xdc>
    800002b0:	0000b597          	auipc	a1,0xb
    800002b4:	ea058593          	addi	a1,a1,-352 # 8000b150 <uptime+0x1c4>
    800002b8:	fe843503          	ld	a0,-24(s0)
    800002bc:	4510a0ef          	jal	ra,8000af0c <strcmp>
    800002c0:	00050793          	mv	a5,a0
    800002c4:	00079863          	bnez	a5,800002d4 <main+0xa0>
    800002c8:	00100793          	li	a5,1
    800002cc:	fef42223          	sw	a5,-28(s0)
    800002d0:	0400006f          	j	80000310 <main+0xdc>
    800002d4:	0000b597          	auipc	a1,0xb
    800002d8:	e6c58593          	addi	a1,a1,-404 # 8000b140 <uptime+0x1b4>
    800002dc:	fe843503          	ld	a0,-24(s0)
    800002e0:	42d0a0ef          	jal	ra,8000af0c <strcmp>
    800002e4:	00050793          	mv	a5,a0
    800002e8:	00079863          	bnez	a5,800002f8 <main+0xc4>
    800002ec:	00200793          	li	a5,2
    800002f0:	fef42223          	sw	a5,-28(s0)
    800002f4:	01c0006f          	j	80000310 <main+0xdc>
    800002f8:	fe843583          	ld	a1,-24(s0)
    800002fc:	0000b517          	auipc	a0,0xb
    80000300:	e5c50513          	addi	a0,a0,-420 # 8000b158 <uptime+0x1cc>
    80000304:	3850a0ef          	jal	ra,8000ae88 <printf_>
    80000308:	00100513          	li	a0,1
    8000030c:	7d9070ef          	jal	ra,800082e4 <_halt>
    80000310:	154080ef          	jal	ra,80008464 <_ioe_init>
    80000314:	fe843583          	ld	a1,-24(s0)
    80000318:	0000b517          	auipc	a0,0xb
    8000031c:	e7850513          	addi	a0,a0,-392 # 8000b190 <uptime+0x204>
    80000320:	3690a0ef          	jal	ra,8000ae88 <printf_>
    80000324:	fc043c23          	sd	zero,-40(s0)
    80000328:	00100793          	li	a5,1
    8000032c:	fcf42a23          	sw	a5,-44(s0)
    80000330:	45d0a0ef          	jal	ra,8000af8c <uptime>
    80000334:	00050793          	mv	a5,a0
    80000338:	faf42e23          	sw	a5,-68(s0)
    8000033c:	fc042823          	sw	zero,-48(s0)
    80000340:	1d40006f          	j	80000514 <main+0x2e0>
    80000344:	fd042703          	lw	a4,-48(s0)
    80000348:	00070793          	mv	a5,a4
    8000034c:	00479793          	slli	a5,a5,0x4
    80000350:	00e787b3          	add	a5,a5,a4
    80000354:	00379793          	slli	a5,a5,0x3
    80000358:	0000c717          	auipc	a4,0xc
    8000035c:	8b870713          	addi	a4,a4,-1864 # 8000bc10 <benchmarks>
    80000360:	00e787b3          	add	a5,a5,a4
    80000364:	faf43823          	sd	a5,-80(s0)
    80000368:	0000c797          	auipc	a5,0xc
    8000036c:	fe878793          	addi	a5,a5,-24 # 8000c350 <current>
    80000370:	fb043703          	ld	a4,-80(s0)
    80000374:	00e7b023          	sd	a4,0(a5)
    80000378:	fe442783          	lw	a5,-28(s0)
    8000037c:	00178793          	addi	a5,a5,1
    80000380:	00579793          	slli	a5,a5,0x5
    80000384:	fb043703          	ld	a4,-80(s0)
    80000388:	00f707b3          	add	a5,a4,a5
    8000038c:	00878713          	addi	a4,a5,8
    80000390:	0000c797          	auipc	a5,0xc
    80000394:	fc878793          	addi	a5,a5,-56 # 8000c358 <setting>
    80000398:	00e7b023          	sd	a4,0(a5)
    8000039c:	fb043503          	ld	a0,-80(s0)
    800003a0:	d45ff0ef          	jal	ra,800000e4 <bench_check>
    800003a4:	faa43423          	sd	a0,-88(s0)
    800003a8:	fb043783          	ld	a5,-80(s0)
    800003ac:	0187b703          	ld	a4,24(a5)
    800003b0:	fb043783          	ld	a5,-80(s0)
    800003b4:	0207b783          	ld	a5,32(a5)
    800003b8:	00078613          	mv	a2,a5
    800003bc:	00070593          	mv	a1,a4
    800003c0:	0000b517          	auipc	a0,0xb
    800003c4:	e0850513          	addi	a0,a0,-504 # 8000b1c8 <uptime+0x23c>
    800003c8:	2c10a0ef          	jal	ra,8000ae88 <printf_>
    800003cc:	fa843783          	ld	a5,-88(s0)
    800003d0:	00078c63          	beqz	a5,800003e8 <main+0x1b4>
    800003d4:	fa843583          	ld	a1,-88(s0)
    800003d8:	0000b517          	auipc	a0,0xb
    800003dc:	e0050513          	addi	a0,a0,-512 # 8000b1d8 <uptime+0x24c>
    800003e0:	2a90a0ef          	jal	ra,8000ae88 <printf_>
    800003e4:	1240006f          	j	80000508 <main+0x2d4>
    800003e8:	fff00793          	li	a5,-1
    800003ec:	fcf43423          	sd	a5,-56(s0)
    800003f0:	00100793          	li	a5,1
    800003f4:	fcf42223          	sw	a5,-60(s0)
    800003f8:	fc042023          	sw	zero,-64(s0)
    800003fc:	0680006f          	j	80000464 <main+0x230>
    80000400:	f8840793          	addi	a5,s0,-120
    80000404:	00078593          	mv	a1,a5
    80000408:	fb043503          	ld	a0,-80(s0)
    8000040c:	d45ff0ef          	jal	ra,80000150 <run_once>
    80000410:	f8842783          	lw	a5,-120(s0)
    80000414:	00078863          	beqz	a5,80000424 <main+0x1f0>
    80000418:	0000b797          	auipc	a5,0xb
    8000041c:	dd078793          	addi	a5,a5,-560 # 8000b1e8 <uptime+0x25c>
    80000420:	00c0006f          	j	8000042c <main+0x1f8>
    80000424:	0000b797          	auipc	a5,0xb
    80000428:	dcc78793          	addi	a5,a5,-564 # 8000b1f0 <uptime+0x264>
    8000042c:	00078513          	mv	a0,a5
    80000430:	2590a0ef          	jal	ra,8000ae88 <printf_>
    80000434:	f8842703          	lw	a4,-120(s0)
    80000438:	fc442783          	lw	a5,-60(s0)
    8000043c:	00f777b3          	and	a5,a4,a5
    80000440:	fcf42223          	sw	a5,-60(s0)
    80000444:	f9843783          	ld	a5,-104(s0)
    80000448:	fc843703          	ld	a4,-56(s0)
    8000044c:	00e7f663          	bgeu	a5,a4,80000458 <main+0x224>
    80000450:	f9843783          	ld	a5,-104(s0)
    80000454:	fcf43423          	sd	a5,-56(s0)
    80000458:	fc042783          	lw	a5,-64(s0)
    8000045c:	0017879b          	addiw	a5,a5,1
    80000460:	fcf42023          	sw	a5,-64(s0)
    80000464:	fc042783          	lw	a5,-64(s0)
    80000468:	0007879b          	sext.w	a5,a5
    8000046c:	f8f05ae3          	blez	a5,80000400 <main+0x1cc>
    80000470:	fc442783          	lw	a5,-60(s0)
    80000474:	0007879b          	sext.w	a5,a5
    80000478:	00078a63          	beqz	a5,8000048c <main+0x258>
    8000047c:	0000b517          	auipc	a0,0xb
    80000480:	d7c50513          	addi	a0,a0,-644 # 8000b1f8 <uptime+0x26c>
    80000484:	2050a0ef          	jal	ra,8000ae88 <printf_>
    80000488:	0100006f          	j	80000498 <main+0x264>
    8000048c:	0000b517          	auipc	a0,0xb
    80000490:	d7c50513          	addi	a0,a0,-644 # 8000b208 <uptime+0x27c>
    80000494:	1f50a0ef          	jal	ra,8000ae88 <printf_>
    80000498:	fd442703          	lw	a4,-44(s0)
    8000049c:	fc442783          	lw	a5,-60(s0)
    800004a0:	00f777b3          	and	a5,a4,a5
    800004a4:	fcf42a23          	sw	a5,-44(s0)
    800004a8:	fc843603          	ld	a2,-56(s0)
    800004ac:	00000593          	li	a1,0
    800004b0:	fb043503          	ld	a0,-80(s0)
    800004b4:	d29ff0ef          	jal	ra,800001dc <score>
    800004b8:	faa43023          	sd	a0,-96(s0)
    800004bc:	0000b517          	auipc	a0,0xb
    800004c0:	d5c50513          	addi	a0,a0,-676 # 8000b218 <uptime+0x28c>
    800004c4:	1c50a0ef          	jal	ra,8000ae88 <printf_>
    800004c8:	fe442783          	lw	a5,-28(s0)
    800004cc:	0007879b          	sext.w	a5,a5
    800004d0:	02078463          	beqz	a5,800004f8 <main+0x2c4>
    800004d4:	fc843783          	ld	a5,-56(s0)
    800004d8:	0007879b          	sext.w	a5,a5
    800004dc:	fa043703          	ld	a4,-96(s0)
    800004e0:	0007071b          	sext.w	a4,a4
    800004e4:	00070613          	mv	a2,a4
    800004e8:	00078593          	mv	a1,a5
    800004ec:	0000b517          	auipc	a0,0xb
    800004f0:	d3450513          	addi	a0,a0,-716 # 8000b220 <uptime+0x294>
    800004f4:	1950a0ef          	jal	ra,8000ae88 <printf_>
    800004f8:	fd843703          	ld	a4,-40(s0)
    800004fc:	fa043783          	ld	a5,-96(s0)
    80000500:	00f707b3          	add	a5,a4,a5
    80000504:	fcf43c23          	sd	a5,-40(s0)
    80000508:	fd042783          	lw	a5,-48(s0)
    8000050c:	0017879b          	addiw	a5,a5,1
    80000510:	fcf42823          	sw	a5,-48(s0)
    80000514:	fd042783          	lw	a5,-48(s0)
    80000518:	00078713          	mv	a4,a5
    8000051c:	00900793          	li	a5,9
    80000520:	e2e7f2e3          	bgeu	a5,a4,80000344 <main+0x110>
    80000524:	2690a0ef          	jal	ra,8000af8c <uptime>
    80000528:	00050793          	mv	a5,a0
    8000052c:	faf42c23          	sw	a5,-72(s0)
    80000530:	fd843703          	ld	a4,-40(s0)
    80000534:	00a00793          	li	a5,10
    80000538:	02f757b3          	divu	a5,a4,a5
    8000053c:	fcf43c23          	sd	a5,-40(s0)
    80000540:	0000b517          	auipc	a0,0xb
    80000544:	cf850513          	addi	a0,a0,-776 # 8000b238 <uptime+0x2ac>
    80000548:	1410a0ef          	jal	ra,8000ae88 <printf_>
    8000054c:	fd442783          	lw	a5,-44(s0)
    80000550:	0007879b          	sext.w	a5,a5
    80000554:	00078863          	beqz	a5,80000564 <main+0x330>
    80000558:	0000b797          	auipc	a5,0xb
    8000055c:	d1878793          	addi	a5,a5,-744 # 8000b270 <uptime+0x2e4>
    80000560:	00c0006f          	j	8000056c <main+0x338>
    80000564:	0000b797          	auipc	a5,0xb
    80000568:	d1478793          	addi	a5,a5,-748 # 8000b278 <uptime+0x2ec>
    8000056c:	00078593          	mv	a1,a5
    80000570:	0000b517          	auipc	a0,0xb
    80000574:	d1050513          	addi	a0,a0,-752 # 8000b280 <uptime+0x2f4>
    80000578:	1110a0ef          	jal	ra,8000ae88 <printf_>
    8000057c:	fe442783          	lw	a5,-28(s0)
    80000580:	0007871b          	sext.w	a4,a5
    80000584:	00200793          	li	a5,2
    80000588:	02f71e63          	bne	a4,a5,800005c4 <main+0x390>
    8000058c:	fd843783          	ld	a5,-40(s0)
    80000590:	0007879b          	sext.w	a5,a5
    80000594:	00078593          	mv	a1,a5
    80000598:	0000b517          	auipc	a0,0xb
    8000059c:	cf850513          	addi	a0,a0,-776 # 8000b290 <uptime+0x304>
    800005a0:	0e90a0ef          	jal	ra,8000ae88 <printf_>
    800005a4:	0000b617          	auipc	a2,0xb
    800005a8:	d0460613          	addi	a2,a2,-764 # 8000b2a8 <uptime+0x31c>
    800005ac:	000187b7          	lui	a5,0x18
    800005b0:	6a078593          	addi	a1,a5,1696 # 186a0 <_start-0x7ffe7960>
    800005b4:	0000b517          	auipc	a0,0xb
    800005b8:	d0c50513          	addi	a0,a0,-756 # 8000b2c0 <uptime+0x334>
    800005bc:	0cd0a0ef          	jal	ra,8000ae88 <printf_>
    800005c0:	0100006f          	j	800005d0 <main+0x39c>
    800005c4:	0000b517          	auipc	a0,0xb
    800005c8:	c5450513          	addi	a0,a0,-940 # 8000b218 <uptime+0x28c>
    800005cc:	0bd0a0ef          	jal	ra,8000ae88 <printf_>
    800005d0:	fb842703          	lw	a4,-72(s0)
    800005d4:	fbc42783          	lw	a5,-68(s0)
    800005d8:	40f707bb          	subw	a5,a4,a5
    800005dc:	0007879b          	sext.w	a5,a5
    800005e0:	00078593          	mv	a1,a5
    800005e4:	0000b517          	auipc	a0,0xb
    800005e8:	d0450513          	addi	a0,a0,-764 # 8000b2e8 <uptime+0x35c>
    800005ec:	09d0a0ef          	jal	ra,8000ae88 <printf_>
    800005f0:	fd442783          	lw	a5,-44(s0)
    800005f4:	0007879b          	sext.w	a5,a5
    800005f8:	0017b793          	seqz	a5,a5
    800005fc:	0ff7f793          	zext.b	a5,a5
    80000600:	0007879b          	sext.w	a5,a5
    80000604:	00078513          	mv	a0,a5
    80000608:	08813083          	ld	ra,136(sp)
    8000060c:	08013403          	ld	s0,128(sp)
    80000610:	09010113          	addi	sp,sp,144
    80000614:	00008067          	ret

0000000080000618 <bench_alloc>:
    80000618:	fd010113          	addi	sp,sp,-48
    8000061c:	02113423          	sd	ra,40(sp)
    80000620:	02813023          	sd	s0,32(sp)
    80000624:	03010413          	addi	s0,sp,48
    80000628:	fca43c23          	sd	a0,-40(s0)
    8000062c:	fd843783          	ld	a5,-40(s0)
    80000630:	00778793          	addi	a5,a5,7
    80000634:	ff87f793          	andi	a5,a5,-8
    80000638:	fcf43c23          	sd	a5,-40(s0)
    8000063c:	0000c797          	auipc	a5,0xc
    80000640:	bfc78793          	addi	a5,a5,-1028 # 8000c238 <hbrk>
    80000644:	0007b783          	ld	a5,0(a5)
    80000648:	fef43023          	sd	a5,-32(s0)
    8000064c:	0000c797          	auipc	a5,0xc
    80000650:	bec78793          	addi	a5,a5,-1044 # 8000c238 <hbrk>
    80000654:	0007b703          	ld	a4,0(a5)
    80000658:	fd843783          	ld	a5,-40(s0)
    8000065c:	00f70733          	add	a4,a4,a5
    80000660:	0000c797          	auipc	a5,0xc
    80000664:	bd878793          	addi	a5,a5,-1064 # 8000c238 <hbrk>
    80000668:	00e7b023          	sd	a4,0(a5)
    8000066c:	0000c797          	auipc	a5,0xc
    80000670:	bbc78793          	addi	a5,a5,-1092 # 8000c228 <_heap>
    80000674:	0007b783          	ld	a5,0(a5)
    80000678:	00078713          	mv	a4,a5
    8000067c:	0000c797          	auipc	a5,0xc
    80000680:	bbc78793          	addi	a5,a5,-1092 # 8000c238 <hbrk>
    80000684:	0007b783          	ld	a5,0(a5)
    80000688:	02e7e263          	bltu	a5,a4,800006ac <bench_alloc+0x94>
    8000068c:	0000c797          	auipc	a5,0xc
    80000690:	b9c78793          	addi	a5,a5,-1124 # 8000c228 <_heap>
    80000694:	0087b783          	ld	a5,8(a5)
    80000698:	00078713          	mv	a4,a5
    8000069c:	0000c797          	auipc	a5,0xc
    800006a0:	b9c78793          	addi	a5,a5,-1124 # 8000c238 <hbrk>
    800006a4:	0007b783          	ld	a5,0(a5)
    800006a8:	02e7e263          	bltu	a5,a4,800006cc <bench_alloc+0xb4>
    800006ac:	08d00613          	li	a2,141
    800006b0:	0000b597          	auipc	a1,0xb
    800006b4:	c5058593          	addi	a1,a1,-944 # 8000b300 <uptime+0x374>
    800006b8:	0000b517          	auipc	a0,0xb
    800006bc:	c8850513          	addi	a0,a0,-888 # 8000b340 <uptime+0x3b4>
    800006c0:	7c80a0ef          	jal	ra,8000ae88 <printf_>
    800006c4:	00100513          	li	a0,1
    800006c8:	41d070ef          	jal	ra,800082e4 <_halt>
    800006cc:	fe043783          	ld	a5,-32(s0)
    800006d0:	fef43423          	sd	a5,-24(s0)
    800006d4:	0180006f          	j	800006ec <bench_alloc+0xd4>
    800006d8:	fe843783          	ld	a5,-24(s0)
    800006dc:	0007b023          	sd	zero,0(a5)
    800006e0:	fe843783          	ld	a5,-24(s0)
    800006e4:	00878793          	addi	a5,a5,8
    800006e8:	fef43423          	sd	a5,-24(s0)
    800006ec:	0000c797          	auipc	a5,0xc
    800006f0:	b4c78793          	addi	a5,a5,-1204 # 8000c238 <hbrk>
    800006f4:	0007b783          	ld	a5,0(a5)
    800006f8:	fe843703          	ld	a4,-24(s0)
    800006fc:	fcf71ee3          	bne	a4,a5,800006d8 <bench_alloc+0xc0>
    80000700:	0000c797          	auipc	a5,0xc
    80000704:	b3878793          	addi	a5,a5,-1224 # 8000c238 <hbrk>
    80000708:	0007b783          	ld	a5,0(a5)
    8000070c:	00078713          	mv	a4,a5
    80000710:	0000c797          	auipc	a5,0xc
    80000714:	b1878793          	addi	a5,a5,-1256 # 8000c228 <_heap>
    80000718:	0007b783          	ld	a5,0(a5)
    8000071c:	40f70733          	sub	a4,a4,a5
    80000720:	0000c797          	auipc	a5,0xc
    80000724:	c3878793          	addi	a5,a5,-968 # 8000c358 <setting>
    80000728:	0007b783          	ld	a5,0(a5)
    8000072c:	0087b783          	ld	a5,8(a5)
    80000730:	02e7f263          	bgeu	a5,a4,80000754 <bench_alloc+0x13c>
    80000734:	09100613          	li	a2,145
    80000738:	0000b597          	auipc	a1,0xb
    8000073c:	bc858593          	addi	a1,a1,-1080 # 8000b300 <uptime+0x374>
    80000740:	0000b517          	auipc	a0,0xb
    80000744:	c0050513          	addi	a0,a0,-1024 # 8000b340 <uptime+0x3b4>
    80000748:	7400a0ef          	jal	ra,8000ae88 <printf_>
    8000074c:	00100513          	li	a0,1
    80000750:	395070ef          	jal	ra,800082e4 <_halt>
    80000754:	fe043783          	ld	a5,-32(s0)
    80000758:	00078513          	mv	a0,a5
    8000075c:	02813083          	ld	ra,40(sp)
    80000760:	02013403          	ld	s0,32(sp)
    80000764:	03010113          	addi	sp,sp,48
    80000768:	00008067          	ret

000000008000076c <bench_free>:
    8000076c:	fe010113          	addi	sp,sp,-32
    80000770:	00813c23          	sd	s0,24(sp)
    80000774:	02010413          	addi	s0,sp,32
    80000778:	fea43423          	sd	a0,-24(s0)
    8000077c:	00000013          	nop
    80000780:	01813403          	ld	s0,24(sp)
    80000784:	02010113          	addi	sp,sp,32
    80000788:	00008067          	ret

000000008000078c <bench_srand>:
    8000078c:	fe010113          	addi	sp,sp,-32
    80000790:	00813c23          	sd	s0,24(sp)
    80000794:	02010413          	addi	s0,sp,32
    80000798:	00050793          	mv	a5,a0
    8000079c:	fef42623          	sw	a5,-20(s0)
    800007a0:	fec42703          	lw	a4,-20(s0)
    800007a4:	000087b7          	lui	a5,0x8
    800007a8:	fff78793          	addi	a5,a5,-1 # 7fff <_start-0x7fff8001>
    800007ac:	00f777b3          	and	a5,a4,a5
    800007b0:	0007871b          	sext.w	a4,a5
    800007b4:	0000c797          	auipc	a5,0xc
    800007b8:	a6c78793          	addi	a5,a5,-1428 # 8000c220 <seed>
    800007bc:	00e7a023          	sw	a4,0(a5)
    800007c0:	00000013          	nop
    800007c4:	01813403          	ld	s0,24(sp)
    800007c8:	02010113          	addi	sp,sp,32
    800007cc:	00008067          	ret

00000000800007d0 <bench_rand>:
    800007d0:	ff010113          	addi	sp,sp,-16
    800007d4:	00813423          	sd	s0,8(sp)
    800007d8:	01010413          	addi	s0,sp,16
    800007dc:	0000c797          	auipc	a5,0xc
    800007e0:	a4478793          	addi	a5,a5,-1468 # 8000c220 <seed>
    800007e4:	0007a703          	lw	a4,0(a5)
    800007e8:	000347b7          	lui	a5,0x34
    800007ec:	3fd7879b          	addiw	a5,a5,1021 # 343fd <_start-0x7ffcbc03>
    800007f0:	02f707bb          	mulw	a5,a4,a5
    800007f4:	0007871b          	sext.w	a4,a5
    800007f8:	0026a7b7          	lui	a5,0x26a
    800007fc:	ec37879b          	addiw	a5,a5,-317 # 269ec3 <_start-0x7fd9613d>
    80000800:	00f707bb          	addw	a5,a4,a5
    80000804:	0007871b          	sext.w	a4,a5
    80000808:	0000c797          	auipc	a5,0xc
    8000080c:	a1878793          	addi	a5,a5,-1512 # 8000c220 <seed>
    80000810:	00e7a023          	sw	a4,0(a5)
    80000814:	0000c797          	auipc	a5,0xc
    80000818:	a0c78793          	addi	a5,a5,-1524 # 8000c220 <seed>
    8000081c:	0007a783          	lw	a5,0(a5)
    80000820:	0107d79b          	srliw	a5,a5,0x10
    80000824:	0007879b          	sext.w	a5,a5
    80000828:	00078713          	mv	a4,a5
    8000082c:	000087b7          	lui	a5,0x8
    80000830:	fff78793          	addi	a5,a5,-1 # 7fff <_start-0x7fff8001>
    80000834:	00f777b3          	and	a5,a4,a5
    80000838:	0007879b          	sext.w	a5,a5
    8000083c:	00078513          	mv	a0,a5
    80000840:	00813403          	ld	s0,8(sp)
    80000844:	01010113          	addi	sp,sp,16
    80000848:	00008067          	ret

000000008000084c <checksum>:
    8000084c:	fc010113          	addi	sp,sp,-64
    80000850:	02813c23          	sd	s0,56(sp)
    80000854:	04010413          	addi	s0,sp,64
    80000858:	fca43423          	sd	a0,-56(s0)
    8000085c:	fcb43023          	sd	a1,-64(s0)
    80000860:	010007b7          	lui	a5,0x1000
    80000864:	19378793          	addi	a5,a5,403 # 1000193 <_start-0x7efffe6d>
    80000868:	fcf42c23          	sw	a5,-40(s0)
    8000086c:	811ca7b7          	lui	a5,0x811ca
    80000870:	dc578793          	addi	a5,a5,-571 # ffffffff811c9dc5 <_pmem_end+0xfffffffef91c9dc5>
    80000874:	fef42623          	sw	a5,-20(s0)
    80000878:	fc843783          	ld	a5,-56(s0)
    8000087c:	fef43023          	sd	a5,-32(s0)
    80000880:	0600006f          	j	800008e0 <checksum+0x94>
    80000884:	fc042e23          	sw	zero,-36(s0)
    80000888:	03c0006f          	j	800008c4 <checksum+0x78>
    8000088c:	fdc42783          	lw	a5,-36(s0)
    80000890:	fe043703          	ld	a4,-32(s0)
    80000894:	00f707b3          	add	a5,a4,a5
    80000898:	0007c783          	lbu	a5,0(a5)
    8000089c:	0007871b          	sext.w	a4,a5
    800008a0:	fec42783          	lw	a5,-20(s0)
    800008a4:	00e7c7b3          	xor	a5,a5,a4
    800008a8:	0007879b          	sext.w	a5,a5
    800008ac:	fd842703          	lw	a4,-40(s0)
    800008b0:	02f707bb          	mulw	a5,a4,a5
    800008b4:	fef42623          	sw	a5,-20(s0)
    800008b8:	fdc42783          	lw	a5,-36(s0)
    800008bc:	0017879b          	addiw	a5,a5,1
    800008c0:	fcf42e23          	sw	a5,-36(s0)
    800008c4:	fdc42783          	lw	a5,-36(s0)
    800008c8:	0007871b          	sext.w	a4,a5
    800008cc:	00300793          	li	a5,3
    800008d0:	fae7dee3          	bge	a5,a4,8000088c <checksum+0x40>
    800008d4:	fe043783          	ld	a5,-32(s0)
    800008d8:	00478793          	addi	a5,a5,4
    800008dc:	fef43023          	sd	a5,-32(s0)
    800008e0:	fe043783          	ld	a5,-32(s0)
    800008e4:	00478793          	addi	a5,a5,4
    800008e8:	fc043703          	ld	a4,-64(s0)
    800008ec:	f8e7ece3          	bltu	a5,a4,80000884 <checksum+0x38>
    800008f0:	fec42783          	lw	a5,-20(s0)
    800008f4:	fcf42a23          	sw	a5,-44(s0)
    800008f8:	fd442783          	lw	a5,-44(s0)
    800008fc:	00d7979b          	slliw	a5,a5,0xd
    80000900:	0007879b          	sext.w	a5,a5
    80000904:	fd442703          	lw	a4,-44(s0)
    80000908:	00f707bb          	addw	a5,a4,a5
    8000090c:	fcf42a23          	sw	a5,-44(s0)
    80000910:	fd442783          	lw	a5,-44(s0)
    80000914:	4077d79b          	sraiw	a5,a5,0x7
    80000918:	0007871b          	sext.w	a4,a5
    8000091c:	fd442783          	lw	a5,-44(s0)
    80000920:	00f747b3          	xor	a5,a4,a5
    80000924:	fcf42a23          	sw	a5,-44(s0)
    80000928:	fd442783          	lw	a5,-44(s0)
    8000092c:	0037979b          	slliw	a5,a5,0x3
    80000930:	0007879b          	sext.w	a5,a5
    80000934:	fd442703          	lw	a4,-44(s0)
    80000938:	00f707bb          	addw	a5,a4,a5
    8000093c:	fcf42a23          	sw	a5,-44(s0)
    80000940:	fd442783          	lw	a5,-44(s0)
    80000944:	4117d79b          	sraiw	a5,a5,0x11
    80000948:	0007871b          	sext.w	a4,a5
    8000094c:	fd442783          	lw	a5,-44(s0)
    80000950:	00f747b3          	xor	a5,a4,a5
    80000954:	fcf42a23          	sw	a5,-44(s0)
    80000958:	fd442783          	lw	a5,-44(s0)
    8000095c:	0057979b          	slliw	a5,a5,0x5
    80000960:	0007879b          	sext.w	a5,a5
    80000964:	fd442703          	lw	a4,-44(s0)
    80000968:	00f707bb          	addw	a5,a4,a5
    8000096c:	fcf42a23          	sw	a5,-44(s0)
    80000970:	fd442783          	lw	a5,-44(s0)
    80000974:	00078513          	mv	a0,a5
    80000978:	03813403          	ld	s0,56(sp)
    8000097c:	04010113          	addi	sp,sp,64
    80000980:	00008067          	ret

0000000080000984 <compile_bf>:
    80000984:	fe010113          	addi	sp,sp,-32
    80000988:	00813c23          	sd	s0,24(sp)
    8000098c:	02010413          	addi	s0,sp,32
    80000990:	fe041723          	sh	zero,-18(s0)
    80000994:	2d40006f          	j	80000c68 <compile_bf+0x2e4>
    80000998:	0000c797          	auipc	a5,0xc
    8000099c:	8c878793          	addi	a5,a5,-1848 # 8000c260 <code>
    800009a0:	0007b783          	ld	a5,0(a5)
    800009a4:	0007c783          	lbu	a5,0(a5)
    800009a8:	fef42423          	sw	a5,-24(s0)
    800009ac:	fee45783          	lhu	a5,-18(s0)
    800009b0:	0007871b          	sext.w	a4,a5
    800009b4:	000017b7          	lui	a5,0x1
    800009b8:	2cf77463          	bgeu	a4,a5,80000c80 <compile_bf+0x2fc>
    800009bc:	fe842783          	lw	a5,-24(s0)
    800009c0:	fd57869b          	addiw	a3,a5,-43 # fd5 <_start-0x7ffff02b>
    800009c4:	0006871b          	sext.w	a4,a3
    800009c8:	03200793          	li	a5,50
    800009cc:	26e7e263          	bltu	a5,a4,80000c30 <compile_bf+0x2ac>
    800009d0:	02069793          	slli	a5,a3,0x20
    800009d4:	0207d793          	srli	a5,a5,0x20
    800009d8:	00279713          	slli	a4,a5,0x2
    800009dc:	0000b797          	auipc	a5,0xb
    800009e0:	98478793          	addi	a5,a5,-1660 # 8000b360 <uptime+0x3d4>
    800009e4:	00f707b3          	add	a5,a4,a5
    800009e8:	0007a783          	lw	a5,0(a5)
    800009ec:	0007871b          	sext.w	a4,a5
    800009f0:	0000b797          	auipc	a5,0xb
    800009f4:	97078793          	addi	a5,a5,-1680 # 8000b360 <uptime+0x3d4>
    800009f8:	00f707b3          	add	a5,a4,a5
    800009fc:	00078067          	jr	a5
    80000a00:	0000c797          	auipc	a5,0xc
    80000a04:	84878793          	addi	a5,a5,-1976 # 8000c248 <PROGRAM>
    80000a08:	0007b703          	ld	a4,0(a5)
    80000a0c:	fee45783          	lhu	a5,-18(s0)
    80000a10:	00279793          	slli	a5,a5,0x2
    80000a14:	00f707b3          	add	a5,a4,a5
    80000a18:	00100713          	li	a4,1
    80000a1c:	00e79023          	sh	a4,0(a5)
    80000a20:	2200006f          	j	80000c40 <compile_bf+0x2bc>
    80000a24:	0000c797          	auipc	a5,0xc
    80000a28:	82478793          	addi	a5,a5,-2012 # 8000c248 <PROGRAM>
    80000a2c:	0007b703          	ld	a4,0(a5)
    80000a30:	fee45783          	lhu	a5,-18(s0)
    80000a34:	00279793          	slli	a5,a5,0x2
    80000a38:	00f707b3          	add	a5,a4,a5
    80000a3c:	00200713          	li	a4,2
    80000a40:	00e79023          	sh	a4,0(a5)
    80000a44:	1fc0006f          	j	80000c40 <compile_bf+0x2bc>
    80000a48:	0000c797          	auipc	a5,0xc
    80000a4c:	80078793          	addi	a5,a5,-2048 # 8000c248 <PROGRAM>
    80000a50:	0007b703          	ld	a4,0(a5)
    80000a54:	fee45783          	lhu	a5,-18(s0)
    80000a58:	00279793          	slli	a5,a5,0x2
    80000a5c:	00f707b3          	add	a5,a4,a5
    80000a60:	00300713          	li	a4,3
    80000a64:	00e79023          	sh	a4,0(a5)
    80000a68:	1d80006f          	j	80000c40 <compile_bf+0x2bc>
    80000a6c:	0000b797          	auipc	a5,0xb
    80000a70:	7dc78793          	addi	a5,a5,2012 # 8000c248 <PROGRAM>
    80000a74:	0007b703          	ld	a4,0(a5)
    80000a78:	fee45783          	lhu	a5,-18(s0)
    80000a7c:	00279793          	slli	a5,a5,0x2
    80000a80:	00f707b3          	add	a5,a4,a5
    80000a84:	00400713          	li	a4,4
    80000a88:	00e79023          	sh	a4,0(a5)
    80000a8c:	1b40006f          	j	80000c40 <compile_bf+0x2bc>
    80000a90:	0000b797          	auipc	a5,0xb
    80000a94:	7b878793          	addi	a5,a5,1976 # 8000c248 <PROGRAM>
    80000a98:	0007b703          	ld	a4,0(a5)
    80000a9c:	fee45783          	lhu	a5,-18(s0)
    80000aa0:	00279793          	slli	a5,a5,0x2
    80000aa4:	00f707b3          	add	a5,a4,a5
    80000aa8:	00500713          	li	a4,5
    80000aac:	00e79023          	sh	a4,0(a5)
    80000ab0:	1900006f          	j	80000c40 <compile_bf+0x2bc>
    80000ab4:	0000b797          	auipc	a5,0xb
    80000ab8:	79478793          	addi	a5,a5,1940 # 8000c248 <PROGRAM>
    80000abc:	0007b703          	ld	a4,0(a5)
    80000ac0:	fee45783          	lhu	a5,-18(s0)
    80000ac4:	00279793          	slli	a5,a5,0x2
    80000ac8:	00f707b3          	add	a5,a4,a5
    80000acc:	00600713          	li	a4,6
    80000ad0:	00e79023          	sh	a4,0(a5)
    80000ad4:	16c0006f          	j	80000c40 <compile_bf+0x2bc>
    80000ad8:	0000b797          	auipc	a5,0xb
    80000adc:	77078793          	addi	a5,a5,1904 # 8000c248 <PROGRAM>
    80000ae0:	0007b703          	ld	a4,0(a5)
    80000ae4:	fee45783          	lhu	a5,-18(s0)
    80000ae8:	00279793          	slli	a5,a5,0x2
    80000aec:	00f707b3          	add	a5,a4,a5
    80000af0:	00700713          	li	a4,7
    80000af4:	00e79023          	sh	a4,0(a5)
    80000af8:	0000b797          	auipc	a5,0xb
    80000afc:	76078793          	addi	a5,a5,1888 # 8000c258 <SP>
    80000b00:	0007a783          	lw	a5,0(a5)
    80000b04:	00078713          	mv	a4,a5
    80000b08:	20000793          	li	a5,512
    80000b0c:	00f71663          	bne	a4,a5,80000b18 <compile_bf+0x194>
    80000b10:	00100793          	li	a5,1
    80000b14:	1b80006f          	j	80000ccc <compile_bf+0x348>
    80000b18:	0000b797          	auipc	a5,0xb
    80000b1c:	73878793          	addi	a5,a5,1848 # 8000c250 <STACK>
    80000b20:	0007b703          	ld	a4,0(a5)
    80000b24:	0000b797          	auipc	a5,0xb
    80000b28:	73478793          	addi	a5,a5,1844 # 8000c258 <SP>
    80000b2c:	0007a783          	lw	a5,0(a5)
    80000b30:	0007879b          	sext.w	a5,a5
    80000b34:	0017869b          	addiw	a3,a5,1
    80000b38:	0006861b          	sext.w	a2,a3
    80000b3c:	0000b697          	auipc	a3,0xb
    80000b40:	71c68693          	addi	a3,a3,1820 # 8000c258 <SP>
    80000b44:	00c6a023          	sw	a2,0(a3)
    80000b48:	02079793          	slli	a5,a5,0x20
    80000b4c:	0207d793          	srli	a5,a5,0x20
    80000b50:	00179793          	slli	a5,a5,0x1
    80000b54:	00f707b3          	add	a5,a4,a5
    80000b58:	fee45703          	lhu	a4,-18(s0)
    80000b5c:	00e79023          	sh	a4,0(a5)
    80000b60:	0e00006f          	j	80000c40 <compile_bf+0x2bc>
    80000b64:	0000b797          	auipc	a5,0xb
    80000b68:	6f478793          	addi	a5,a5,1780 # 8000c258 <SP>
    80000b6c:	0007a783          	lw	a5,0(a5)
    80000b70:	00079663          	bnez	a5,80000b7c <compile_bf+0x1f8>
    80000b74:	00100793          	li	a5,1
    80000b78:	1540006f          	j	80000ccc <compile_bf+0x348>
    80000b7c:	0000b797          	auipc	a5,0xb
    80000b80:	6d478793          	addi	a5,a5,1748 # 8000c250 <STACK>
    80000b84:	0007b703          	ld	a4,0(a5)
    80000b88:	0000b797          	auipc	a5,0xb
    80000b8c:	6d078793          	addi	a5,a5,1744 # 8000c258 <SP>
    80000b90:	0007a783          	lw	a5,0(a5)
    80000b94:	fff7879b          	addiw	a5,a5,-1
    80000b98:	0007869b          	sext.w	a3,a5
    80000b9c:	0000b797          	auipc	a5,0xb
    80000ba0:	6bc78793          	addi	a5,a5,1724 # 8000c258 <SP>
    80000ba4:	00d7a023          	sw	a3,0(a5)
    80000ba8:	0000b797          	auipc	a5,0xb
    80000bac:	6b078793          	addi	a5,a5,1712 # 8000c258 <SP>
    80000bb0:	0007a783          	lw	a5,0(a5)
    80000bb4:	02079793          	slli	a5,a5,0x20
    80000bb8:	0207d793          	srli	a5,a5,0x20
    80000bbc:	00179793          	slli	a5,a5,0x1
    80000bc0:	00f707b3          	add	a5,a4,a5
    80000bc4:	0007d783          	lhu	a5,0(a5)
    80000bc8:	fef41323          	sh	a5,-26(s0)
    80000bcc:	0000b797          	auipc	a5,0xb
    80000bd0:	67c78793          	addi	a5,a5,1660 # 8000c248 <PROGRAM>
    80000bd4:	0007b703          	ld	a4,0(a5)
    80000bd8:	fee45783          	lhu	a5,-18(s0)
    80000bdc:	00279793          	slli	a5,a5,0x2
    80000be0:	00f707b3          	add	a5,a4,a5
    80000be4:	00800713          	li	a4,8
    80000be8:	00e79023          	sh	a4,0(a5)
    80000bec:	0000b797          	auipc	a5,0xb
    80000bf0:	65c78793          	addi	a5,a5,1628 # 8000c248 <PROGRAM>
    80000bf4:	0007b703          	ld	a4,0(a5)
    80000bf8:	fee45783          	lhu	a5,-18(s0)
    80000bfc:	00279793          	slli	a5,a5,0x2
    80000c00:	00f707b3          	add	a5,a4,a5
    80000c04:	fe645703          	lhu	a4,-26(s0)
    80000c08:	00e79123          	sh	a4,2(a5)
    80000c0c:	0000b797          	auipc	a5,0xb
    80000c10:	63c78793          	addi	a5,a5,1596 # 8000c248 <PROGRAM>
    80000c14:	0007b703          	ld	a4,0(a5)
    80000c18:	fe645783          	lhu	a5,-26(s0)
    80000c1c:	00279793          	slli	a5,a5,0x2
    80000c20:	00f707b3          	add	a5,a4,a5
    80000c24:	fee45703          	lhu	a4,-18(s0)
    80000c28:	00e79123          	sh	a4,2(a5)
    80000c2c:	0140006f          	j	80000c40 <compile_bf+0x2bc>
    80000c30:	fee45783          	lhu	a5,-18(s0)
    80000c34:	fff7879b          	addiw	a5,a5,-1
    80000c38:	fef41723          	sh	a5,-18(s0)
    80000c3c:	00000013          	nop
    80000c40:	fee45783          	lhu	a5,-18(s0)
    80000c44:	0017879b          	addiw	a5,a5,1
    80000c48:	fef41723          	sh	a5,-18(s0)
    80000c4c:	0000b797          	auipc	a5,0xb
    80000c50:	61478793          	addi	a5,a5,1556 # 8000c260 <code>
    80000c54:	0007b783          	ld	a5,0(a5)
    80000c58:	00178713          	addi	a4,a5,1
    80000c5c:	0000b797          	auipc	a5,0xb
    80000c60:	60478793          	addi	a5,a5,1540 # 8000c260 <code>
    80000c64:	00e7b023          	sd	a4,0(a5)
    80000c68:	0000b797          	auipc	a5,0xb
    80000c6c:	5f878793          	addi	a5,a5,1528 # 8000c260 <code>
    80000c70:	0007b783          	ld	a5,0(a5)
    80000c74:	0007c783          	lbu	a5,0(a5)
    80000c78:	d20790e3          	bnez	a5,80000998 <compile_bf+0x14>
    80000c7c:	0080006f          	j	80000c84 <compile_bf+0x300>
    80000c80:	00000013          	nop
    80000c84:	0000b797          	auipc	a5,0xb
    80000c88:	5d478793          	addi	a5,a5,1492 # 8000c258 <SP>
    80000c8c:	0007a783          	lw	a5,0(a5)
    80000c90:	00079a63          	bnez	a5,80000ca4 <compile_bf+0x320>
    80000c94:	fee45783          	lhu	a5,-18(s0)
    80000c98:	0007871b          	sext.w	a4,a5
    80000c9c:	000017b7          	lui	a5,0x1
    80000ca0:	00f71663          	bne	a4,a5,80000cac <compile_bf+0x328>
    80000ca4:	00100793          	li	a5,1
    80000ca8:	0240006f          	j	80000ccc <compile_bf+0x348>
    80000cac:	0000b797          	auipc	a5,0xb
    80000cb0:	59c78793          	addi	a5,a5,1436 # 8000c248 <PROGRAM>
    80000cb4:	0007b703          	ld	a4,0(a5)
    80000cb8:	fee45783          	lhu	a5,-18(s0)
    80000cbc:	00279793          	slli	a5,a5,0x2
    80000cc0:	00f707b3          	add	a5,a4,a5
    80000cc4:	00079023          	sh	zero,0(a5)
    80000cc8:	00000793          	li	a5,0
    80000ccc:	00078513          	mv	a0,a5
    80000cd0:	01813403          	ld	s0,24(sp)
    80000cd4:	02010113          	addi	sp,sp,32
    80000cd8:	00008067          	ret

0000000080000cdc <execute_bf>:
    80000cdc:	fe010113          	addi	sp,sp,-32
    80000ce0:	00813c23          	sd	s0,24(sp)
    80000ce4:	02010413          	addi	s0,sp,32
    80000ce8:	fe042623          	sw	zero,-20(s0)
    80000cec:	fe042423          	sw	zero,-24(s0)
    80000cf0:	2180006f          	j	80000f08 <execute_bf+0x22c>
    80000cf4:	0000b797          	auipc	a5,0xb
    80000cf8:	55478793          	addi	a5,a5,1364 # 8000c248 <PROGRAM>
    80000cfc:	0007b703          	ld	a4,0(a5)
    80000d00:	fec46783          	lwu	a5,-20(s0)
    80000d04:	00279793          	slli	a5,a5,0x2
    80000d08:	00f707b3          	add	a5,a4,a5
    80000d0c:	0007d783          	lhu	a5,0(a5)
    80000d10:	0007879b          	sext.w	a5,a5
    80000d14:	00078693          	mv	a3,a5
    80000d18:	00800713          	li	a4,8
    80000d1c:	22d76063          	bltu	a4,a3,80000f3c <execute_bf+0x260>
    80000d20:	00279713          	slli	a4,a5,0x2
    80000d24:	0000a797          	auipc	a5,0xa
    80000d28:	70878793          	addi	a5,a5,1800 # 8000b42c <uptime+0x4a0>
    80000d2c:	00f707b3          	add	a5,a4,a5
    80000d30:	0007a783          	lw	a5,0(a5)
    80000d34:	0007871b          	sext.w	a4,a5
    80000d38:	0000a797          	auipc	a5,0xa
    80000d3c:	6f478793          	addi	a5,a5,1780 # 8000b42c <uptime+0x4a0>
    80000d40:	00f707b3          	add	a5,a4,a5
    80000d44:	00078067          	jr	a5
    80000d48:	fe842783          	lw	a5,-24(s0)
    80000d4c:	0017879b          	addiw	a5,a5,1
    80000d50:	fef42423          	sw	a5,-24(s0)
    80000d54:	1a80006f          	j	80000efc <execute_bf+0x220>
    80000d58:	fe842783          	lw	a5,-24(s0)
    80000d5c:	fff7879b          	addiw	a5,a5,-1
    80000d60:	fef42423          	sw	a5,-24(s0)
    80000d64:	1980006f          	j	80000efc <execute_bf+0x220>
    80000d68:	0000b797          	auipc	a5,0xb
    80000d6c:	50878793          	addi	a5,a5,1288 # 8000c270 <data>
    80000d70:	0007b703          	ld	a4,0(a5)
    80000d74:	fe846783          	lwu	a5,-24(s0)
    80000d78:	00179793          	slli	a5,a5,0x1
    80000d7c:	00f707b3          	add	a5,a4,a5
    80000d80:	0007d703          	lhu	a4,0(a5)
    80000d84:	0017071b          	addiw	a4,a4,1
    80000d88:	03071713          	slli	a4,a4,0x30
    80000d8c:	03075713          	srli	a4,a4,0x30
    80000d90:	00e79023          	sh	a4,0(a5)
    80000d94:	1680006f          	j	80000efc <execute_bf+0x220>
    80000d98:	0000b797          	auipc	a5,0xb
    80000d9c:	4d878793          	addi	a5,a5,1240 # 8000c270 <data>
    80000da0:	0007b703          	ld	a4,0(a5)
    80000da4:	fe846783          	lwu	a5,-24(s0)
    80000da8:	00179793          	slli	a5,a5,0x1
    80000dac:	00f707b3          	add	a5,a4,a5
    80000db0:	0007d703          	lhu	a4,0(a5)
    80000db4:	fff7071b          	addiw	a4,a4,-1
    80000db8:	03071713          	slli	a4,a4,0x30
    80000dbc:	03075713          	srli	a4,a4,0x30
    80000dc0:	00e79023          	sh	a4,0(a5)
    80000dc4:	1380006f          	j	80000efc <execute_bf+0x220>
    80000dc8:	0000b797          	auipc	a5,0xb
    80000dcc:	4a878793          	addi	a5,a5,1192 # 8000c270 <data>
    80000dd0:	0007b703          	ld	a4,0(a5)
    80000dd4:	fe846783          	lwu	a5,-24(s0)
    80000dd8:	00179793          	slli	a5,a5,0x1
    80000ddc:	00f707b3          	add	a5,a4,a5
    80000de0:	0007d583          	lhu	a1,0(a5)
    80000de4:	0000b797          	auipc	a5,0xb
    80000de8:	49478793          	addi	a5,a5,1172 # 8000c278 <output>
    80000dec:	0007b703          	ld	a4,0(a5)
    80000df0:	0000b797          	auipc	a5,0xb
    80000df4:	49078793          	addi	a5,a5,1168 # 8000c280 <noutput>
    80000df8:	0007a783          	lw	a5,0(a5)
    80000dfc:	0017869b          	addiw	a3,a5,1
    80000e00:	0006861b          	sext.w	a2,a3
    80000e04:	0000b697          	auipc	a3,0xb
    80000e08:	47c68693          	addi	a3,a3,1148 # 8000c280 <noutput>
    80000e0c:	00c6a023          	sw	a2,0(a3)
    80000e10:	00f707b3          	add	a5,a4,a5
    80000e14:	0ff5f713          	zext.b	a4,a1
    80000e18:	00e78023          	sb	a4,0(a5)
    80000e1c:	0e00006f          	j	80000efc <execute_bf+0x220>
    80000e20:	0000b797          	auipc	a5,0xb
    80000e24:	44878793          	addi	a5,a5,1096 # 8000c268 <input>
    80000e28:	0007b783          	ld	a5,0(a5)
    80000e2c:	00178693          	addi	a3,a5,1
    80000e30:	0000b717          	auipc	a4,0xb
    80000e34:	43870713          	addi	a4,a4,1080 # 8000c268 <input>
    80000e38:	00d73023          	sd	a3,0(a4)
    80000e3c:	0007c683          	lbu	a3,0(a5)
    80000e40:	0000b797          	auipc	a5,0xb
    80000e44:	43078793          	addi	a5,a5,1072 # 8000c270 <data>
    80000e48:	0007b703          	ld	a4,0(a5)
    80000e4c:	fe846783          	lwu	a5,-24(s0)
    80000e50:	00179793          	slli	a5,a5,0x1
    80000e54:	00f707b3          	add	a5,a4,a5
    80000e58:	03069713          	slli	a4,a3,0x30
    80000e5c:	03075713          	srli	a4,a4,0x30
    80000e60:	00e79023          	sh	a4,0(a5)
    80000e64:	0980006f          	j	80000efc <execute_bf+0x220>
    80000e68:	0000b797          	auipc	a5,0xb
    80000e6c:	40878793          	addi	a5,a5,1032 # 8000c270 <data>
    80000e70:	0007b703          	ld	a4,0(a5)
    80000e74:	fe846783          	lwu	a5,-24(s0)
    80000e78:	00179793          	slli	a5,a5,0x1
    80000e7c:	00f707b3          	add	a5,a4,a5
    80000e80:	0007d783          	lhu	a5,0(a5)
    80000e84:	06079663          	bnez	a5,80000ef0 <execute_bf+0x214>
    80000e88:	0000b797          	auipc	a5,0xb
    80000e8c:	3c078793          	addi	a5,a5,960 # 8000c248 <PROGRAM>
    80000e90:	0007b703          	ld	a4,0(a5)
    80000e94:	fec46783          	lwu	a5,-20(s0)
    80000e98:	00279793          	slli	a5,a5,0x2
    80000e9c:	00f707b3          	add	a5,a4,a5
    80000ea0:	0027d783          	lhu	a5,2(a5)
    80000ea4:	fef42623          	sw	a5,-20(s0)
    80000ea8:	0480006f          	j	80000ef0 <execute_bf+0x214>
    80000eac:	0000b797          	auipc	a5,0xb
    80000eb0:	3c478793          	addi	a5,a5,964 # 8000c270 <data>
    80000eb4:	0007b703          	ld	a4,0(a5)
    80000eb8:	fe846783          	lwu	a5,-24(s0)
    80000ebc:	00179793          	slli	a5,a5,0x1
    80000ec0:	00f707b3          	add	a5,a4,a5
    80000ec4:	0007d783          	lhu	a5,0(a5)
    80000ec8:	02078863          	beqz	a5,80000ef8 <execute_bf+0x21c>
    80000ecc:	0000b797          	auipc	a5,0xb
    80000ed0:	37c78793          	addi	a5,a5,892 # 8000c248 <PROGRAM>
    80000ed4:	0007b703          	ld	a4,0(a5)
    80000ed8:	fec46783          	lwu	a5,-20(s0)
    80000edc:	00279793          	slli	a5,a5,0x2
    80000ee0:	00f707b3          	add	a5,a4,a5
    80000ee4:	0027d783          	lhu	a5,2(a5)
    80000ee8:	fef42623          	sw	a5,-20(s0)
    80000eec:	00c0006f          	j	80000ef8 <execute_bf+0x21c>
    80000ef0:	00000013          	nop
    80000ef4:	0080006f          	j	80000efc <execute_bf+0x220>
    80000ef8:	00000013          	nop
    80000efc:	fec42783          	lw	a5,-20(s0)
    80000f00:	0017879b          	addiw	a5,a5,1
    80000f04:	fef42623          	sw	a5,-20(s0)
    80000f08:	0000b797          	auipc	a5,0xb
    80000f0c:	34078793          	addi	a5,a5,832 # 8000c248 <PROGRAM>
    80000f10:	0007b703          	ld	a4,0(a5)
    80000f14:	fec46783          	lwu	a5,-20(s0)
    80000f18:	00279793          	slli	a5,a5,0x2
    80000f1c:	00f707b3          	add	a5,a4,a5
    80000f20:	0007d783          	lhu	a5,0(a5)
    80000f24:	00078e63          	beqz	a5,80000f40 <execute_bf+0x264>
    80000f28:	fe842783          	lw	a5,-24(s0)
    80000f2c:	0007871b          	sext.w	a4,a5
    80000f30:	000017b7          	lui	a5,0x1
    80000f34:	dcf760e3          	bltu	a4,a5,80000cf4 <execute_bf+0x18>
    80000f38:	0080006f          	j	80000f40 <execute_bf+0x264>
    80000f3c:	00000013          	nop
    80000f40:	01813403          	ld	s0,24(sp)
    80000f44:	02010113          	addi	sp,sp,32
    80000f48:	00008067          	ret

0000000080000f4c <bench_bf_prepare>:
    80000f4c:	fe010113          	addi	sp,sp,-32
    80000f50:	00113c23          	sd	ra,24(sp)
    80000f54:	00813823          	sd	s0,16(sp)
    80000f58:	02010413          	addi	s0,sp,32
    80000f5c:	0000b797          	auipc	a5,0xb
    80000f60:	3fc78793          	addi	a5,a5,1020 # 8000c358 <setting>
    80000f64:	0007b783          	ld	a5,0(a5)
    80000f68:	0007a703          	lw	a4,0(a5)
    80000f6c:	0000b797          	auipc	a5,0xb
    80000f70:	2d478793          	addi	a5,a5,724 # 8000c240 <ARR_SIZE>
    80000f74:	00e7a023          	sw	a4,0(a5)
    80000f78:	0000b797          	auipc	a5,0xb
    80000f7c:	2e078793          	addi	a5,a5,736 # 8000c258 <SP>
    80000f80:	0007a023          	sw	zero,0(a5)
    80000f84:	00004537          	lui	a0,0x4
    80000f88:	e90ff0ef          	jal	ra,80000618 <bench_alloc>
    80000f8c:	00050713          	mv	a4,a0
    80000f90:	0000b797          	auipc	a5,0xb
    80000f94:	2b878793          	addi	a5,a5,696 # 8000c248 <PROGRAM>
    80000f98:	00e7b023          	sd	a4,0(a5)
    80000f9c:	40000513          	li	a0,1024
    80000fa0:	e78ff0ef          	jal	ra,80000618 <bench_alloc>
    80000fa4:	00050713          	mv	a4,a0
    80000fa8:	0000b797          	auipc	a5,0xb
    80000fac:	2a878793          	addi	a5,a5,680 # 8000c250 <STACK>
    80000fb0:	00e7b023          	sd	a4,0(a5)
    80000fb4:	00002537          	lui	a0,0x2
    80000fb8:	e60ff0ef          	jal	ra,80000618 <bench_alloc>
    80000fbc:	00050713          	mv	a4,a0
    80000fc0:	0000b797          	auipc	a5,0xb
    80000fc4:	2b078793          	addi	a5,a5,688 # 8000c270 <data>
    80000fc8:	00e7b023          	sd	a4,0(a5)
    80000fcc:	0000b797          	auipc	a5,0xb
    80000fd0:	29478793          	addi	a5,a5,660 # 8000c260 <code>
    80000fd4:	0000a717          	auipc	a4,0xa
    80000fd8:	47c70713          	addi	a4,a4,1148 # 8000b450 <uptime+0x4c4>
    80000fdc:	00e7b023          	sd	a4,0(a5)
    80000fe0:	0000b797          	auipc	a5,0xb
    80000fe4:	26078793          	addi	a5,a5,608 # 8000c240 <ARR_SIZE>
    80000fe8:	0007a783          	lw	a5,0(a5)
    80000fec:	0017879b          	addiw	a5,a5,1
    80000ff0:	0007879b          	sext.w	a5,a5
    80000ff4:	00078513          	mv	a0,a5
    80000ff8:	e20ff0ef          	jal	ra,80000618 <bench_alloc>
    80000ffc:	00050713          	mv	a4,a0
    80001000:	0000b797          	auipc	a5,0xb
    80001004:	26878793          	addi	a5,a5,616 # 8000c268 <input>
    80001008:	00e7b023          	sd	a4,0(a5)
    8000100c:	00001537          	lui	a0,0x1
    80001010:	e08ff0ef          	jal	ra,80000618 <bench_alloc>
    80001014:	00050713          	mv	a4,a0
    80001018:	0000b797          	auipc	a5,0xb
    8000101c:	26078793          	addi	a5,a5,608 # 8000c278 <output>
    80001020:	00e7b023          	sd	a4,0(a5)
    80001024:	0000b797          	auipc	a5,0xb
    80001028:	25c78793          	addi	a5,a5,604 # 8000c280 <noutput>
    8000102c:	0007a023          	sw	zero,0(a5)
    80001030:	00100513          	li	a0,1
    80001034:	f58ff0ef          	jal	ra,8000078c <bench_srand>
    80001038:	fe042623          	sw	zero,-20(s0)
    8000103c:	05c0006f          	j	80001098 <bench_bf_prepare+0x14c>
    80001040:	f90ff0ef          	jal	ra,800007d0 <bench_rand>
    80001044:	00050793          	mv	a5,a0
    80001048:	0007879b          	sext.w	a5,a5
    8000104c:	00078713          	mv	a4,a5
    80001050:	03e00793          	li	a5,62
    80001054:	02f777bb          	remuw	a5,a4,a5
    80001058:	0007861b          	sext.w	a2,a5
    8000105c:	0000b797          	auipc	a5,0xb
    80001060:	20c78793          	addi	a5,a5,524 # 8000c268 <input>
    80001064:	0007b703          	ld	a4,0(a5)
    80001068:	fec42783          	lw	a5,-20(s0)
    8000106c:	00f707b3          	add	a5,a4,a5
    80001070:	0000a697          	auipc	a3,0xa
    80001074:	49868693          	addi	a3,a3,1176 # 8000b508 <uptime+0x57c>
    80001078:	02061713          	slli	a4,a2,0x20
    8000107c:	02075713          	srli	a4,a4,0x20
    80001080:	00e68733          	add	a4,a3,a4
    80001084:	00074703          	lbu	a4,0(a4)
    80001088:	00e78023          	sb	a4,0(a5)
    8000108c:	fec42783          	lw	a5,-20(s0)
    80001090:	0017879b          	addiw	a5,a5,1
    80001094:	fef42623          	sw	a5,-20(s0)
    80001098:	0000b797          	auipc	a5,0xb
    8000109c:	1a878793          	addi	a5,a5,424 # 8000c240 <ARR_SIZE>
    800010a0:	0007a703          	lw	a4,0(a5)
    800010a4:	fec42783          	lw	a5,-20(s0)
    800010a8:	0007879b          	sext.w	a5,a5
    800010ac:	f8e7cae3          	blt	a5,a4,80001040 <bench_bf_prepare+0xf4>
    800010b0:	00000013          	nop
    800010b4:	00000013          	nop
    800010b8:	01813083          	ld	ra,24(sp)
    800010bc:	01013403          	ld	s0,16(sp)
    800010c0:	02010113          	addi	sp,sp,32
    800010c4:	00008067          	ret

00000000800010c8 <bench_bf_run>:
    800010c8:	ff010113          	addi	sp,sp,-16
    800010cc:	00113423          	sd	ra,8(sp)
    800010d0:	00813023          	sd	s0,0(sp)
    800010d4:	01010413          	addi	s0,sp,16
    800010d8:	8adff0ef          	jal	ra,80000984 <compile_bf>
    800010dc:	c01ff0ef          	jal	ra,80000cdc <execute_bf>
    800010e0:	00000013          	nop
    800010e4:	00813083          	ld	ra,8(sp)
    800010e8:	00013403          	ld	s0,0(sp)
    800010ec:	01010113          	addi	sp,sp,16
    800010f0:	00008067          	ret

00000000800010f4 <bench_bf_validate>:
    800010f4:	fe010113          	addi	sp,sp,-32
    800010f8:	00113c23          	sd	ra,24(sp)
    800010fc:	00813823          	sd	s0,16(sp)
    80001100:	02010413          	addi	s0,sp,32
    80001104:	0000b797          	auipc	a5,0xb
    80001108:	17478793          	addi	a5,a5,372 # 8000c278 <output>
    8000110c:	0007b683          	ld	a3,0(a5)
    80001110:	0000b797          	auipc	a5,0xb
    80001114:	16878793          	addi	a5,a5,360 # 8000c278 <output>
    80001118:	0007b783          	ld	a5,0(a5)
    8000111c:	0000b717          	auipc	a4,0xb
    80001120:	16470713          	addi	a4,a4,356 # 8000c280 <noutput>
    80001124:	00072703          	lw	a4,0(a4)
    80001128:	00e787b3          	add	a5,a5,a4
    8000112c:	00078593          	mv	a1,a5
    80001130:	00068513          	mv	a0,a3
    80001134:	f18ff0ef          	jal	ra,8000084c <checksum>
    80001138:	00050793          	mv	a5,a0
    8000113c:	fef42623          	sw	a5,-20(s0)
    80001140:	0000b797          	auipc	a5,0xb
    80001144:	14078793          	addi	a5,a5,320 # 8000c280 <noutput>
    80001148:	0007a703          	lw	a4,0(a5)
    8000114c:	0000b797          	auipc	a5,0xb
    80001150:	0f478793          	addi	a5,a5,244 # 8000c240 <ARR_SIZE>
    80001154:	0007a783          	lw	a5,0(a5)
    80001158:	02f71463          	bne	a4,a5,80001180 <bench_bf_validate+0x8c>
    8000115c:	0000b797          	auipc	a5,0xb
    80001160:	1fc78793          	addi	a5,a5,508 # 8000c358 <setting>
    80001164:	0007b783          	ld	a5,0(a5)
    80001168:	0187a703          	lw	a4,24(a5)
    8000116c:	fec42783          	lw	a5,-20(s0)
    80001170:	0007879b          	sext.w	a5,a5
    80001174:	00e79663          	bne	a5,a4,80001180 <bench_bf_validate+0x8c>
    80001178:	00100793          	li	a5,1
    8000117c:	0080006f          	j	80001184 <bench_bf_validate+0x90>
    80001180:	00000793          	li	a5,0
    80001184:	00078513          	mv	a0,a5
    80001188:	01813083          	ld	ra,24(sp)
    8000118c:	01013403          	ld	s0,16(sp)
    80001190:	02010113          	addi	sp,sp,32
    80001194:	00008067          	ret

0000000080001198 <get>:
    80001198:	fe010113          	addi	sp,sp,-32
    8000119c:	00813c23          	sd	s0,24(sp)
    800011a0:	02010413          	addi	s0,sp,32
    800011a4:	00050793          	mv	a5,a0
    800011a8:	fef42623          	sw	a5,-20(s0)
    800011ac:	0000b797          	auipc	a5,0xb
    800011b0:	0e478793          	addi	a5,a5,228 # 8000c290 <primes>
    800011b4:	0007b703          	ld	a4,0(a5)
    800011b8:	fec42783          	lw	a5,-20(s0)
    800011bc:	4057d79b          	sraiw	a5,a5,0x5
    800011c0:	0007879b          	sext.w	a5,a5
    800011c4:	00279793          	slli	a5,a5,0x2
    800011c8:	00f707b3          	add	a5,a4,a5
    800011cc:	0007a783          	lw	a5,0(a5)
    800011d0:	fec42703          	lw	a4,-20(s0)
    800011d4:	01f77713          	andi	a4,a4,31
    800011d8:	0007071b          	sext.w	a4,a4
    800011dc:	00e7d7bb          	srlw	a5,a5,a4
    800011e0:	0007879b          	sext.w	a5,a5
    800011e4:	0007879b          	sext.w	a5,a5
    800011e8:	0017f793          	andi	a5,a5,1
    800011ec:	0007879b          	sext.w	a5,a5
    800011f0:	00078513          	mv	a0,a5
    800011f4:	01813403          	ld	s0,24(sp)
    800011f8:	02010113          	addi	sp,sp,32
    800011fc:	00008067          	ret

0000000080001200 <clear>:
    80001200:	fe010113          	addi	sp,sp,-32
    80001204:	00813c23          	sd	s0,24(sp)
    80001208:	02010413          	addi	s0,sp,32
    8000120c:	00050793          	mv	a5,a0
    80001210:	fef42623          	sw	a5,-20(s0)
    80001214:	0000b797          	auipc	a5,0xb
    80001218:	07c78793          	addi	a5,a5,124 # 8000c290 <primes>
    8000121c:	0007b703          	ld	a4,0(a5)
    80001220:	fec42783          	lw	a5,-20(s0)
    80001224:	4057d79b          	sraiw	a5,a5,0x5
    80001228:	0007879b          	sext.w	a5,a5
    8000122c:	00279793          	slli	a5,a5,0x2
    80001230:	00f707b3          	add	a5,a4,a5
    80001234:	0007a683          	lw	a3,0(a5)
    80001238:	fec42783          	lw	a5,-20(s0)
    8000123c:	01f7f793          	andi	a5,a5,31
    80001240:	0007879b          	sext.w	a5,a5
    80001244:	00078713          	mv	a4,a5
    80001248:	00100793          	li	a5,1
    8000124c:	00e797b3          	sll	a5,a5,a4
    80001250:	0007879b          	sext.w	a5,a5
    80001254:	fff7c793          	not	a5,a5
    80001258:	0007861b          	sext.w	a2,a5
    8000125c:	0000b797          	auipc	a5,0xb
    80001260:	03478793          	addi	a5,a5,52 # 8000c290 <primes>
    80001264:	0007b703          	ld	a4,0(a5)
    80001268:	fec42783          	lw	a5,-20(s0)
    8000126c:	4057d79b          	sraiw	a5,a5,0x5
    80001270:	0007879b          	sext.w	a5,a5
    80001274:	00279793          	slli	a5,a5,0x2
    80001278:	00f707b3          	add	a5,a4,a5
    8000127c:	00060713          	mv	a4,a2
    80001280:	00e6f733          	and	a4,a3,a4
    80001284:	0007071b          	sext.w	a4,a4
    80001288:	00e7a023          	sw	a4,0(a5)
    8000128c:	00000013          	nop
    80001290:	01813403          	ld	s0,24(sp)
    80001294:	02010113          	addi	sp,sp,32
    80001298:	00008067          	ret

000000008000129c <bench_sieve_prepare>:
    8000129c:	fe010113          	addi	sp,sp,-32
    800012a0:	00113c23          	sd	ra,24(sp)
    800012a4:	00813823          	sd	s0,16(sp)
    800012a8:	02010413          	addi	s0,sp,32
    800012ac:	0000b797          	auipc	a5,0xb
    800012b0:	0ac78793          	addi	a5,a5,172 # 8000c358 <setting>
    800012b4:	0007b783          	ld	a5,0(a5)
    800012b8:	0007a703          	lw	a4,0(a5)
    800012bc:	0000b797          	auipc	a5,0xb
    800012c0:	fcc78793          	addi	a5,a5,-52 # 8000c288 <N>
    800012c4:	00e7a023          	sw	a4,0(a5)
    800012c8:	0000b797          	auipc	a5,0xb
    800012cc:	fc078793          	addi	a5,a5,-64 # 8000c288 <N>
    800012d0:	0007a783          	lw	a5,0(a5)
    800012d4:	41f7d71b          	sraiw	a4,a5,0x1f
    800012d8:	01d7571b          	srliw	a4,a4,0x1d
    800012dc:	00f707bb          	addw	a5,a4,a5
    800012e0:	4037d79b          	sraiw	a5,a5,0x3
    800012e4:	0007879b          	sext.w	a5,a5
    800012e8:	0807879b          	addiw	a5,a5,128
    800012ec:	0007879b          	sext.w	a5,a5
    800012f0:	00078513          	mv	a0,a5
    800012f4:	b24ff0ef          	jal	ra,80000618 <bench_alloc>
    800012f8:	00050713          	mv	a4,a0
    800012fc:	0000b797          	auipc	a5,0xb
    80001300:	f9478793          	addi	a5,a5,-108 # 8000c290 <primes>
    80001304:	00e7b023          	sd	a4,0(a5)
    80001308:	fe042623          	sw	zero,-20(s0)
    8000130c:	0300006f          	j	8000133c <bench_sieve_prepare+0xa0>
    80001310:	0000b797          	auipc	a5,0xb
    80001314:	f8078793          	addi	a5,a5,-128 # 8000c290 <primes>
    80001318:	0007b703          	ld	a4,0(a5)
    8000131c:	fec42783          	lw	a5,-20(s0)
    80001320:	00279793          	slli	a5,a5,0x2
    80001324:	00f707b3          	add	a5,a4,a5
    80001328:	fff00713          	li	a4,-1
    8000132c:	00e7a023          	sw	a4,0(a5)
    80001330:	fec42783          	lw	a5,-20(s0)
    80001334:	0017879b          	addiw	a5,a5,1
    80001338:	fef42623          	sw	a5,-20(s0)
    8000133c:	0000b797          	auipc	a5,0xb
    80001340:	f4c78793          	addi	a5,a5,-180 # 8000c288 <N>
    80001344:	0007a783          	lw	a5,0(a5)
    80001348:	41f7d71b          	sraiw	a4,a5,0x1f
    8000134c:	01b7571b          	srliw	a4,a4,0x1b
    80001350:	00f707bb          	addw	a5,a4,a5
    80001354:	4057d79b          	sraiw	a5,a5,0x5
    80001358:	0007871b          	sext.w	a4,a5
    8000135c:	fec42783          	lw	a5,-20(s0)
    80001360:	0007879b          	sext.w	a5,a5
    80001364:	faf756e3          	bge	a4,a5,80001310 <bench_sieve_prepare+0x74>
    80001368:	00000013          	nop
    8000136c:	00000013          	nop
    80001370:	01813083          	ld	ra,24(sp)
    80001374:	01013403          	ld	s0,16(sp)
    80001378:	02010113          	addi	sp,sp,32
    8000137c:	00008067          	ret

0000000080001380 <bench_sieve_run>:
    80001380:	fe010113          	addi	sp,sp,-32
    80001384:	00113c23          	sd	ra,24(sp)
    80001388:	00813823          	sd	s0,16(sp)
    8000138c:	02010413          	addi	s0,sp,32
    80001390:	00100793          	li	a5,1
    80001394:	fef42623          	sw	a5,-20(s0)
    80001398:	0240006f          	j	800013bc <bench_sieve_run+0x3c>
    8000139c:	fec42783          	lw	a5,-20(s0)
    800013a0:	00078513          	mv	a0,a5
    800013a4:	df5ff0ef          	jal	ra,80001198 <get>
    800013a8:	00050793          	mv	a5,a0
    800013ac:	12078463          	beqz	a5,800014d4 <bench_sieve_run+0x154>
    800013b0:	fec42783          	lw	a5,-20(s0)
    800013b4:	0017879b          	addiw	a5,a5,1
    800013b8:	fef42623          	sw	a5,-20(s0)
    800013bc:	0000b797          	auipc	a5,0xb
    800013c0:	ecc78793          	addi	a5,a5,-308 # 8000c288 <N>
    800013c4:	0007a703          	lw	a4,0(a5)
    800013c8:	fec42783          	lw	a5,-20(s0)
    800013cc:	0007879b          	sext.w	a5,a5
    800013d0:	fcf756e3          	bge	a4,a5,8000139c <bench_sieve_run+0x1c>
    800013d4:	00200793          	li	a5,2
    800013d8:	fef42423          	sw	a5,-24(s0)
    800013dc:	0680006f          	j	80001444 <bench_sieve_run+0xc4>
    800013e0:	fe842783          	lw	a5,-24(s0)
    800013e4:	00078513          	mv	a0,a5
    800013e8:	db1ff0ef          	jal	ra,80001198 <get>
    800013ec:	00050793          	mv	a5,a0
    800013f0:	04078463          	beqz	a5,80001438 <bench_sieve_run+0xb8>
    800013f4:	fe842783          	lw	a5,-24(s0)
    800013f8:	0017979b          	slliw	a5,a5,0x1
    800013fc:	fef42223          	sw	a5,-28(s0)
    80001400:	0200006f          	j	80001420 <bench_sieve_run+0xa0>
    80001404:	fe442783          	lw	a5,-28(s0)
    80001408:	00078513          	mv	a0,a5
    8000140c:	df5ff0ef          	jal	ra,80001200 <clear>
    80001410:	fe442703          	lw	a4,-28(s0)
    80001414:	fe842783          	lw	a5,-24(s0)
    80001418:	00f707bb          	addw	a5,a4,a5
    8000141c:	fef42223          	sw	a5,-28(s0)
    80001420:	0000b797          	auipc	a5,0xb
    80001424:	e6878793          	addi	a5,a5,-408 # 8000c288 <N>
    80001428:	0007a703          	lw	a4,0(a5)
    8000142c:	fe442783          	lw	a5,-28(s0)
    80001430:	0007879b          	sext.w	a5,a5
    80001434:	fcf758e3          	bge	a4,a5,80001404 <bench_sieve_run+0x84>
    80001438:	fe842783          	lw	a5,-24(s0)
    8000143c:	0017879b          	addiw	a5,a5,1
    80001440:	fef42423          	sw	a5,-24(s0)
    80001444:	fe842783          	lw	a5,-24(s0)
    80001448:	02f787bb          	mulw	a5,a5,a5
    8000144c:	0007871b          	sext.w	a4,a5
    80001450:	0000b797          	auipc	a5,0xb
    80001454:	e3878793          	addi	a5,a5,-456 # 8000c288 <N>
    80001458:	0007a783          	lw	a5,0(a5)
    8000145c:	f8e7d2e3          	bge	a5,a4,800013e0 <bench_sieve_run+0x60>
    80001460:	0000b797          	auipc	a5,0xb
    80001464:	e2c78793          	addi	a5,a5,-468 # 8000c28c <ans>
    80001468:	0007a023          	sw	zero,0(a5)
    8000146c:	00200793          	li	a5,2
    80001470:	fef42023          	sw	a5,-32(s0)
    80001474:	0440006f          	j	800014b8 <bench_sieve_run+0x138>
    80001478:	fe042783          	lw	a5,-32(s0)
    8000147c:	00078513          	mv	a0,a5
    80001480:	d19ff0ef          	jal	ra,80001198 <get>
    80001484:	00050793          	mv	a5,a0
    80001488:	02078263          	beqz	a5,800014ac <bench_sieve_run+0x12c>
    8000148c:	0000b797          	auipc	a5,0xb
    80001490:	e0078793          	addi	a5,a5,-512 # 8000c28c <ans>
    80001494:	0007a783          	lw	a5,0(a5)
    80001498:	0017879b          	addiw	a5,a5,1
    8000149c:	0007871b          	sext.w	a4,a5
    800014a0:	0000b797          	auipc	a5,0xb
    800014a4:	dec78793          	addi	a5,a5,-532 # 8000c28c <ans>
    800014a8:	00e7a023          	sw	a4,0(a5)
    800014ac:	fe042783          	lw	a5,-32(s0)
    800014b0:	0017879b          	addiw	a5,a5,1
    800014b4:	fef42023          	sw	a5,-32(s0)
    800014b8:	0000b797          	auipc	a5,0xb
    800014bc:	dd078793          	addi	a5,a5,-560 # 8000c288 <N>
    800014c0:	0007a703          	lw	a4,0(a5)
    800014c4:	fe042783          	lw	a5,-32(s0)
    800014c8:	0007879b          	sext.w	a5,a5
    800014cc:	faf756e3          	bge	a4,a5,80001478 <bench_sieve_run+0xf8>
    800014d0:	0080006f          	j	800014d8 <bench_sieve_run+0x158>
    800014d4:	00000013          	nop
    800014d8:	01813083          	ld	ra,24(sp)
    800014dc:	01013403          	ld	s0,16(sp)
    800014e0:	02010113          	addi	sp,sp,32
    800014e4:	00008067          	ret

00000000800014e8 <bench_sieve_validate>:
    800014e8:	ff010113          	addi	sp,sp,-16
    800014ec:	00813423          	sd	s0,8(sp)
    800014f0:	01010413          	addi	s0,sp,16
    800014f4:	0000b797          	auipc	a5,0xb
    800014f8:	e6478793          	addi	a5,a5,-412 # 8000c358 <setting>
    800014fc:	0007b783          	ld	a5,0(a5)
    80001500:	0187a703          	lw	a4,24(a5)
    80001504:	0000b797          	auipc	a5,0xb
    80001508:	d8878793          	addi	a5,a5,-632 # 8000c28c <ans>
    8000150c:	0007a783          	lw	a5,0(a5)
    80001510:	0007879b          	sext.w	a5,a5
    80001514:	40f707b3          	sub	a5,a4,a5
    80001518:	0017b793          	seqz	a5,a5
    8000151c:	0ff7f793          	zext.b	a5,a5
    80001520:	0007879b          	sext.w	a5,a5
    80001524:	00078513          	mv	a0,a5
    80001528:	00813403          	ld	s0,8(sp)
    8000152c:	01010113          	addi	sp,sp,16
    80001530:	00008067          	ret

0000000080001534 <bench_15pz_prepare>:
    80001534:	ff010113          	addi	sp,sp,-16
    80001538:	00813423          	sd	s0,8(sp)
    8000153c:	01010413          	addi	s0,sp,16
    80001540:	00000013          	nop
    80001544:	00813403          	ld	s0,8(sp)
    80001548:	01010113          	addi	sp,sp,16
    8000154c:	00008067          	ret

0000000080001550 <bench_15pz_run>:
    80001550:	ef010113          	addi	sp,sp,-272
    80001554:	10113423          	sd	ra,264(sp)
    80001558:	10813023          	sd	s0,256(sp)
    8000155c:	11010413          	addi	s0,sp,272
    80001560:	f0840793          	addi	a5,s0,-248
    80001564:	00078513          	mv	a0,a5
    80001568:	71d030ef          	jal	ra,80005484 <_etext>
    8000156c:	0000b797          	auipc	a5,0xb
    80001570:	dec78793          	addi	a5,a5,-532 # 8000c358 <setting>
    80001574:	0007b783          	ld	a5,0(a5)
    80001578:	0007a783          	lw	a5,0(a5)
    8000157c:	00078693          	mv	a3,a5
    80001580:	00200713          	li	a4,2
    80001584:	08e68863          	beq	a3,a4,80001614 <bench_15pz_run+0xc4>
    80001588:	00078693          	mv	a3,a5
    8000158c:	00200713          	li	a4,2
    80001590:	0ad74c63          	blt	a4,a3,80001648 <bench_15pz_run+0xf8>
    80001594:	00078a63          	beqz	a5,800015a8 <bench_15pz_run+0x58>
    80001598:	00078713          	mv	a4,a5
    8000159c:	00100793          	li	a5,1
    800015a0:	02f70e63          	beq	a4,a5,800015dc <bench_15pz_run+0x8c>
    800015a4:	0a40006f          	j	80001648 <bench_15pz_run+0xf8>
    800015a8:	f2040793          	addi	a5,s0,-224
    800015ac:	0000b597          	auipc	a1,0xb
    800015b0:	bb458593          	addi	a1,a1,-1100 # 8000c160 <_ZL8PUZZLE_S>
    800015b4:	00078513          	mv	a0,a5
    800015b8:	16c040ef          	jal	ra,80005724 <_ZN8N_puzzleILi4EEC1EPi>
    800015bc:	f2040713          	addi	a4,s0,-224
    800015c0:	f0840793          	addi	a5,s0,-248
    800015c4:	00070593          	mv	a1,a4
    800015c8:	00078513          	mv	a0,a5
    800015cc:	3fc040ef          	jal	ra,800059c8 <_ZN8N_puzzleILi4EEaSERKS0_>
    800015d0:	00a00793          	li	a5,10
    800015d4:	fef42623          	sw	a5,-20(s0)
    800015d8:	0900006f          	j	80001668 <bench_15pz_run+0x118>
    800015dc:	f3840793          	addi	a5,s0,-200
    800015e0:	0000b597          	auipc	a1,0xb
    800015e4:	bc058593          	addi	a1,a1,-1088 # 8000c1a0 <_ZL8PUZZLE_M>
    800015e8:	00078513          	mv	a0,a5
    800015ec:	138040ef          	jal	ra,80005724 <_ZN8N_puzzleILi4EEC1EPi>
    800015f0:	f3840713          	addi	a4,s0,-200
    800015f4:	f0840793          	addi	a5,s0,-248
    800015f8:	00070593          	mv	a1,a4
    800015fc:	00078513          	mv	a0,a5
    80001600:	3c8040ef          	jal	ra,800059c8 <_ZN8N_puzzleILi4EEaSERKS0_>
    80001604:	000017b7          	lui	a5,0x1
    80001608:	80078793          	addi	a5,a5,-2048 # 800 <_start-0x7ffff800>
    8000160c:	fef42623          	sw	a5,-20(s0)
    80001610:	0580006f          	j	80001668 <bench_15pz_run+0x118>
    80001614:	f5040793          	addi	a5,s0,-176
    80001618:	0000b597          	auipc	a1,0xb
    8000161c:	bc858593          	addi	a1,a1,-1080 # 8000c1e0 <_ZL8PUZZLE_L>
    80001620:	00078513          	mv	a0,a5
    80001624:	100040ef          	jal	ra,80005724 <_ZN8N_puzzleILi4EEC1EPi>
    80001628:	f5040713          	addi	a4,s0,-176
    8000162c:	f0840793          	addi	a5,s0,-248
    80001630:	00070593          	mv	a1,a4
    80001634:	00078513          	mv	a0,a5
    80001638:	390040ef          	jal	ra,800059c8 <_ZN8N_puzzleILi4EEaSERKS0_>
    8000163c:	000047b7          	lui	a5,0x4
    80001640:	fef42623          	sw	a5,-20(s0)
    80001644:	0240006f          	j	80001668 <bench_15pz_run+0x118>
    80001648:	02b00613          	li	a2,43
    8000164c:	0000a597          	auipc	a1,0xa
    80001650:	efc58593          	addi	a1,a1,-260 # 8000b548 <uptime+0x5bc>
    80001654:	0000a517          	auipc	a0,0xa
    80001658:	f3c50513          	addi	a0,a0,-196 # 8000b590 <uptime+0x604>
    8000165c:	02d090ef          	jal	ra,8000ae88 <printf_>
    80001660:	00100513          	li	a0,1
    80001664:	481060ef          	jal	ra,800082e4 <_halt>
    80001668:	f0840793          	addi	a5,s0,-248
    8000166c:	00078513          	mv	a0,a5
    80001670:	450040ef          	jal	ra,80005ac0 <_ZNK8N_puzzleILi4EE8solvableEv>
    80001674:	00050793          	mv	a5,a0
    80001678:	0017c793          	xori	a5,a5,1
    8000167c:	0ff7f793          	zext.b	a5,a5
    80001680:	02078263          	beqz	a5,800016a4 <bench_15pz_run+0x154>
    80001684:	02d00613          	li	a2,45
    80001688:	0000a597          	auipc	a1,0xa
    8000168c:	ec058593          	addi	a1,a1,-320 # 8000b548 <uptime+0x5bc>
    80001690:	0000a517          	auipc	a0,0xa
    80001694:	f0050513          	addi	a0,a0,-256 # 8000b590 <uptime+0x604>
    80001698:	7f0090ef          	jal	ra,8000ae88 <printf_>
    8000169c:	00100513          	li	a0,1
    800016a0:	445060ef          	jal	ra,800082e4 <_halt>
    800016a4:	02000513          	li	a0,32
    800016a8:	f71fe0ef          	jal	ra,80000618 <bench_alloc>
    800016ac:	fea43023          	sd	a0,-32(s0)
    800016b0:	fec42783          	lw	a5,-20(s0)
    800016b4:	00078593          	mv	a1,a5
    800016b8:	fe043503          	ld	a0,-32(s0)
    800016bc:	604040ef          	jal	ra,80005cc0 <_ZN14Updatable_heapI8N_puzzleILi4EEE4initEi>
    800016c0:	f0840793          	addi	a5,s0,-248
    800016c4:	00000613          	li	a2,0
    800016c8:	00078593          	mv	a1,a5
    800016cc:	fe043503          	ld	a0,-32(s0)
    800016d0:	6c4040ef          	jal	ra,80005d94 <_ZN14Updatable_heapI8N_puzzleILi4EEE4pushERKS1_i>
    800016d4:	fe042423          	sw	zero,-24(s0)
    800016d8:	0000b797          	auipc	a5,0xb
    800016dc:	bc078793          	addi	a5,a5,-1088 # 8000c298 <_ZL3ans>
    800016e0:	fff00713          	li	a4,-1
    800016e4:	00e7a023          	sw	a4,0(a5)
    800016e8:	fe043503          	ld	a0,-32(s0)
    800016ec:	10d040ef          	jal	ra,80005ff8 <_ZNK14Updatable_heapI8N_puzzleILi4EEE4sizeEv>
    800016f0:	00050793          	mv	a5,a0
    800016f4:	02078063          	beqz	a5,80001714 <bench_15pz_run+0x1c4>
    800016f8:	fe842703          	lw	a4,-24(s0)
    800016fc:	fec42783          	lw	a5,-20(s0)
    80001700:	0007071b          	sext.w	a4,a4
    80001704:	0007879b          	sext.w	a5,a5
    80001708:	00f70663          	beq	a4,a5,80001714 <bench_15pz_run+0x1c4>
    8000170c:	00100793          	li	a5,1
    80001710:	0080006f          	j	80001718 <bench_15pz_run+0x1c8>
    80001714:	00000793          	li	a5,0
    80001718:	1e078063          	beqz	a5,800018f8 <bench_15pz_run+0x3a8>
    8000171c:	ef040793          	addi	a5,s0,-272
    80001720:	fe043583          	ld	a1,-32(s0)
    80001724:	00078513          	mv	a0,a5
    80001728:	0f9040ef          	jal	ra,80006020 <_ZN14Updatable_heapI8N_puzzleILi4EEE3popEv>
    8000172c:	fe842783          	lw	a5,-24(s0)
    80001730:	0017879b          	addiw	a5,a5,1
    80001734:	fef42423          	sw	a5,-24(s0)
    80001738:	f6840793          	addi	a5,s0,-152
    8000173c:	00078513          	mv	a0,a5
    80001740:	33d040ef          	jal	ra,8000627c <_ZN8N_puzzleILi4EE8solutionEv>
    80001744:	f6840713          	addi	a4,s0,-152
    80001748:	ef040793          	addi	a5,s0,-272
    8000174c:	00070593          	mv	a1,a4
    80001750:	00078513          	mv	a0,a5
    80001754:	3a9040ef          	jal	ra,800062fc <_ZNK8N_puzzleILi4EEeqERKS0_>
    80001758:	00050793          	mv	a5,a0
    8000175c:	02078c63          	beqz	a5,80001794 <bench_15pz_run+0x244>
    80001760:	ef040793          	addi	a5,s0,-272
    80001764:	00078593          	mv	a1,a5
    80001768:	fe043503          	ld	a0,-32(s0)
    8000176c:	4c9040ef          	jal	ra,80006434 <_ZNK14Updatable_heapI8N_puzzleILi4EEE6lengthERKS1_>
    80001770:	00050793          	mv	a5,a0
    80001774:	00078713          	mv	a4,a5
    80001778:	fe842783          	lw	a5,-24(s0)
    8000177c:	02e787bb          	mulw	a5,a5,a4
    80001780:	0007871b          	sext.w	a4,a5
    80001784:	0000b797          	auipc	a5,0xb
    80001788:	b1478793          	addi	a5,a5,-1260 # 8000c298 <_ZL3ans>
    8000178c:	00e7a023          	sw	a4,0(a5)
    80001790:	1680006f          	j	800018f8 <bench_15pz_run+0x3a8>
    80001794:	ef040793          	addi	a5,s0,-272
    80001798:	00078513          	mv	a0,a5
    8000179c:	4f5040ef          	jal	ra,80006490 <_ZNK8N_puzzleILi4EE18tile_left_possibleEv>
    800017a0:	00050793          	mv	a5,a0
    800017a4:	04078463          	beqz	a5,800017ec <bench_15pz_run+0x29c>
    800017a8:	f8040793          	addi	a5,s0,-128
    800017ac:	ef040713          	addi	a4,s0,-272
    800017b0:	00070593          	mv	a1,a4
    800017b4:	00078513          	mv	a0,a5
    800017b8:	525040ef          	jal	ra,800064dc <_ZNK8N_puzzleILi4EE9tile_leftEv>
    800017bc:	ef040793          	addi	a5,s0,-272
    800017c0:	00078593          	mv	a1,a5
    800017c4:	fe043503          	ld	a0,-32(s0)
    800017c8:	46d040ef          	jal	ra,80006434 <_ZNK14Updatable_heapI8N_puzzleILi4EEE6lengthERKS1_>
    800017cc:	00050793          	mv	a5,a0
    800017d0:	0017879b          	addiw	a5,a5,1
    800017d4:	0007871b          	sext.w	a4,a5
    800017d8:	f8040793          	addi	a5,s0,-128
    800017dc:	00070613          	mv	a2,a4
    800017e0:	00078593          	mv	a1,a5
    800017e4:	fe043503          	ld	a0,-32(s0)
    800017e8:	5ac040ef          	jal	ra,80005d94 <_ZN14Updatable_heapI8N_puzzleILi4EEE4pushERKS1_i>
    800017ec:	ef040793          	addi	a5,s0,-272
    800017f0:	00078513          	mv	a0,a5
    800017f4:	75d040ef          	jal	ra,80006750 <_ZNK8N_puzzleILi4EE19tile_right_possibleEv>
    800017f8:	00050793          	mv	a5,a0
    800017fc:	04078463          	beqz	a5,80001844 <bench_15pz_run+0x2f4>
    80001800:	f9840793          	addi	a5,s0,-104
    80001804:	ef040713          	addi	a4,s0,-272
    80001808:	00070593          	mv	a1,a4
    8000180c:	00078513          	mv	a0,a5
    80001810:	785040ef          	jal	ra,80006794 <_ZNK8N_puzzleILi4EE10tile_rightEv>
    80001814:	ef040793          	addi	a5,s0,-272
    80001818:	00078593          	mv	a1,a5
    8000181c:	fe043503          	ld	a0,-32(s0)
    80001820:	415040ef          	jal	ra,80006434 <_ZNK14Updatable_heapI8N_puzzleILi4EEE6lengthERKS1_>
    80001824:	00050793          	mv	a5,a0
    80001828:	0017879b          	addiw	a5,a5,1
    8000182c:	0007871b          	sext.w	a4,a5
    80001830:	f9840793          	addi	a5,s0,-104
    80001834:	00070613          	mv	a2,a4
    80001838:	00078593          	mv	a1,a5
    8000183c:	fe043503          	ld	a0,-32(s0)
    80001840:	554040ef          	jal	ra,80005d94 <_ZN14Updatable_heapI8N_puzzleILi4EEE4pushERKS1_i>
    80001844:	ef040793          	addi	a5,s0,-272
    80001848:	00078513          	mv	a0,a5
    8000184c:	1b4050ef          	jal	ra,80006a00 <_ZNK8N_puzzleILi4EE16tile_up_possibleEv>
    80001850:	00050793          	mv	a5,a0
    80001854:	04078463          	beqz	a5,8000189c <bench_15pz_run+0x34c>
    80001858:	fb040793          	addi	a5,s0,-80
    8000185c:	ef040713          	addi	a4,s0,-272
    80001860:	00070593          	mv	a1,a4
    80001864:	00078513          	mv	a0,a5
    80001868:	1e4050ef          	jal	ra,80006a4c <_ZNK8N_puzzleILi4EE7tile_upEv>
    8000186c:	ef040793          	addi	a5,s0,-272
    80001870:	00078593          	mv	a1,a5
    80001874:	fe043503          	ld	a0,-32(s0)
    80001878:	3bd040ef          	jal	ra,80006434 <_ZNK14Updatable_heapI8N_puzzleILi4EEE6lengthERKS1_>
    8000187c:	00050793          	mv	a5,a0
    80001880:	0017879b          	addiw	a5,a5,1
    80001884:	0007871b          	sext.w	a4,a5
    80001888:	fb040793          	addi	a5,s0,-80
    8000188c:	00070613          	mv	a2,a4
    80001890:	00078593          	mv	a1,a5
    80001894:	fe043503          	ld	a0,-32(s0)
    80001898:	4fc040ef          	jal	ra,80005d94 <_ZN14Updatable_heapI8N_puzzleILi4EEE4pushERKS1_i>
    8000189c:	ef040793          	addi	a5,s0,-272
    800018a0:	00078513          	mv	a0,a5
    800018a4:	40c050ef          	jal	ra,80006cb0 <_ZNK8N_puzzleILi4EE18tile_down_possibleEv>
    800018a8:	00050793          	mv	a5,a0
    800018ac:	e2078ee3          	beqz	a5,800016e8 <bench_15pz_run+0x198>
    800018b0:	fc840793          	addi	a5,s0,-56
    800018b4:	ef040713          	addi	a4,s0,-272
    800018b8:	00070593          	mv	a1,a4
    800018bc:	00078513          	mv	a0,a5
    800018c0:	434050ef          	jal	ra,80006cf4 <_ZNK8N_puzzleILi4EE9tile_downEv>
    800018c4:	ef040793          	addi	a5,s0,-272
    800018c8:	00078593          	mv	a1,a5
    800018cc:	fe043503          	ld	a0,-32(s0)
    800018d0:	365040ef          	jal	ra,80006434 <_ZNK14Updatable_heapI8N_puzzleILi4EEE6lengthERKS1_>
    800018d4:	00050793          	mv	a5,a0
    800018d8:	0017879b          	addiw	a5,a5,1
    800018dc:	0007871b          	sext.w	a4,a5
    800018e0:	fc840793          	addi	a5,s0,-56
    800018e4:	00070613          	mv	a2,a4
    800018e8:	00078593          	mv	a1,a5
    800018ec:	fe043503          	ld	a0,-32(s0)
    800018f0:	4a4040ef          	jal	ra,80005d94 <_ZN14Updatable_heapI8N_puzzleILi4EEE4pushERKS1_i>
    800018f4:	df5ff06f          	j	800016e8 <bench_15pz_run+0x198>
    800018f8:	10813083          	ld	ra,264(sp)
    800018fc:	10013403          	ld	s0,256(sp)
    80001900:	11010113          	addi	sp,sp,272
    80001904:	00008067          	ret

0000000080001908 <bench_15pz_validate>:
    80001908:	ff010113          	addi	sp,sp,-16
    8000190c:	00813423          	sd	s0,8(sp)
    80001910:	01010413          	addi	s0,sp,16
    80001914:	0000b797          	auipc	a5,0xb
    80001918:	a4478793          	addi	a5,a5,-1468 # 8000c358 <setting>
    8000191c:	0007b783          	ld	a5,0(a5)
    80001920:	0187a703          	lw	a4,24(a5)
    80001924:	0000b797          	auipc	a5,0xb
    80001928:	97478793          	addi	a5,a5,-1676 # 8000c298 <_ZL3ans>
    8000192c:	0007a783          	lw	a5,0(a5)
    80001930:	0007879b          	sext.w	a5,a5
    80001934:	40f707b3          	sub	a5,a4,a5
    80001938:	0017b793          	seqz	a5,a5
    8000193c:	0ff7f793          	zext.b	a5,a5
    80001940:	0007879b          	sext.w	a5,a5
    80001944:	00078513          	mv	a0,a5
    80001948:	00813403          	ld	s0,8(sp)
    8000194c:	01010113          	addi	sp,sp,16
    80001950:	00008067          	ret

0000000080001954 <bench_memcpy>:
    80001954:	fc010113          	addi	sp,sp,-64
    80001958:	02113c23          	sd	ra,56(sp)
    8000195c:	02813823          	sd	s0,48(sp)
    80001960:	04010413          	addi	s0,sp,64
    80001964:	fca43c23          	sd	a0,-40(s0)
    80001968:	fcb43823          	sd	a1,-48(s0)
    8000196c:	fcc43423          	sd	a2,-56(s0)
    80001970:	fd843783          	ld	a5,-40(s0)
    80001974:	00078663          	beqz	a5,80001980 <bench_memcpy+0x2c>
    80001978:	fd043783          	ld	a5,-48(s0)
    8000197c:	02079263          	bnez	a5,800019a0 <bench_memcpy+0x4c>
    80001980:	00800613          	li	a2,8
    80001984:	0000a597          	auipc	a1,0xa
    80001988:	c7458593          	addi	a1,a1,-908 # 8000b5f8 <uptime+0x66c>
    8000198c:	0000a517          	auipc	a0,0xa
    80001990:	cb450513          	addi	a0,a0,-844 # 8000b640 <uptime+0x6b4>
    80001994:	4f4090ef          	jal	ra,8000ae88 <printf_>
    80001998:	00100513          	li	a0,1
    8000199c:	149060ef          	jal	ra,800082e4 <_halt>
    800019a0:	fd043703          	ld	a4,-48(s0)
    800019a4:	fc843783          	ld	a5,-56(s0)
    800019a8:	00f707b3          	add	a5,a4,a5
    800019ac:	fd843703          	ld	a4,-40(s0)
    800019b0:	06f77863          	bgeu	a4,a5,80001a20 <bench_memcpy+0xcc>
    800019b4:	fd043703          	ld	a4,-48(s0)
    800019b8:	fd843783          	ld	a5,-40(s0)
    800019bc:	06f77263          	bgeu	a4,a5,80001a20 <bench_memcpy+0xcc>
    800019c0:	fd043703          	ld	a4,-48(s0)
    800019c4:	fc843783          	ld	a5,-56(s0)
    800019c8:	00f707b3          	add	a5,a4,a5
    800019cc:	fef43423          	sd	a5,-24(s0)
    800019d0:	fd843703          	ld	a4,-40(s0)
    800019d4:	fc843783          	ld	a5,-56(s0)
    800019d8:	00f707b3          	add	a5,a4,a5
    800019dc:	fef43023          	sd	a5,-32(s0)
    800019e0:	02c0006f          	j	80001a0c <bench_memcpy+0xb8>
    800019e4:	fe843783          	ld	a5,-24(s0)
    800019e8:	fff78793          	addi	a5,a5,-1
    800019ec:	fef43423          	sd	a5,-24(s0)
    800019f0:	fe043783          	ld	a5,-32(s0)
    800019f4:	fff78793          	addi	a5,a5,-1
    800019f8:	fef43023          	sd	a5,-32(s0)
    800019fc:	fe843783          	ld	a5,-24(s0)
    80001a00:	0007c703          	lbu	a4,0(a5)
    80001a04:	fe043783          	ld	a5,-32(s0)
    80001a08:	00e78023          	sb	a4,0(a5)
    80001a0c:	fc843783          	ld	a5,-56(s0)
    80001a10:	fff78713          	addi	a4,a5,-1
    80001a14:	fce43423          	sd	a4,-56(s0)
    80001a18:	fc0796e3          	bnez	a5,800019e4 <bench_memcpy+0x90>
    80001a1c:	0480006f          	j	80001a64 <bench_memcpy+0x110>
    80001a20:	fd043783          	ld	a5,-48(s0)
    80001a24:	fef43423          	sd	a5,-24(s0)
    80001a28:	fd843783          	ld	a5,-40(s0)
    80001a2c:	fef43023          	sd	a5,-32(s0)
    80001a30:	0240006f          	j	80001a54 <bench_memcpy+0x100>
    80001a34:	fe843703          	ld	a4,-24(s0)
    80001a38:	00170793          	addi	a5,a4,1
    80001a3c:	fef43423          	sd	a5,-24(s0)
    80001a40:	fe043783          	ld	a5,-32(s0)
    80001a44:	00178693          	addi	a3,a5,1
    80001a48:	fed43023          	sd	a3,-32(s0)
    80001a4c:	00074703          	lbu	a4,0(a4)
    80001a50:	00e78023          	sb	a4,0(a5)
    80001a54:	fc843783          	ld	a5,-56(s0)
    80001a58:	fff78713          	addi	a4,a5,-1
    80001a5c:	fce43423          	sd	a4,-56(s0)
    80001a60:	fc079ae3          	bnez	a5,80001a34 <bench_memcpy+0xe0>
    80001a64:	fd843783          	ld	a5,-40(s0)
    80001a68:	00078513          	mv	a0,a5
    80001a6c:	03813083          	ld	ra,56(sp)
    80001a70:	03013403          	ld	s0,48(sp)
    80001a74:	04010113          	addi	sp,sp,64
    80001a78:	00008067          	ret

0000000080001a7c <qlz_get_setting>:
    80001a7c:	fe010113          	addi	sp,sp,-32
    80001a80:	00813c23          	sd	s0,24(sp)
    80001a84:	02010413          	addi	s0,sp,32
    80001a88:	00050793          	mv	a5,a0
    80001a8c:	fef42623          	sw	a5,-20(s0)
    80001a90:	fec42783          	lw	a5,-20(s0)
    80001a94:	0007871b          	sext.w	a4,a5
    80001a98:	00900793          	li	a5,9
    80001a9c:	06e7ec63          	bltu	a5,a4,80001b14 <qlz_get_setting+0x98>
    80001aa0:	fec46783          	lwu	a5,-20(s0)
    80001aa4:	00279713          	slli	a4,a5,0x2
    80001aa8:	0000a797          	auipc	a5,0xa
    80001aac:	bb478793          	addi	a5,a5,-1100 # 8000b65c <uptime+0x6d0>
    80001ab0:	00f707b3          	add	a5,a4,a5
    80001ab4:	0007a783          	lw	a5,0(a5)
    80001ab8:	0007871b          	sext.w	a4,a5
    80001abc:	0000a797          	auipc	a5,0xa
    80001ac0:	ba078793          	addi	a5,a5,-1120 # 8000b65c <uptime+0x6d0>
    80001ac4:	00f707b3          	add	a5,a4,a5
    80001ac8:	00078067          	jr	a5
    80001acc:	00200793          	li	a5,2
    80001ad0:	0480006f          	j	80001b18 <qlz_get_setting+0x9c>
    80001ad4:	000117b7          	lui	a5,0x11
    80001ad8:	80878793          	addi	a5,a5,-2040 # 10808 <_start-0x7ffef7f8>
    80001adc:	03c0006f          	j	80001b18 <qlz_get_setting+0x9c>
    80001ae0:	000117b7          	lui	a5,0x11
    80001ae4:	80878793          	addi	a5,a5,-2040 # 10808 <_start-0x7ffef7f8>
    80001ae8:	0300006f          	j	80001b18 <qlz_get_setting+0x9c>
    80001aec:	00000793          	li	a5,0
    80001af0:	0280006f          	j	80001b18 <qlz_get_setting+0x9c>
    80001af4:	00000793          	li	a5,0
    80001af8:	0200006f          	j	80001b18 <qlz_get_setting+0x9c>
    80001afc:	00100793          	li	a5,1
    80001b00:	0180006f          	j	80001b18 <qlz_get_setting+0x9c>
    80001b04:	00500793          	li	a5,5
    80001b08:	0100006f          	j	80001b18 <qlz_get_setting+0x9c>
    80001b0c:	00000793          	li	a5,0
    80001b10:	0080006f          	j	80001b18 <qlz_get_setting+0x9c>
    80001b14:	fff00793          	li	a5,-1
    80001b18:	00078513          	mv	a0,a5
    80001b1c:	01813403          	ld	s0,24(sp)
    80001b20:	02010113          	addi	sp,sp,32
    80001b24:	00008067          	ret

0000000080001b28 <reset_table_compress>:
    80001b28:	fd010113          	addi	sp,sp,-48
    80001b2c:	02813423          	sd	s0,40(sp)
    80001b30:	03010413          	addi	s0,sp,48
    80001b34:	fca43c23          	sd	a0,-40(s0)
    80001b38:	fe042623          	sw	zero,-20(s0)
    80001b3c:	0280006f          	j	80001b64 <reset_table_compress+0x3c>
    80001b40:	fd843703          	ld	a4,-40(s0)
    80001b44:	fec42783          	lw	a5,-20(s0)
    80001b48:	00f707b3          	add	a5,a4,a5
    80001b4c:	00010737          	lui	a4,0x10
    80001b50:	00f707b3          	add	a5,a4,a5
    80001b54:	00078423          	sb	zero,8(a5)
    80001b58:	fec42783          	lw	a5,-20(s0)
    80001b5c:	0017879b          	addiw	a5,a5,1
    80001b60:	fef42623          	sw	a5,-20(s0)
    80001b64:	fec42783          	lw	a5,-20(s0)
    80001b68:	0007871b          	sext.w	a4,a5
    80001b6c:	7ff00793          	li	a5,2047
    80001b70:	fce7d8e3          	bge	a5,a4,80001b40 <reset_table_compress+0x18>
    80001b74:	00000013          	nop
    80001b78:	00000013          	nop
    80001b7c:	02813403          	ld	s0,40(sp)
    80001b80:	03010113          	addi	sp,sp,48
    80001b84:	00008067          	ret

0000000080001b88 <reset_table_decompress>:
    80001b88:	fd010113          	addi	sp,sp,-48
    80001b8c:	02813423          	sd	s0,40(sp)
    80001b90:	03010413          	addi	s0,sp,48
    80001b94:	fca43c23          	sd	a0,-40(s0)
    80001b98:	fe042623          	sw	zero,-20(s0)
    80001b9c:	0280006f          	j	80001bc4 <reset_table_decompress+0x3c>
    80001ba0:	fd843703          	ld	a4,-40(s0)
    80001ba4:	fec42783          	lw	a5,-20(s0)
    80001ba8:	00f707b3          	add	a5,a4,a5
    80001bac:	00010737          	lui	a4,0x10
    80001bb0:	00f707b3          	add	a5,a4,a5
    80001bb4:	00078023          	sb	zero,0(a5)
    80001bb8:	fec42783          	lw	a5,-20(s0)
    80001bbc:	0017879b          	addiw	a5,a5,1
    80001bc0:	fef42623          	sw	a5,-20(s0)
    80001bc4:	fec42783          	lw	a5,-20(s0)
    80001bc8:	0007871b          	sext.w	a4,a5
    80001bcc:	7ff00793          	li	a5,2047
    80001bd0:	fce7d8e3          	bge	a5,a4,80001ba0 <reset_table_decompress+0x18>
    80001bd4:	00000013          	nop
    80001bd8:	00000013          	nop
    80001bdc:	02813403          	ld	s0,40(sp)
    80001be0:	03010113          	addi	sp,sp,48
    80001be4:	00008067          	ret

0000000080001be8 <hash_func>:
    80001be8:	fe010113          	addi	sp,sp,-32
    80001bec:	00813c23          	sd	s0,24(sp)
    80001bf0:	02010413          	addi	s0,sp,32
    80001bf4:	00050793          	mv	a5,a0
    80001bf8:	fef42623          	sw	a5,-20(s0)
    80001bfc:	fec42783          	lw	a5,-20(s0)
    80001c00:	0097d79b          	srliw	a5,a5,0x9
    80001c04:	0007871b          	sext.w	a4,a5
    80001c08:	fec42783          	lw	a5,-20(s0)
    80001c0c:	00d7d79b          	srliw	a5,a5,0xd
    80001c10:	0007879b          	sext.w	a5,a5
    80001c14:	00f747b3          	xor	a5,a4,a5
    80001c18:	0007871b          	sext.w	a4,a5
    80001c1c:	fec42783          	lw	a5,-20(s0)
    80001c20:	00e7c7b3          	xor	a5,a5,a4
    80001c24:	0007879b          	sext.w	a5,a5
    80001c28:	7ff7f793          	andi	a5,a5,2047
    80001c2c:	0007879b          	sext.w	a5,a5
    80001c30:	00078513          	mv	a0,a5
    80001c34:	01813403          	ld	s0,24(sp)
    80001c38:	02010113          	addi	sp,sp,32
    80001c3c:	00008067          	ret

0000000080001c40 <fast_read>:
    80001c40:	fd010113          	addi	sp,sp,-48
    80001c44:	02813423          	sd	s0,40(sp)
    80001c48:	03010413          	addi	s0,sp,48
    80001c4c:	fca43c23          	sd	a0,-40(s0)
    80001c50:	00058793          	mv	a5,a1
    80001c54:	fcf42a23          	sw	a5,-44(s0)
    80001c58:	fe042623          	sw	zero,-20(s0)
    80001c5c:	fd442783          	lw	a5,-44(s0)
    80001c60:	0007879b          	sext.w	a5,a5
    80001c64:	06078a63          	beqz	a5,80001cd8 <fast_read+0x98>
    80001c68:	fd442783          	lw	a5,-44(s0)
    80001c6c:	0007871b          	sext.w	a4,a5
    80001c70:	00400793          	li	a5,4
    80001c74:	06e7e263          	bltu	a5,a4,80001cd8 <fast_read+0x98>
    80001c78:	fe042423          	sw	zero,-24(s0)
    80001c7c:	0480006f          	j	80001cc4 <fast_read+0x84>
    80001c80:	fe846783          	lwu	a5,-24(s0)
    80001c84:	fd843703          	ld	a4,-40(s0)
    80001c88:	00f707b3          	add	a5,a4,a5
    80001c8c:	0007c783          	lbu	a5,0(a5)
    80001c90:	0007871b          	sext.w	a4,a5
    80001c94:	fe842783          	lw	a5,-24(s0)
    80001c98:	0037979b          	slliw	a5,a5,0x3
    80001c9c:	0007879b          	sext.w	a5,a5
    80001ca0:	00f717bb          	sllw	a5,a4,a5
    80001ca4:	0007879b          	sext.w	a5,a5
    80001ca8:	0007871b          	sext.w	a4,a5
    80001cac:	fec42783          	lw	a5,-20(s0)
    80001cb0:	00e7e7b3          	or	a5,a5,a4
    80001cb4:	fef42623          	sw	a5,-20(s0)
    80001cb8:	fe842783          	lw	a5,-24(s0)
    80001cbc:	0017879b          	addiw	a5,a5,1
    80001cc0:	fef42423          	sw	a5,-24(s0)
    80001cc4:	fe842703          	lw	a4,-24(s0)
    80001cc8:	fd442783          	lw	a5,-44(s0)
    80001ccc:	0007071b          	sext.w	a4,a4
    80001cd0:	0007879b          	sext.w	a5,a5
    80001cd4:	faf766e3          	bltu	a4,a5,80001c80 <fast_read+0x40>
    80001cd8:	fec42783          	lw	a5,-20(s0)
    80001cdc:	00078513          	mv	a0,a5
    80001ce0:	02813403          	ld	s0,40(sp)
    80001ce4:	03010113          	addi	sp,sp,48
    80001ce8:	00008067          	ret

0000000080001cec <hashat>:
    80001cec:	fd010113          	addi	sp,sp,-48
    80001cf0:	02113423          	sd	ra,40(sp)
    80001cf4:	02813023          	sd	s0,32(sp)
    80001cf8:	03010413          	addi	s0,sp,48
    80001cfc:	fca43c23          	sd	a0,-40(s0)
    80001d00:	00300593          	li	a1,3
    80001d04:	fd843503          	ld	a0,-40(s0)
    80001d08:	f39ff0ef          	jal	ra,80001c40 <fast_read>
    80001d0c:	00050793          	mv	a5,a0
    80001d10:	fef42623          	sw	a5,-20(s0)
    80001d14:	fec42783          	lw	a5,-20(s0)
    80001d18:	00078513          	mv	a0,a5
    80001d1c:	ecdff0ef          	jal	ra,80001be8 <hash_func>
    80001d20:	00050793          	mv	a5,a0
    80001d24:	fef42423          	sw	a5,-24(s0)
    80001d28:	fe842783          	lw	a5,-24(s0)
    80001d2c:	00078513          	mv	a0,a5
    80001d30:	02813083          	ld	ra,40(sp)
    80001d34:	02013403          	ld	s0,32(sp)
    80001d38:	03010113          	addi	sp,sp,48
    80001d3c:	00008067          	ret

0000000080001d40 <fast_write>:
    80001d40:	fc010113          	addi	sp,sp,-64
    80001d44:	02813c23          	sd	s0,56(sp)
    80001d48:	04010413          	addi	s0,sp,64
    80001d4c:	00050793          	mv	a5,a0
    80001d50:	fcb43823          	sd	a1,-48(s0)
    80001d54:	fcc43423          	sd	a2,-56(s0)
    80001d58:	fcf42e23          	sw	a5,-36(s0)
    80001d5c:	fe043423          	sd	zero,-24(s0)
    80001d60:	0300006f          	j	80001d90 <fast_write+0x50>
    80001d64:	fdc40713          	addi	a4,s0,-36
    80001d68:	fe843783          	ld	a5,-24(s0)
    80001d6c:	00f70733          	add	a4,a4,a5
    80001d70:	fd043683          	ld	a3,-48(s0)
    80001d74:	fe843783          	ld	a5,-24(s0)
    80001d78:	00f687b3          	add	a5,a3,a5
    80001d7c:	00074703          	lbu	a4,0(a4) # 10000 <_start-0x7fff0000>
    80001d80:	00e78023          	sb	a4,0(a5)
    80001d84:	fe843783          	ld	a5,-24(s0)
    80001d88:	00178793          	addi	a5,a5,1
    80001d8c:	fef43423          	sd	a5,-24(s0)
    80001d90:	fe843703          	ld	a4,-24(s0)
    80001d94:	fc843783          	ld	a5,-56(s0)
    80001d98:	fcf716e3          	bne	a4,a5,80001d64 <fast_write+0x24>
    80001d9c:	00000013          	nop
    80001da0:	00000013          	nop
    80001da4:	03813403          	ld	s0,56(sp)
    80001da8:	04010113          	addi	sp,sp,64
    80001dac:	00008067          	ret

0000000080001db0 <qlz_size_decompressed>:
    80001db0:	fd010113          	addi	sp,sp,-48
    80001db4:	02113423          	sd	ra,40(sp)
    80001db8:	02813023          	sd	s0,32(sp)
    80001dbc:	03010413          	addi	s0,sp,48
    80001dc0:	fca43c23          	sd	a0,-40(s0)
    80001dc4:	fd843783          	ld	a5,-40(s0)
    80001dc8:	0007c783          	lbu	a5,0(a5)
    80001dcc:	0007879b          	sext.w	a5,a5
    80001dd0:	0027f793          	andi	a5,a5,2
    80001dd4:	0007879b          	sext.w	a5,a5
    80001dd8:	00078663          	beqz	a5,80001de4 <qlz_size_decompressed+0x34>
    80001ddc:	00400793          	li	a5,4
    80001de0:	0080006f          	j	80001de8 <qlz_size_decompressed+0x38>
    80001de4:	00100793          	li	a5,1
    80001de8:	fef42623          	sw	a5,-20(s0)
    80001dec:	fec46783          	lwu	a5,-20(s0)
    80001df0:	00178793          	addi	a5,a5,1
    80001df4:	fd843703          	ld	a4,-40(s0)
    80001df8:	00f707b3          	add	a5,a4,a5
    80001dfc:	fec42703          	lw	a4,-20(s0)
    80001e00:	00070593          	mv	a1,a4
    80001e04:	00078513          	mv	a0,a5
    80001e08:	e39ff0ef          	jal	ra,80001c40 <fast_read>
    80001e0c:	00050793          	mv	a5,a0
    80001e10:	fef42423          	sw	a5,-24(s0)
    80001e14:	00400713          	li	a4,4
    80001e18:	fec42783          	lw	a5,-20(s0)
    80001e1c:	40f707bb          	subw	a5,a4,a5
    80001e20:	0007879b          	sext.w	a5,a5
    80001e24:	0037979b          	slliw	a5,a5,0x3
    80001e28:	0007879b          	sext.w	a5,a5
    80001e2c:	00078713          	mv	a4,a5
    80001e30:	fff00793          	li	a5,-1
    80001e34:	00e7d7bb          	srlw	a5,a5,a4
    80001e38:	0007871b          	sext.w	a4,a5
    80001e3c:	fe842783          	lw	a5,-24(s0)
    80001e40:	00e7f7b3          	and	a5,a5,a4
    80001e44:	fef42423          	sw	a5,-24(s0)
    80001e48:	fe846783          	lwu	a5,-24(s0)
    80001e4c:	00078513          	mv	a0,a5
    80001e50:	02813083          	ld	ra,40(sp)
    80001e54:	02013403          	ld	s0,32(sp)
    80001e58:	03010113          	addi	sp,sp,48
    80001e5c:	00008067          	ret

0000000080001e60 <qlz_size_compressed>:
    80001e60:	fd010113          	addi	sp,sp,-48
    80001e64:	02113423          	sd	ra,40(sp)
    80001e68:	02813023          	sd	s0,32(sp)
    80001e6c:	03010413          	addi	s0,sp,48
    80001e70:	fca43c23          	sd	a0,-40(s0)
    80001e74:	fd843783          	ld	a5,-40(s0)
    80001e78:	0007c783          	lbu	a5,0(a5)
    80001e7c:	0007879b          	sext.w	a5,a5
    80001e80:	0027f793          	andi	a5,a5,2
    80001e84:	0007879b          	sext.w	a5,a5
    80001e88:	00078663          	beqz	a5,80001e94 <qlz_size_compressed+0x34>
    80001e8c:	00400793          	li	a5,4
    80001e90:	0080006f          	j	80001e98 <qlz_size_compressed+0x38>
    80001e94:	00100793          	li	a5,1
    80001e98:	fef42623          	sw	a5,-20(s0)
    80001e9c:	fd843783          	ld	a5,-40(s0)
    80001ea0:	00178793          	addi	a5,a5,1
    80001ea4:	fec42703          	lw	a4,-20(s0)
    80001ea8:	00070593          	mv	a1,a4
    80001eac:	00078513          	mv	a0,a5
    80001eb0:	d91ff0ef          	jal	ra,80001c40 <fast_read>
    80001eb4:	00050793          	mv	a5,a0
    80001eb8:	fef42423          	sw	a5,-24(s0)
    80001ebc:	00400713          	li	a4,4
    80001ec0:	fec42783          	lw	a5,-20(s0)
    80001ec4:	40f707bb          	subw	a5,a4,a5
    80001ec8:	0007879b          	sext.w	a5,a5
    80001ecc:	0037979b          	slliw	a5,a5,0x3
    80001ed0:	0007879b          	sext.w	a5,a5
    80001ed4:	00078713          	mv	a4,a5
    80001ed8:	fff00793          	li	a5,-1
    80001edc:	00e7d7bb          	srlw	a5,a5,a4
    80001ee0:	0007871b          	sext.w	a4,a5
    80001ee4:	fe842783          	lw	a5,-24(s0)
    80001ee8:	00e7f7b3          	and	a5,a5,a4
    80001eec:	fef42423          	sw	a5,-24(s0)
    80001ef0:	fe846783          	lwu	a5,-24(s0)
    80001ef4:	00078513          	mv	a0,a5
    80001ef8:	02813083          	ld	ra,40(sp)
    80001efc:	02013403          	ld	s0,32(sp)
    80001f00:	03010113          	addi	sp,sp,48
    80001f04:	00008067          	ret

0000000080001f08 <qlz_size_header>:
    80001f08:	fd010113          	addi	sp,sp,-48
    80001f0c:	02813423          	sd	s0,40(sp)
    80001f10:	03010413          	addi	s0,sp,48
    80001f14:	fca43c23          	sd	a0,-40(s0)
    80001f18:	fd843783          	ld	a5,-40(s0)
    80001f1c:	0007c783          	lbu	a5,0(a5)
    80001f20:	0007879b          	sext.w	a5,a5
    80001f24:	0027f793          	andi	a5,a5,2
    80001f28:	0007879b          	sext.w	a5,a5
    80001f2c:	00078663          	beqz	a5,80001f38 <qlz_size_header+0x30>
    80001f30:	00900793          	li	a5,9
    80001f34:	0080006f          	j	80001f3c <qlz_size_header+0x34>
    80001f38:	00300793          	li	a5,3
    80001f3c:	fef43423          	sd	a5,-24(s0)
    80001f40:	fe843783          	ld	a5,-24(s0)
    80001f44:	00078513          	mv	a0,a5
    80001f48:	02813403          	ld	s0,40(sp)
    80001f4c:	03010113          	addi	sp,sp,48
    80001f50:	00008067          	ret

0000000080001f54 <memcpy_up>:
    80001f54:	fd010113          	addi	sp,sp,-48
    80001f58:	02113423          	sd	ra,40(sp)
    80001f5c:	02813023          	sd	s0,32(sp)
    80001f60:	03010413          	addi	s0,sp,48
    80001f64:	fea43423          	sd	a0,-24(s0)
    80001f68:	feb43023          	sd	a1,-32(s0)
    80001f6c:	00060793          	mv	a5,a2
    80001f70:	fcf42e23          	sw	a5,-36(s0)
    80001f74:	09500613          	li	a2,149
    80001f78:	00009597          	auipc	a1,0x9
    80001f7c:	71058593          	addi	a1,a1,1808 # 8000b688 <uptime+0x6fc>
    80001f80:	00009517          	auipc	a0,0x9
    80001f84:	6c050513          	addi	a0,a0,1728 # 8000b640 <uptime+0x6b4>
    80001f88:	701080ef          	jal	ra,8000ae88 <printf_>
    80001f8c:	00100513          	li	a0,1
    80001f90:	354060ef          	jal	ra,800082e4 <_halt>

0000000080001f94 <update_hash>:
    80001f94:	fd010113          	addi	sp,sp,-48
    80001f98:	02113423          	sd	ra,40(sp)
    80001f9c:	02813023          	sd	s0,32(sp)
    80001fa0:	03010413          	addi	s0,sp,48
    80001fa4:	fca43c23          	sd	a0,-40(s0)
    80001fa8:	fcb43823          	sd	a1,-48(s0)
    80001fac:	fd043503          	ld	a0,-48(s0)
    80001fb0:	d3dff0ef          	jal	ra,80001cec <hashat>
    80001fb4:	00050793          	mv	a5,a0
    80001fb8:	fef42623          	sw	a5,-20(s0)
    80001fbc:	fd843703          	ld	a4,-40(s0)
    80001fc0:	fec46783          	lwu	a5,-20(s0)
    80001fc4:	00f707b3          	add	a5,a4,a5
    80001fc8:	00010737          	lui	a4,0x10
    80001fcc:	00f707b3          	add	a5,a4,a5
    80001fd0:	0007c783          	lbu	a5,0(a5)
    80001fd4:	fef405a3          	sb	a5,-21(s0)
    80001fd8:	feb44783          	lbu	a5,-21(s0)
    80001fdc:	0007879b          	sext.w	a5,a5
    80001fe0:	0037f793          	andi	a5,a5,3
    80001fe4:	0007879b          	sext.w	a5,a5
    80001fe8:	fd843703          	ld	a4,-40(s0)
    80001fec:	fec46683          	lwu	a3,-20(s0)
    80001ff0:	00269693          	slli	a3,a3,0x2
    80001ff4:	00f687b3          	add	a5,a3,a5
    80001ff8:	00379793          	slli	a5,a5,0x3
    80001ffc:	00f707b3          	add	a5,a4,a5
    80002000:	fd043703          	ld	a4,-48(s0)
    80002004:	00e7b023          	sd	a4,0(a5)
    80002008:	feb44783          	lbu	a5,-21(s0)
    8000200c:	0017879b          	addiw	a5,a5,1
    80002010:	fef405a3          	sb	a5,-21(s0)
    80002014:	fd843703          	ld	a4,-40(s0)
    80002018:	fec46783          	lwu	a5,-20(s0)
    8000201c:	00f707b3          	add	a5,a4,a5
    80002020:	00010737          	lui	a4,0x10
    80002024:	00f707b3          	add	a5,a4,a5
    80002028:	feb44703          	lbu	a4,-21(s0)
    8000202c:	00e78023          	sb	a4,0(a5)
    80002030:	00000013          	nop
    80002034:	02813083          	ld	ra,40(sp)
    80002038:	02013403          	ld	s0,32(sp)
    8000203c:	03010113          	addi	sp,sp,48
    80002040:	00008067          	ret

0000000080002044 <update_hash_upto>:
    80002044:	fd010113          	addi	sp,sp,-48
    80002048:	02113423          	sd	ra,40(sp)
    8000204c:	02813023          	sd	s0,32(sp)
    80002050:	03010413          	addi	s0,sp,48
    80002054:	fea43423          	sd	a0,-24(s0)
    80002058:	feb43023          	sd	a1,-32(s0)
    8000205c:	fcc43c23          	sd	a2,-40(s0)
    80002060:	02c0006f          	j	8000208c <update_hash_upto+0x48>
    80002064:	fe043783          	ld	a5,-32(s0)
    80002068:	0007b783          	ld	a5,0(a5)
    8000206c:	00178713          	addi	a4,a5,1
    80002070:	fe043783          	ld	a5,-32(s0)
    80002074:	00e7b023          	sd	a4,0(a5)
    80002078:	fe043783          	ld	a5,-32(s0)
    8000207c:	0007b783          	ld	a5,0(a5)
    80002080:	00078593          	mv	a1,a5
    80002084:	fe843503          	ld	a0,-24(s0)
    80002088:	f0dff0ef          	jal	ra,80001f94 <update_hash>
    8000208c:	fe043783          	ld	a5,-32(s0)
    80002090:	0007b783          	ld	a5,0(a5)
    80002094:	fd843703          	ld	a4,-40(s0)
    80002098:	fce7e6e3          	bltu	a5,a4,80002064 <update_hash_upto+0x20>
    8000209c:	00000013          	nop
    800020a0:	00000013          	nop
    800020a4:	02813083          	ld	ra,40(sp)
    800020a8:	02013403          	ld	s0,32(sp)
    800020ac:	03010113          	addi	sp,sp,48
    800020b0:	00008067          	ret

00000000800020b4 <qlz_compress_core>:
    800020b4:	f5010113          	addi	sp,sp,-176
    800020b8:	0a113423          	sd	ra,168(sp)
    800020bc:	0a813023          	sd	s0,160(sp)
    800020c0:	0b010413          	addi	s0,sp,176
    800020c4:	f6a43423          	sd	a0,-152(s0)
    800020c8:	f6b43023          	sd	a1,-160(s0)
    800020cc:	f4c43c23          	sd	a2,-168(s0)
    800020d0:	f4d43823          	sd	a3,-176(s0)
    800020d4:	f5843783          	ld	a5,-168(s0)
    800020d8:	fff78793          	addi	a5,a5,-1
    800020dc:	f6843703          	ld	a4,-152(s0)
    800020e0:	00f707b3          	add	a5,a4,a5
    800020e4:	faf43823          	sd	a5,-80(s0)
    800020e8:	f6843783          	ld	a5,-152(s0)
    800020ec:	fef43423          	sd	a5,-24(s0)
    800020f0:	f6043783          	ld	a5,-160(s0)
    800020f4:	fef43023          	sd	a5,-32(s0)
    800020f8:	f6043783          	ld	a5,-160(s0)
    800020fc:	00478793          	addi	a5,a5,4
    80002100:	fcf43c23          	sd	a5,-40(s0)
    80002104:	800007b7          	lui	a5,0x80000
    80002108:	fcf42a23          	sw	a5,-44(s0)
    8000210c:	fb043783          	ld	a5,-80(s0)
    80002110:	ff678793          	addi	a5,a5,-10 # ffffffff7ffffff6 <_pmem_end+0xfffffffef7fffff6>
    80002114:	faf43423          	sd	a5,-88(s0)
    80002118:	fa042223          	sw	zero,-92(s0)
    8000211c:	fa042023          	sw	zero,-96(s0)
    80002120:	fe843703          	ld	a4,-24(s0)
    80002124:	fa843783          	ld	a5,-88(s0)
    80002128:	50e7e663          	bltu	a5,a4,80002634 <qlz_compress_core+0x580>
    8000212c:	00300593          	li	a1,3
    80002130:	fe843503          	ld	a0,-24(s0)
    80002134:	b0dff0ef          	jal	ra,80001c40 <fast_read>
    80002138:	00050793          	mv	a5,a0
    8000213c:	faf42223          	sw	a5,-92(s0)
    80002140:	4f40006f          	j	80002634 <qlz_compress_core+0x580>
    80002144:	fd442783          	lw	a5,-44(s0)
    80002148:	0017f793          	andi	a5,a5,1
    8000214c:	0007879b          	sext.w	a5,a5
    80002150:	0a078863          	beqz	a5,80002200 <qlz_compress_core+0x14c>
    80002154:	f5843783          	ld	a5,-168(s0)
    80002158:	0017d793          	srli	a5,a5,0x1
    8000215c:	f6843703          	ld	a4,-152(s0)
    80002160:	00f707b3          	add	a5,a4,a5
    80002164:	fe843703          	ld	a4,-24(s0)
    80002168:	02e7fe63          	bgeu	a5,a4,800021a4 <qlz_compress_core+0xf0>
    8000216c:	fd843703          	ld	a4,-40(s0)
    80002170:	f6043783          	ld	a5,-160(s0)
    80002174:	40f70733          	sub	a4,a4,a5
    80002178:	fe843683          	ld	a3,-24(s0)
    8000217c:	f6843783          	ld	a5,-152(s0)
    80002180:	40f686b3          	sub	a3,a3,a5
    80002184:	fe843603          	ld	a2,-24(s0)
    80002188:	f6843783          	ld	a5,-152(s0)
    8000218c:	40f607b3          	sub	a5,a2,a5
    80002190:	4057d793          	srai	a5,a5,0x5
    80002194:	40f687b3          	sub	a5,a3,a5
    80002198:	00e7d663          	bge	a5,a4,800021a4 <qlz_compress_core+0xf0>
    8000219c:	00000793          	li	a5,0
    800021a0:	6340006f          	j	800027d4 <qlz_compress_core+0x720>
    800021a4:	fd442783          	lw	a5,-44(s0)
    800021a8:	0017d79b          	srliw	a5,a5,0x1
    800021ac:	0007879b          	sext.w	a5,a5
    800021b0:	00078713          	mv	a4,a5
    800021b4:	800007b7          	lui	a5,0x80000
    800021b8:	00f767b3          	or	a5,a4,a5
    800021bc:	0007879b          	sext.w	a5,a5
    800021c0:	00400613          	li	a2,4
    800021c4:	fe043583          	ld	a1,-32(s0)
    800021c8:	00078513          	mv	a0,a5
    800021cc:	b75ff0ef          	jal	ra,80001d40 <fast_write>
    800021d0:	fd843783          	ld	a5,-40(s0)
    800021d4:	fef43023          	sd	a5,-32(s0)
    800021d8:	fd843783          	ld	a5,-40(s0)
    800021dc:	00478793          	addi	a5,a5,4 # ffffffff80000004 <_pmem_end+0xfffffffef8000004>
    800021e0:	fcf43c23          	sd	a5,-40(s0)
    800021e4:	800007b7          	lui	a5,0x80000
    800021e8:	fcf42a23          	sw	a5,-44(s0)
    800021ec:	00300593          	li	a1,3
    800021f0:	fe843503          	ld	a0,-24(s0)
    800021f4:	a4dff0ef          	jal	ra,80001c40 <fast_read>
    800021f8:	00050793          	mv	a5,a0
    800021fc:	faf42223          	sw	a5,-92(s0)
    80002200:	fa042c23          	sw	zero,-72(s0)
    80002204:	fb043783          	ld	a5,-80(s0)
    80002208:	ffc78713          	addi	a4,a5,-4 # ffffffff7ffffffc <_pmem_end+0xfffffffef7fffffc>
    8000220c:	fe843783          	ld	a5,-24(s0)
    80002210:	40f707b3          	sub	a5,a4,a5
    80002214:	0fe00713          	li	a4,254
    80002218:	00f75463          	bge	a4,a5,80002220 <qlz_compress_core+0x16c>
    8000221c:	0fe00793          	li	a5,254
    80002220:	00178793          	addi	a5,a5,1
    80002224:	f8f43823          	sd	a5,-112(s0)
    80002228:	00300593          	li	a1,3
    8000222c:	fe843503          	ld	a0,-24(s0)
    80002230:	a11ff0ef          	jal	ra,80001c40 <fast_read>
    80002234:	00050793          	mv	a5,a0
    80002238:	faf42223          	sw	a5,-92(s0)
    8000223c:	fa442783          	lw	a5,-92(s0)
    80002240:	00078513          	mv	a0,a5
    80002244:	9a5ff0ef          	jal	ra,80001be8 <hash_func>
    80002248:	00050793          	mv	a5,a0
    8000224c:	f8f42623          	sw	a5,-116(s0)
    80002250:	f5043703          	ld	a4,-176(s0)
    80002254:	f8c46783          	lwu	a5,-116(s0)
    80002258:	00f707b3          	add	a5,a4,a5
    8000225c:	00010737          	lui	a4,0x10
    80002260:	00f707b3          	add	a5,a4,a5
    80002264:	0087c783          	lbu	a5,8(a5)
    80002268:	f8f405a3          	sb	a5,-117(s0)
    8000226c:	f5043703          	ld	a4,-176(s0)
    80002270:	f8c46783          	lwu	a5,-116(s0)
    80002274:	00579793          	slli	a5,a5,0x5
    80002278:	00f707b3          	add	a5,a4,a5
    8000227c:	0087b783          	ld	a5,8(a5)
    80002280:	fcf43423          	sd	a5,-56(s0)
    80002284:	fe843783          	ld	a5,-24(s0)
    80002288:	ffe78793          	addi	a5,a5,-2
    8000228c:	fc843703          	ld	a4,-56(s0)
    80002290:	0cf77463          	bgeu	a4,a5,80002358 <qlz_compress_core+0x2a4>
    80002294:	f8b44783          	lbu	a5,-117(s0)
    80002298:	0ff7f793          	zext.b	a5,a5
    8000229c:	0a078e63          	beqz	a5,80002358 <qlz_compress_core+0x2a4>
    800022a0:	00300593          	li	a1,3
    800022a4:	fc843503          	ld	a0,-56(s0)
    800022a8:	999ff0ef          	jal	ra,80001c40 <fast_read>
    800022ac:	00050793          	mv	a5,a0
    800022b0:	0007871b          	sext.w	a4,a5
    800022b4:	fa442783          	lw	a5,-92(s0)
    800022b8:	00e7c7b3          	xor	a5,a5,a4
    800022bc:	0007879b          	sext.w	a5,a5
    800022c0:	00078713          	mv	a4,a5
    800022c4:	010007b7          	lui	a5,0x1000
    800022c8:	fff78793          	addi	a5,a5,-1 # ffffff <_start-0x7f000001>
    800022cc:	00f777b3          	and	a5,a4,a5
    800022d0:	0007879b          	sext.w	a5,a5
    800022d4:	08079263          	bnez	a5,80002358 <qlz_compress_core+0x2a4>
    800022d8:	00300793          	li	a5,3
    800022dc:	fcf42223          	sw	a5,-60(s0)
    800022e0:	fc446783          	lwu	a5,-60(s0)
    800022e4:	fc843703          	ld	a4,-56(s0)
    800022e8:	00f707b3          	add	a5,a4,a5
    800022ec:	0007c683          	lbu	a3,0(a5)
    800022f0:	fc446783          	lwu	a5,-60(s0)
    800022f4:	fe843703          	ld	a4,-24(s0)
    800022f8:	00f707b3          	add	a5,a4,a5
    800022fc:	0007c783          	lbu	a5,0(a5)
    80002300:	00068713          	mv	a4,a3
    80002304:	04f71e63          	bne	a4,a5,80002360 <qlz_compress_core+0x2ac>
    80002308:	00400793          	li	a5,4
    8000230c:	fcf42223          	sw	a5,-60(s0)
    80002310:	0100006f          	j	80002320 <qlz_compress_core+0x26c>
    80002314:	fc442783          	lw	a5,-60(s0)
    80002318:	0017879b          	addiw	a5,a5,1
    8000231c:	fcf42223          	sw	a5,-60(s0)
    80002320:	fc446783          	lwu	a5,-60(s0)
    80002324:	fc843703          	ld	a4,-56(s0)
    80002328:	00f707b3          	add	a5,a4,a5
    8000232c:	0007c683          	lbu	a3,0(a5)
    80002330:	fc446783          	lwu	a5,-60(s0)
    80002334:	fe843703          	ld	a4,-24(s0)
    80002338:	00f707b3          	add	a5,a4,a5
    8000233c:	0007c783          	lbu	a5,0(a5)
    80002340:	00068713          	mv	a4,a3
    80002344:	00f71e63          	bne	a4,a5,80002360 <qlz_compress_core+0x2ac>
    80002348:	fc446783          	lwu	a5,-60(s0)
    8000234c:	f9043703          	ld	a4,-112(s0)
    80002350:	fce7e2e3          	bltu	a5,a4,80002314 <qlz_compress_core+0x260>
    80002354:	00c0006f          	j	80002360 <qlz_compress_core+0x2ac>
    80002358:	fc042223          	sw	zero,-60(s0)
    8000235c:	0080006f          	j	80002364 <qlz_compress_core+0x2b0>
    80002360:	00000013          	nop
    80002364:	00100793          	li	a5,1
    80002368:	fcf42023          	sw	a5,-64(s0)
    8000236c:	11c0006f          	j	80002488 <qlz_compress_core+0x3d4>
    80002370:	f5043703          	ld	a4,-176(s0)
    80002374:	fc046783          	lwu	a5,-64(s0)
    80002378:	f8c46683          	lwu	a3,-116(s0)
    8000237c:	00269693          	slli	a3,a3,0x2
    80002380:	00f687b3          	add	a5,a3,a5
    80002384:	00379793          	slli	a5,a5,0x3
    80002388:	00f707b3          	add	a5,a4,a5
    8000238c:	0087b783          	ld	a5,8(a5)
    80002390:	f8f43023          	sd	a5,-128(s0)
    80002394:	fc446783          	lwu	a5,-60(s0)
    80002398:	fe843703          	ld	a4,-24(s0)
    8000239c:	00f707b3          	add	a5,a4,a5
    800023a0:	0007c683          	lbu	a3,0(a5)
    800023a4:	fc446783          	lwu	a5,-60(s0)
    800023a8:	f8043703          	ld	a4,-128(s0)
    800023ac:	00f707b3          	add	a5,a4,a5
    800023b0:	0007c783          	lbu	a5,0(a5)
    800023b4:	00068713          	mv	a4,a3
    800023b8:	0cf71263          	bne	a4,a5,8000247c <qlz_compress_core+0x3c8>
    800023bc:	00300593          	li	a1,3
    800023c0:	f8043503          	ld	a0,-128(s0)
    800023c4:	87dff0ef          	jal	ra,80001c40 <fast_read>
    800023c8:	00050793          	mv	a5,a0
    800023cc:	0007871b          	sext.w	a4,a5
    800023d0:	fa442783          	lw	a5,-92(s0)
    800023d4:	00e7c7b3          	xor	a5,a5,a4
    800023d8:	0007879b          	sext.w	a5,a5
    800023dc:	00078713          	mv	a4,a5
    800023e0:	010007b7          	lui	a5,0x1000
    800023e4:	fff78793          	addi	a5,a5,-1 # ffffff <_start-0x7f000001>
    800023e8:	00f777b3          	and	a5,a4,a5
    800023ec:	0007879b          	sext.w	a5,a5
    800023f0:	08079663          	bnez	a5,8000247c <qlz_compress_core+0x3c8>
    800023f4:	fe843783          	ld	a5,-24(s0)
    800023f8:	ffe78793          	addi	a5,a5,-2
    800023fc:	f8043703          	ld	a4,-128(s0)
    80002400:	06f77e63          	bgeu	a4,a5,8000247c <qlz_compress_core+0x3c8>
    80002404:	00300793          	li	a5,3
    80002408:	faf42e23          	sw	a5,-68(s0)
    8000240c:	0100006f          	j	8000241c <qlz_compress_core+0x368>
    80002410:	fbc42783          	lw	a5,-68(s0)
    80002414:	0017879b          	addiw	a5,a5,1
    80002418:	faf42e23          	sw	a5,-68(s0)
    8000241c:	fbc46783          	lwu	a5,-68(s0)
    80002420:	f8043703          	ld	a4,-128(s0)
    80002424:	00f707b3          	add	a5,a4,a5
    80002428:	0007c683          	lbu	a3,0(a5)
    8000242c:	fbc46783          	lwu	a5,-68(s0)
    80002430:	fe843703          	ld	a4,-24(s0)
    80002434:	00f707b3          	add	a5,a4,a5
    80002438:	0007c783          	lbu	a5,0(a5)
    8000243c:	00068713          	mv	a4,a3
    80002440:	00f71863          	bne	a4,a5,80002450 <qlz_compress_core+0x39c>
    80002444:	fbc46783          	lwu	a5,-68(s0)
    80002448:	f9043703          	ld	a4,-112(s0)
    8000244c:	fce7e2e3          	bltu	a5,a4,80002410 <qlz_compress_core+0x35c>
    80002450:	fbc42703          	lw	a4,-68(s0)
    80002454:	fc442783          	lw	a5,-60(s0)
    80002458:	0007071b          	sext.w	a4,a4
    8000245c:	0007879b          	sext.w	a5,a5
    80002460:	00e7fe63          	bgeu	a5,a4,8000247c <qlz_compress_core+0x3c8>
    80002464:	f8043783          	ld	a5,-128(s0)
    80002468:	fcf43423          	sd	a5,-56(s0)
    8000246c:	fbc42783          	lw	a5,-68(s0)
    80002470:	fcf42223          	sw	a5,-60(s0)
    80002474:	fc042783          	lw	a5,-64(s0)
    80002478:	faf42c23          	sw	a5,-72(s0)
    8000247c:	fc042783          	lw	a5,-64(s0)
    80002480:	0017879b          	addiw	a5,a5,1
    80002484:	fcf42023          	sw	a5,-64(s0)
    80002488:	fc042783          	lw	a5,-64(s0)
    8000248c:	0007871b          	sext.w	a4,a5
    80002490:	00300793          	li	a5,3
    80002494:	00e7ec63          	bltu	a5,a4,800024ac <qlz_compress_core+0x3f8>
    80002498:	f8b44783          	lbu	a5,-117(s0)
    8000249c:	0007871b          	sext.w	a4,a5
    800024a0:	fc042783          	lw	a5,-64(s0)
    800024a4:	0007879b          	sext.w	a5,a5
    800024a8:	ece7e4e3          	bltu	a5,a4,80002370 <qlz_compress_core+0x2bc>
    800024ac:	fc843783          	ld	a5,-56(s0)
    800024b0:	f8f43023          	sd	a5,-128(s0)
    800024b4:	f8b44783          	lbu	a5,-117(s0)
    800024b8:	0007879b          	sext.w	a5,a5
    800024bc:	0037f793          	andi	a5,a5,3
    800024c0:	0007879b          	sext.w	a5,a5
    800024c4:	f5043703          	ld	a4,-176(s0)
    800024c8:	f8c46683          	lwu	a3,-116(s0)
    800024cc:	00269693          	slli	a3,a3,0x2
    800024d0:	00f687b3          	add	a5,a3,a5
    800024d4:	00379793          	slli	a5,a5,0x3
    800024d8:	00f707b3          	add	a5,a4,a5
    800024dc:	fe843703          	ld	a4,-24(s0)
    800024e0:	00e7b423          	sd	a4,8(a5)
    800024e4:	f8b44783          	lbu	a5,-117(s0)
    800024e8:	0017879b          	addiw	a5,a5,1
    800024ec:	f8f405a3          	sb	a5,-117(s0)
    800024f0:	f5043703          	ld	a4,-176(s0)
    800024f4:	f8c46783          	lwu	a5,-116(s0)
    800024f8:	00f707b3          	add	a5,a4,a5
    800024fc:	00010737          	lui	a4,0x10
    80002500:	00f707b3          	add	a5,a4,a5
    80002504:	f8b44703          	lbu	a4,-117(s0)
    80002508:	00e78423          	sb	a4,8(a5)
    8000250c:	fc442783          	lw	a5,-60(s0)
    80002510:	0007871b          	sext.w	a4,a5
    80002514:	00200793          	li	a5,2
    80002518:	0ee7f463          	bgeu	a5,a4,80002600 <qlz_compress_core+0x54c>
    8000251c:	fd442783          	lw	a5,-44(s0)
    80002520:	0017d79b          	srliw	a5,a5,0x1
    80002524:	0007879b          	sext.w	a5,a5
    80002528:	00078713          	mv	a4,a5
    8000252c:	800007b7          	lui	a5,0x80000
    80002530:	00f767b3          	or	a5,a4,a5
    80002534:	fcf42a23          	sw	a5,-44(s0)
    80002538:	fc446783          	lwu	a5,-60(s0)
    8000253c:	fe843703          	ld	a4,-24(s0)
    80002540:	00f707b3          	add	a5,a4,a5
    80002544:	fef43423          	sd	a5,-24(s0)
    80002548:	fc442783          	lw	a5,-60(s0)
    8000254c:	0007871b          	sext.w	a4,a5
    80002550:	00900793          	li	a5,9
    80002554:	04e7ee63          	bltu	a5,a4,800025b0 <qlz_compress_core+0x4fc>
    80002558:	fc442783          	lw	a5,-60(s0)
    8000255c:	ffe7879b          	addiw	a5,a5,-2 # 7ffffffe <_start-0x2>
    80002560:	0007879b          	sext.w	a5,a5
    80002564:	0027979b          	slliw	a5,a5,0x2
    80002568:	0007871b          	sext.w	a4,a5
    8000256c:	fb842783          	lw	a5,-72(s0)
    80002570:	00e7e7b3          	or	a5,a5,a4
    80002574:	0007871b          	sext.w	a4,a5
    80002578:	f8c42783          	lw	a5,-116(s0)
    8000257c:	0057979b          	slliw	a5,a5,0x5
    80002580:	0007879b          	sext.w	a5,a5
    80002584:	00f767b3          	or	a5,a4,a5
    80002588:	f6f42c23          	sw	a5,-136(s0)
    8000258c:	f7842783          	lw	a5,-136(s0)
    80002590:	00200613          	li	a2,2
    80002594:	fd843583          	ld	a1,-40(s0)
    80002598:	00078513          	mv	a0,a5
    8000259c:	fa4ff0ef          	jal	ra,80001d40 <fast_write>
    800025a0:	fd843783          	ld	a5,-40(s0)
    800025a4:	00278793          	addi	a5,a5,2
    800025a8:	fcf43c23          	sd	a5,-40(s0)
    800025ac:	0880006f          	j	80002634 <qlz_compress_core+0x580>
    800025b0:	fc442783          	lw	a5,-60(s0)
    800025b4:	0107979b          	slliw	a5,a5,0x10
    800025b8:	0007871b          	sext.w	a4,a5
    800025bc:	fb842783          	lw	a5,-72(s0)
    800025c0:	00e7e7b3          	or	a5,a5,a4
    800025c4:	0007871b          	sext.w	a4,a5
    800025c8:	f8c42783          	lw	a5,-116(s0)
    800025cc:	0057979b          	slliw	a5,a5,0x5
    800025d0:	0007879b          	sext.w	a5,a5
    800025d4:	00f767b3          	or	a5,a4,a5
    800025d8:	f6f42e23          	sw	a5,-132(s0)
    800025dc:	f7c42783          	lw	a5,-132(s0)
    800025e0:	00300613          	li	a2,3
    800025e4:	fd843583          	ld	a1,-40(s0)
    800025e8:	00078513          	mv	a0,a5
    800025ec:	f54ff0ef          	jal	ra,80001d40 <fast_write>
    800025f0:	fd843783          	ld	a5,-40(s0)
    800025f4:	00378793          	addi	a5,a5,3
    800025f8:	fcf43c23          	sd	a5,-40(s0)
    800025fc:	0380006f          	j	80002634 <qlz_compress_core+0x580>
    80002600:	fe843783          	ld	a5,-24(s0)
    80002604:	0007c703          	lbu	a4,0(a5)
    80002608:	fd843783          	ld	a5,-40(s0)
    8000260c:	00e78023          	sb	a4,0(a5)
    80002610:	fe843783          	ld	a5,-24(s0)
    80002614:	00178793          	addi	a5,a5,1
    80002618:	fef43423          	sd	a5,-24(s0)
    8000261c:	fd843783          	ld	a5,-40(s0)
    80002620:	00178793          	addi	a5,a5,1
    80002624:	fcf43c23          	sd	a5,-40(s0)
    80002628:	fd442783          	lw	a5,-44(s0)
    8000262c:	0017d79b          	srliw	a5,a5,0x1
    80002630:	fcf42a23          	sw	a5,-44(s0)
    80002634:	fe843703          	ld	a4,-24(s0)
    80002638:	fa843783          	ld	a5,-88(s0)
    8000263c:	b0e7f4e3          	bgeu	a5,a4,80002144 <qlz_compress_core+0x90>
    80002640:	1240006f          	j	80002764 <qlz_compress_core+0x6b0>
    80002644:	fd442783          	lw	a5,-44(s0)
    80002648:	0017f793          	andi	a5,a5,1
    8000264c:	0007879b          	sext.w	a5,a5
    80002650:	04078663          	beqz	a5,8000269c <qlz_compress_core+0x5e8>
    80002654:	fd442783          	lw	a5,-44(s0)
    80002658:	0017d79b          	srliw	a5,a5,0x1
    8000265c:	0007879b          	sext.w	a5,a5
    80002660:	00078713          	mv	a4,a5
    80002664:	800007b7          	lui	a5,0x80000
    80002668:	00f767b3          	or	a5,a4,a5
    8000266c:	0007879b          	sext.w	a5,a5
    80002670:	00400613          	li	a2,4
    80002674:	fe043583          	ld	a1,-32(s0)
    80002678:	00078513          	mv	a0,a5
    8000267c:	ec4ff0ef          	jal	ra,80001d40 <fast_write>
    80002680:	fd843783          	ld	a5,-40(s0)
    80002684:	fef43023          	sd	a5,-32(s0)
    80002688:	fd843783          	ld	a5,-40(s0)
    8000268c:	00478793          	addi	a5,a5,4 # ffffffff80000004 <_pmem_end+0xfffffffef8000004>
    80002690:	fcf43c23          	sd	a5,-40(s0)
    80002694:	800007b7          	lui	a5,0x80000
    80002698:	fcf42a23          	sw	a5,-44(s0)
    8000269c:	fb043783          	ld	a5,-80(s0)
    800026a0:	ffd78793          	addi	a5,a5,-3 # ffffffff7ffffffd <_pmem_end+0xfffffffef7fffffd>
    800026a4:	fe843703          	ld	a4,-24(s0)
    800026a8:	08e7e463          	bltu	a5,a4,80002730 <qlz_compress_core+0x67c>
    800026ac:	fe843503          	ld	a0,-24(s0)
    800026b0:	e3cff0ef          	jal	ra,80001cec <hashat>
    800026b4:	00050793          	mv	a5,a0
    800026b8:	f8f42e23          	sw	a5,-100(s0)
    800026bc:	f5043703          	ld	a4,-176(s0)
    800026c0:	f9c46783          	lwu	a5,-100(s0)
    800026c4:	00f707b3          	add	a5,a4,a5
    800026c8:	00010737          	lui	a4,0x10
    800026cc:	00f707b3          	add	a5,a4,a5
    800026d0:	0087c783          	lbu	a5,8(a5)
    800026d4:	f8f40da3          	sb	a5,-101(s0)
    800026d8:	f9b44783          	lbu	a5,-101(s0)
    800026dc:	0007879b          	sext.w	a5,a5
    800026e0:	0037f793          	andi	a5,a5,3
    800026e4:	0007879b          	sext.w	a5,a5
    800026e8:	f5043703          	ld	a4,-176(s0)
    800026ec:	f9c46683          	lwu	a3,-100(s0)
    800026f0:	00269693          	slli	a3,a3,0x2
    800026f4:	00f687b3          	add	a5,a3,a5
    800026f8:	00379793          	slli	a5,a5,0x3
    800026fc:	00f707b3          	add	a5,a4,a5
    80002700:	fe843703          	ld	a4,-24(s0)
    80002704:	00e7b423          	sd	a4,8(a5)
    80002708:	f9b44783          	lbu	a5,-101(s0)
    8000270c:	0017879b          	addiw	a5,a5,1
    80002710:	f8f40da3          	sb	a5,-101(s0)
    80002714:	f5043703          	ld	a4,-176(s0)
    80002718:	f9c46783          	lwu	a5,-100(s0)
    8000271c:	00f707b3          	add	a5,a4,a5
    80002720:	00010737          	lui	a4,0x10
    80002724:	00f707b3          	add	a5,a4,a5
    80002728:	f9b44703          	lbu	a4,-101(s0)
    8000272c:	00e78423          	sb	a4,8(a5)
    80002730:	fe843783          	ld	a5,-24(s0)
    80002734:	0007c703          	lbu	a4,0(a5)
    80002738:	fd843783          	ld	a5,-40(s0)
    8000273c:	00e78023          	sb	a4,0(a5)
    80002740:	fe843783          	ld	a5,-24(s0)
    80002744:	00178793          	addi	a5,a5,1
    80002748:	fef43423          	sd	a5,-24(s0)
    8000274c:	fd843783          	ld	a5,-40(s0)
    80002750:	00178793          	addi	a5,a5,1
    80002754:	fcf43c23          	sd	a5,-40(s0)
    80002758:	fd442783          	lw	a5,-44(s0)
    8000275c:	0017d79b          	srliw	a5,a5,0x1
    80002760:	fcf42a23          	sw	a5,-44(s0)
    80002764:	fe843703          	ld	a4,-24(s0)
    80002768:	fb043783          	ld	a5,-80(s0)
    8000276c:	ece7fce3          	bgeu	a5,a4,80002644 <qlz_compress_core+0x590>
    80002770:	0100006f          	j	80002780 <qlz_compress_core+0x6cc>
    80002774:	fd442783          	lw	a5,-44(s0)
    80002778:	0017d79b          	srliw	a5,a5,0x1
    8000277c:	fcf42a23          	sw	a5,-44(s0)
    80002780:	fd442783          	lw	a5,-44(s0)
    80002784:	0017f793          	andi	a5,a5,1
    80002788:	0007879b          	sext.w	a5,a5
    8000278c:	fe0784e3          	beqz	a5,80002774 <qlz_compress_core+0x6c0>
    80002790:	fd442783          	lw	a5,-44(s0)
    80002794:	0017d79b          	srliw	a5,a5,0x1
    80002798:	0007879b          	sext.w	a5,a5
    8000279c:	00078713          	mv	a4,a5
    800027a0:	800007b7          	lui	a5,0x80000
    800027a4:	00f767b3          	or	a5,a4,a5
    800027a8:	0007879b          	sext.w	a5,a5
    800027ac:	00400613          	li	a2,4
    800027b0:	fe043583          	ld	a1,-32(s0)
    800027b4:	00078513          	mv	a0,a5
    800027b8:	d88ff0ef          	jal	ra,80001d40 <fast_write>
    800027bc:	fd843703          	ld	a4,-40(s0)
    800027c0:	f6043783          	ld	a5,-160(s0)
    800027c4:	40f707b3          	sub	a5,a4,a5
    800027c8:	00900713          	li	a4,9
    800027cc:	00e7d463          	bge	a5,a4,800027d4 <qlz_compress_core+0x720>
    800027d0:	00900793          	li	a5,9
    800027d4:	00078513          	mv	a0,a5
    800027d8:	0a813083          	ld	ra,168(sp)
    800027dc:	0a013403          	ld	s0,160(sp)
    800027e0:	0b010113          	addi	sp,sp,176
    800027e4:	00008067          	ret

00000000800027e8 <qlz_decompress_core>:
    800027e8:	f7010113          	addi	sp,sp,-144
    800027ec:	08113423          	sd	ra,136(sp)
    800027f0:	08813023          	sd	s0,128(sp)
    800027f4:	09010413          	addi	s0,sp,144
    800027f8:	f8a43c23          	sd	a0,-104(s0)
    800027fc:	f8b43823          	sd	a1,-112(s0)
    80002800:	f8c43423          	sd	a2,-120(s0)
    80002804:	f8d43023          	sd	a3,-128(s0)
    80002808:	f6e43c23          	sd	a4,-136(s0)
    8000280c:	f9843503          	ld	a0,-104(s0)
    80002810:	ef8ff0ef          	jal	ra,80001f08 <qlz_size_header>
    80002814:	00050713          	mv	a4,a0
    80002818:	f9843783          	ld	a5,-104(s0)
    8000281c:	00e787b3          	add	a5,a5,a4
    80002820:	fef43423          	sd	a5,-24(s0)
    80002824:	f9043783          	ld	a5,-112(s0)
    80002828:	fef43023          	sd	a5,-32(s0)
    8000282c:	f8843783          	ld	a5,-120(s0)
    80002830:	fff78793          	addi	a5,a5,-1 # ffffffff7fffffff <_pmem_end+0xfffffffef7ffffff>
    80002834:	f9043703          	ld	a4,-112(s0)
    80002838:	00f707b3          	add	a5,a4,a5
    8000283c:	fcf43823          	sd	a5,-48(s0)
    80002840:	00100793          	li	a5,1
    80002844:	fcf42e23          	sw	a5,-36(s0)
    80002848:	fd043783          	ld	a5,-48(s0)
    8000284c:	ff678793          	addi	a5,a5,-10
    80002850:	fcf43423          	sd	a5,-56(s0)
    80002854:	f9043783          	ld	a5,-112(s0)
    80002858:	fff78793          	addi	a5,a5,-1
    8000285c:	faf43023          	sd	a5,-96(s0)
    80002860:	f9843503          	ld	a0,-104(s0)
    80002864:	dfcff0ef          	jal	ra,80001e60 <qlz_size_compressed>
    80002868:	00050793          	mv	a5,a0
    8000286c:	fff78793          	addi	a5,a5,-1
    80002870:	f9843703          	ld	a4,-104(s0)
    80002874:	00f707b3          	add	a5,a4,a5
    80002878:	fcf43023          	sd	a5,-64(s0)
    8000287c:	fdc42783          	lw	a5,-36(s0)
    80002880:	0007871b          	sext.w	a4,a5
    80002884:	00100793          	li	a5,1
    80002888:	02f71263          	bne	a4,a5,800028ac <qlz_decompress_core+0xc4>
    8000288c:	00400593          	li	a1,4
    80002890:	fe843503          	ld	a0,-24(s0)
    80002894:	bacff0ef          	jal	ra,80001c40 <fast_read>
    80002898:	00050793          	mv	a5,a0
    8000289c:	fcf42e23          	sw	a5,-36(s0)
    800028a0:	fe843783          	ld	a5,-24(s0)
    800028a4:	00478793          	addi	a5,a5,4
    800028a8:	fef43423          	sd	a5,-24(s0)
    800028ac:	00400593          	li	a1,4
    800028b0:	fe843503          	ld	a0,-24(s0)
    800028b4:	b8cff0ef          	jal	ra,80001c40 <fast_read>
    800028b8:	00050793          	mv	a5,a0
    800028bc:	faf42e23          	sw	a5,-68(s0)
    800028c0:	fdc42783          	lw	a5,-36(s0)
    800028c4:	0017f793          	andi	a5,a5,1
    800028c8:	0007879b          	sext.w	a5,a5
    800028cc:	10078663          	beqz	a5,800029d8 <qlz_decompress_core+0x1f0>
    800028d0:	fdc42783          	lw	a5,-36(s0)
    800028d4:	0017d79b          	srliw	a5,a5,0x1
    800028d8:	fcf42e23          	sw	a5,-36(s0)
    800028dc:	fbc42783          	lw	a5,-68(s0)
    800028e0:	0057d79b          	srliw	a5,a5,0x5
    800028e4:	0007879b          	sext.w	a5,a5
    800028e8:	7ff7f793          	andi	a5,a5,2047
    800028ec:	faf42a23          	sw	a5,-76(s0)
    800028f0:	fbc42783          	lw	a5,-68(s0)
    800028f4:	0ff7f793          	zext.b	a5,a5
    800028f8:	0037f793          	andi	a5,a5,3
    800028fc:	faf409a3          	sb	a5,-77(s0)
    80002900:	fb344783          	lbu	a5,-77(s0)
    80002904:	0007879b          	sext.w	a5,a5
    80002908:	f8043703          	ld	a4,-128(s0)
    8000290c:	fb446683          	lwu	a3,-76(s0)
    80002910:	00269693          	slli	a3,a3,0x2
    80002914:	00f687b3          	add	a5,a3,a5
    80002918:	00379793          	slli	a5,a5,0x3
    8000291c:	00f707b3          	add	a5,a4,a5
    80002920:	0007b783          	ld	a5,0(a5)
    80002924:	faf43423          	sd	a5,-88(s0)
    80002928:	fbc42783          	lw	a5,-68(s0)
    8000292c:	01c7f793          	andi	a5,a5,28
    80002930:	0007879b          	sext.w	a5,a5
    80002934:	02078863          	beqz	a5,80002964 <qlz_decompress_core+0x17c>
    80002938:	fbc42783          	lw	a5,-68(s0)
    8000293c:	0027d79b          	srliw	a5,a5,0x2
    80002940:	0007879b          	sext.w	a5,a5
    80002944:	0077f793          	andi	a5,a5,7
    80002948:	0007879b          	sext.w	a5,a5
    8000294c:	0027879b          	addiw	a5,a5,2
    80002950:	fcf42c23          	sw	a5,-40(s0)
    80002954:	fe843783          	ld	a5,-24(s0)
    80002958:	00278793          	addi	a5,a5,2
    8000295c:	fef43423          	sd	a5,-24(s0)
    80002960:	0200006f          	j	80002980 <qlz_decompress_core+0x198>
    80002964:	fe843783          	ld	a5,-24(s0)
    80002968:	00278793          	addi	a5,a5,2
    8000296c:	0007c783          	lbu	a5,0(a5)
    80002970:	fcf42c23          	sw	a5,-40(s0)
    80002974:	fe843783          	ld	a5,-24(s0)
    80002978:	00378793          	addi	a5,a5,3
    8000297c:	fef43423          	sd	a5,-24(s0)
    80002980:	fd842783          	lw	a5,-40(s0)
    80002984:	00078613          	mv	a2,a5
    80002988:	fa843583          	ld	a1,-88(s0)
    8000298c:	fe043503          	ld	a0,-32(s0)
    80002990:	dc4ff0ef          	jal	ra,80001f54 <memcpy_up>
    80002994:	fd846783          	lwu	a5,-40(s0)
    80002998:	fe043703          	ld	a4,-32(s0)
    8000299c:	00f707b3          	add	a5,a4,a5
    800029a0:	fef43023          	sd	a5,-32(s0)
    800029a4:	fd846783          	lwu	a5,-40(s0)
    800029a8:	40f007b3          	neg	a5,a5
    800029ac:	fe043703          	ld	a4,-32(s0)
    800029b0:	00f70733          	add	a4,a4,a5
    800029b4:	fa040793          	addi	a5,s0,-96
    800029b8:	00070613          	mv	a2,a4
    800029bc:	00078593          	mv	a1,a5
    800029c0:	f8043503          	ld	a0,-128(s0)
    800029c4:	e80ff0ef          	jal	ra,80002044 <update_hash_upto>
    800029c8:	fe043783          	ld	a5,-32(s0)
    800029cc:	fff78793          	addi	a5,a5,-1
    800029d0:	faf43023          	sd	a5,-96(s0)
    800029d4:	ea9ff06f          	j	8000287c <qlz_decompress_core+0x94>
    800029d8:	fe043703          	ld	a4,-32(s0)
    800029dc:	fc843783          	ld	a5,-56(s0)
    800029e0:	0ef77463          	bgeu	a4,a5,80002ac8 <qlz_decompress_core+0x2e0>
    800029e4:	fdc42783          	lw	a5,-36(s0)
    800029e8:	00f7f793          	andi	a5,a5,15
    800029ec:	0007879b          	sext.w	a5,a5
    800029f0:	00009717          	auipc	a4,0x9
    800029f4:	ce070713          	addi	a4,a4,-800 # 8000b6d0 <bitlut.0>
    800029f8:	02079793          	slli	a5,a5,0x20
    800029fc:	0207d793          	srli	a5,a5,0x20
    80002a00:	00279793          	slli	a5,a5,0x2
    80002a04:	00f707b3          	add	a5,a4,a5
    80002a08:	0007a783          	lw	a5,0(a5)
    80002a0c:	faf42c23          	sw	a5,-72(s0)
    80002a10:	00400613          	li	a2,4
    80002a14:	fe843583          	ld	a1,-24(s0)
    80002a18:	fe043503          	ld	a0,-32(s0)
    80002a1c:	d38ff0ef          	jal	ra,80001f54 <memcpy_up>
    80002a20:	fb842783          	lw	a5,-72(s0)
    80002a24:	fdc42703          	lw	a4,-36(s0)
    80002a28:	00f757bb          	srlw	a5,a4,a5
    80002a2c:	fcf42e23          	sw	a5,-36(s0)
    80002a30:	fb846783          	lwu	a5,-72(s0)
    80002a34:	fe043703          	ld	a4,-32(s0)
    80002a38:	00f707b3          	add	a5,a4,a5
    80002a3c:	fef43023          	sd	a5,-32(s0)
    80002a40:	fb846783          	lwu	a5,-72(s0)
    80002a44:	fe843703          	ld	a4,-24(s0)
    80002a48:	00f707b3          	add	a5,a4,a5
    80002a4c:	fef43423          	sd	a5,-24(s0)
    80002a50:	fe043783          	ld	a5,-32(s0)
    80002a54:	ffd78713          	addi	a4,a5,-3
    80002a58:	fa040793          	addi	a5,s0,-96
    80002a5c:	00070613          	mv	a2,a4
    80002a60:	00078593          	mv	a1,a5
    80002a64:	f8043503          	ld	a0,-128(s0)
    80002a68:	ddcff0ef          	jal	ra,80002044 <update_hash_upto>
    80002a6c:	e11ff06f          	j	8000287c <qlz_decompress_core+0x94>
    80002a70:	fdc42783          	lw	a5,-36(s0)
    80002a74:	0007871b          	sext.w	a4,a5
    80002a78:	00100793          	li	a5,1
    80002a7c:	00f71c63          	bne	a4,a5,80002a94 <qlz_decompress_core+0x2ac>
    80002a80:	fe843783          	ld	a5,-24(s0)
    80002a84:	00478793          	addi	a5,a5,4
    80002a88:	fef43423          	sd	a5,-24(s0)
    80002a8c:	800007b7          	lui	a5,0x80000
    80002a90:	fcf42e23          	sw	a5,-36(s0)
    80002a94:	fe843783          	ld	a5,-24(s0)
    80002a98:	0007c703          	lbu	a4,0(a5) # ffffffff80000000 <_pmem_end+0xfffffffef8000000>
    80002a9c:	fe043783          	ld	a5,-32(s0)
    80002aa0:	00e78023          	sb	a4,0(a5)
    80002aa4:	fe043783          	ld	a5,-32(s0)
    80002aa8:	00178793          	addi	a5,a5,1
    80002aac:	fef43023          	sd	a5,-32(s0)
    80002ab0:	fe843783          	ld	a5,-24(s0)
    80002ab4:	00178793          	addi	a5,a5,1
    80002ab8:	fef43423          	sd	a5,-24(s0)
    80002abc:	fdc42783          	lw	a5,-36(s0)
    80002ac0:	0017d79b          	srliw	a5,a5,0x1
    80002ac4:	fcf42e23          	sw	a5,-36(s0)
    80002ac8:	fe043703          	ld	a4,-32(s0)
    80002acc:	fd043783          	ld	a5,-48(s0)
    80002ad0:	fae7f0e3          	bgeu	a5,a4,80002a70 <qlz_decompress_core+0x288>
    80002ad4:	fd043783          	ld	a5,-48(s0)
    80002ad8:	ffd78713          	addi	a4,a5,-3
    80002adc:	fa040793          	addi	a5,s0,-96
    80002ae0:	00070613          	mv	a2,a4
    80002ae4:	00078593          	mv	a1,a5
    80002ae8:	f8043503          	ld	a0,-128(s0)
    80002aec:	d58ff0ef          	jal	ra,80002044 <update_hash_upto>
    80002af0:	f8843783          	ld	a5,-120(s0)
    80002af4:	00078513          	mv	a0,a5
    80002af8:	08813083          	ld	ra,136(sp)
    80002afc:	08013403          	ld	s0,128(sp)
    80002b00:	09010113          	addi	sp,sp,144
    80002b04:	00008067          	ret

0000000080002b08 <qlz_compress>:
    80002b08:	fb010113          	addi	sp,sp,-80
    80002b0c:	04113423          	sd	ra,72(sp)
    80002b10:	04813023          	sd	s0,64(sp)
    80002b14:	05010413          	addi	s0,sp,80
    80002b18:	fca43423          	sd	a0,-56(s0)
    80002b1c:	fcb43023          	sd	a1,-64(s0)
    80002b20:	fac43c23          	sd	a2,-72(s0)
    80002b24:	fad43823          	sd	a3,-80(s0)
    80002b28:	fb843783          	ld	a5,-72(s0)
    80002b2c:	00078c63          	beqz	a5,80002b44 <qlz_compress+0x3c>
    80002b30:	fb843703          	ld	a4,-72(s0)
    80002b34:	00100793          	li	a5,1
    80002b38:	02079793          	slli	a5,a5,0x20
    80002b3c:	e6f78793          	addi	a5,a5,-401
    80002b40:	00e7f663          	bgeu	a5,a4,80002b4c <qlz_compress+0x44>
    80002b44:	00000793          	li	a5,0
    80002b48:	1900006f          	j	80002cd8 <qlz_compress+0x1d0>
    80002b4c:	fb843703          	ld	a4,-72(s0)
    80002b50:	0d700793          	li	a5,215
    80002b54:	00e7e863          	bltu	a5,a4,80002b64 <qlz_compress+0x5c>
    80002b58:	00300793          	li	a5,3
    80002b5c:	fcf43c23          	sd	a5,-40(s0)
    80002b60:	00c0006f          	j	80002b6c <qlz_compress+0x64>
    80002b64:	00900793          	li	a5,9
    80002b68:	fcf43c23          	sd	a5,-40(s0)
    80002b6c:	fb043503          	ld	a0,-80(s0)
    80002b70:	fb9fe0ef          	jal	ra,80001b28 <reset_table_compress>
    80002b74:	fc043703          	ld	a4,-64(s0)
    80002b78:	fd843783          	ld	a5,-40(s0)
    80002b7c:	00f707b3          	add	a5,a4,a5
    80002b80:	fb043683          	ld	a3,-80(s0)
    80002b84:	fb843603          	ld	a2,-72(s0)
    80002b88:	00078593          	mv	a1,a5
    80002b8c:	fc843503          	ld	a0,-56(s0)
    80002b90:	d24ff0ef          	jal	ra,800020b4 <qlz_compress_core>
    80002b94:	00050713          	mv	a4,a0
    80002b98:	fd843783          	ld	a5,-40(s0)
    80002b9c:	00e787b3          	add	a5,a5,a4
    80002ba0:	fef43423          	sd	a5,-24(s0)
    80002ba4:	fe843703          	ld	a4,-24(s0)
    80002ba8:	fd843783          	ld	a5,-40(s0)
    80002bac:	02f71c63          	bne	a4,a5,80002be4 <qlz_compress+0xdc>
    80002bb0:	fc043703          	ld	a4,-64(s0)
    80002bb4:	fd843783          	ld	a5,-40(s0)
    80002bb8:	00f707b3          	add	a5,a4,a5
    80002bbc:	fb843603          	ld	a2,-72(s0)
    80002bc0:	fc843583          	ld	a1,-56(s0)
    80002bc4:	00078513          	mv	a0,a5
    80002bc8:	d8dfe0ef          	jal	ra,80001954 <bench_memcpy>
    80002bcc:	fb843703          	ld	a4,-72(s0)
    80002bd0:	fd843783          	ld	a5,-40(s0)
    80002bd4:	00f707b3          	add	a5,a4,a5
    80002bd8:	fef43423          	sd	a5,-24(s0)
    80002bdc:	fe042223          	sw	zero,-28(s0)
    80002be0:	00c0006f          	j	80002bec <qlz_compress+0xe4>
    80002be4:	00100793          	li	a5,1
    80002be8:	fef42223          	sw	a5,-28(s0)
    80002bec:	fb043783          	ld	a5,-80(s0)
    80002bf0:	0007b023          	sd	zero,0(a5)
    80002bf4:	fd843703          	ld	a4,-40(s0)
    80002bf8:	00300793          	li	a5,3
    80002bfc:	04f71063          	bne	a4,a5,80002c3c <qlz_compress+0x134>
    80002c00:	fe442783          	lw	a5,-28(s0)
    80002c04:	0ff7f713          	zext.b	a4,a5
    80002c08:	fc043783          	ld	a5,-64(s0)
    80002c0c:	00e78023          	sb	a4,0(a5)
    80002c10:	fc043783          	ld	a5,-64(s0)
    80002c14:	00178793          	addi	a5,a5,1
    80002c18:	fe843703          	ld	a4,-24(s0)
    80002c1c:	0ff77713          	zext.b	a4,a4
    80002c20:	00e78023          	sb	a4,0(a5)
    80002c24:	fc043783          	ld	a5,-64(s0)
    80002c28:	00278793          	addi	a5,a5,2
    80002c2c:	fb843703          	ld	a4,-72(s0)
    80002c30:	0ff77713          	zext.b	a4,a4
    80002c34:	00e78023          	sb	a4,0(a5)
    80002c38:	05c0006f          	j	80002c94 <qlz_compress+0x18c>
    80002c3c:	fe442783          	lw	a5,-28(s0)
    80002c40:	0ff7f793          	zext.b	a5,a5
    80002c44:	0027e793          	ori	a5,a5,2
    80002c48:	0ff7f713          	zext.b	a4,a5
    80002c4c:	fc043783          	ld	a5,-64(s0)
    80002c50:	00e78023          	sb	a4,0(a5)
    80002c54:	fe843783          	ld	a5,-24(s0)
    80002c58:	0007871b          	sext.w	a4,a5
    80002c5c:	fc043783          	ld	a5,-64(s0)
    80002c60:	00178793          	addi	a5,a5,1
    80002c64:	00400613          	li	a2,4
    80002c68:	00078593          	mv	a1,a5
    80002c6c:	00070513          	mv	a0,a4
    80002c70:	8d0ff0ef          	jal	ra,80001d40 <fast_write>
    80002c74:	fb843783          	ld	a5,-72(s0)
    80002c78:	0007871b          	sext.w	a4,a5
    80002c7c:	fc043783          	ld	a5,-64(s0)
    80002c80:	00578793          	addi	a5,a5,5
    80002c84:	00400613          	li	a2,4
    80002c88:	00078593          	mv	a1,a5
    80002c8c:	00070513          	mv	a0,a4
    80002c90:	8b0ff0ef          	jal	ra,80001d40 <fast_write>
    80002c94:	fc043783          	ld	a5,-64(s0)
    80002c98:	0007c783          	lbu	a5,0(a5)
    80002c9c:	0087e793          	ori	a5,a5,8
    80002ca0:	0ff7f713          	zext.b	a4,a5
    80002ca4:	fc043783          	ld	a5,-64(s0)
    80002ca8:	00e78023          	sb	a4,0(a5)
    80002cac:	fc043783          	ld	a5,-64(s0)
    80002cb0:	0007c783          	lbu	a5,0(a5)
    80002cb4:	0407e793          	ori	a5,a5,64
    80002cb8:	0ff7f713          	zext.b	a4,a5
    80002cbc:	fc043783          	ld	a5,-64(s0)
    80002cc0:	00e78023          	sb	a4,0(a5)
    80002cc4:	fc043783          	ld	a5,-64(s0)
    80002cc8:	0007c703          	lbu	a4,0(a5)
    80002ccc:	fc043783          	ld	a5,-64(s0)
    80002cd0:	00e78023          	sb	a4,0(a5)
    80002cd4:	fe843783          	ld	a5,-24(s0)
    80002cd8:	00078513          	mv	a0,a5
    80002cdc:	04813083          	ld	ra,72(sp)
    80002ce0:	04013403          	ld	s0,64(sp)
    80002ce4:	05010113          	addi	sp,sp,80
    80002ce8:	00008067          	ret

0000000080002cec <qlz_decompress>:
    80002cec:	fc010113          	addi	sp,sp,-64
    80002cf0:	02113c23          	sd	ra,56(sp)
    80002cf4:	02813823          	sd	s0,48(sp)
    80002cf8:	04010413          	addi	s0,sp,64
    80002cfc:	fca43c23          	sd	a0,-40(s0)
    80002d00:	fcb43823          	sd	a1,-48(s0)
    80002d04:	fcc43423          	sd	a2,-56(s0)
    80002d08:	fd843503          	ld	a0,-40(s0)
    80002d0c:	8a4ff0ef          	jal	ra,80001db0 <qlz_size_decompressed>
    80002d10:	fea43423          	sd	a0,-24(s0)
    80002d14:	fd843783          	ld	a5,-40(s0)
    80002d18:	0007c783          	lbu	a5,0(a5)
    80002d1c:	0007879b          	sext.w	a5,a5
    80002d20:	0017f793          	andi	a5,a5,1
    80002d24:	0007879b          	sext.w	a5,a5
    80002d28:	02078663          	beqz	a5,80002d54 <qlz_decompress+0x68>
    80002d2c:	fc843503          	ld	a0,-56(s0)
    80002d30:	e59fe0ef          	jal	ra,80001b88 <reset_table_decompress>
    80002d34:	fd043703          	ld	a4,-48(s0)
    80002d38:	fc843683          	ld	a3,-56(s0)
    80002d3c:	fe843603          	ld	a2,-24(s0)
    80002d40:	fd043583          	ld	a1,-48(s0)
    80002d44:	fd843503          	ld	a0,-40(s0)
    80002d48:	aa1ff0ef          	jal	ra,800027e8 <qlz_decompress_core>
    80002d4c:	fea43423          	sd	a0,-24(s0)
    80002d50:	0280006f          	j	80002d78 <qlz_decompress+0x8c>
    80002d54:	fd843503          	ld	a0,-40(s0)
    80002d58:	9b0ff0ef          	jal	ra,80001f08 <qlz_size_header>
    80002d5c:	00050713          	mv	a4,a0
    80002d60:	fd843783          	ld	a5,-40(s0)
    80002d64:	00e787b3          	add	a5,a5,a4
    80002d68:	fe843603          	ld	a2,-24(s0)
    80002d6c:	00078593          	mv	a1,a5
    80002d70:	fd043503          	ld	a0,-48(s0)
    80002d74:	be1fe0ef          	jal	ra,80001954 <bench_memcpy>
    80002d78:	fc843703          	ld	a4,-56(s0)
    80002d7c:	000117b7          	lui	a5,0x11
    80002d80:	00f707b3          	add	a5,a4,a5
    80002d84:	8007b023          	sd	zero,-2048(a5) # 10800 <_start-0x7ffef800>
    80002d88:	fc843503          	ld	a0,-56(s0)
    80002d8c:	dfdfe0ef          	jal	ra,80001b88 <reset_table_decompress>
    80002d90:	fe843783          	ld	a5,-24(s0)
    80002d94:	00078513          	mv	a0,a5
    80002d98:	03813083          	ld	ra,56(sp)
    80002d9c:	03013403          	ld	s0,48(sp)
    80002da0:	04010113          	addi	sp,sp,64
    80002da4:	00008067          	ret

0000000080002da8 <bench_lzip_prepare>:
    80002da8:	fe010113          	addi	sp,sp,-32
    80002dac:	00113c23          	sd	ra,24(sp)
    80002db0:	00813823          	sd	s0,16(sp)
    80002db4:	02010413          	addi	s0,sp,32
    80002db8:	00009797          	auipc	a5,0x9
    80002dbc:	5a078793          	addi	a5,a5,1440 # 8000c358 <setting>
    80002dc0:	0007b783          	ld	a5,0(a5)
    80002dc4:	0007a703          	lw	a4,0(a5)
    80002dc8:	00009797          	auipc	a5,0x9
    80002dcc:	4d878793          	addi	a5,a5,1240 # 8000c2a0 <SIZE>
    80002dd0:	00e7a023          	sw	a4,0(a5)
    80002dd4:	00100513          	li	a0,1
    80002dd8:	9b5fd0ef          	jal	ra,8000078c <bench_srand>
    80002ddc:	000117b7          	lui	a5,0x11
    80002de0:	80878513          	addi	a0,a5,-2040 # 10808 <_start-0x7ffef7f8>
    80002de4:	835fd0ef          	jal	ra,80000618 <bench_alloc>
    80002de8:	00050713          	mv	a4,a0
    80002dec:	00009797          	auipc	a5,0x9
    80002df0:	4bc78793          	addi	a5,a5,1212 # 8000c2a8 <state>
    80002df4:	00e7b023          	sd	a4,0(a5)
    80002df8:	00009797          	auipc	a5,0x9
    80002dfc:	4a878793          	addi	a5,a5,1192 # 8000c2a0 <SIZE>
    80002e00:	0007a783          	lw	a5,0(a5)
    80002e04:	00078513          	mv	a0,a5
    80002e08:	811fd0ef          	jal	ra,80000618 <bench_alloc>
    80002e0c:	00050713          	mv	a4,a0
    80002e10:	00009797          	auipc	a5,0x9
    80002e14:	4a078793          	addi	a5,a5,1184 # 8000c2b0 <blk>
    80002e18:	00e7b023          	sd	a4,0(a5)
    80002e1c:	00009797          	auipc	a5,0x9
    80002e20:	48478793          	addi	a5,a5,1156 # 8000c2a0 <SIZE>
    80002e24:	0007a783          	lw	a5,0(a5)
    80002e28:	1907879b          	addiw	a5,a5,400
    80002e2c:	0007879b          	sext.w	a5,a5
    80002e30:	00078513          	mv	a0,a5
    80002e34:	fe4fd0ef          	jal	ra,80000618 <bench_alloc>
    80002e38:	00050713          	mv	a4,a0
    80002e3c:	00009797          	auipc	a5,0x9
    80002e40:	47c78793          	addi	a5,a5,1148 # 8000c2b8 <compress>
    80002e44:	00e7b023          	sd	a4,0(a5)
    80002e48:	fe042623          	sw	zero,-20(s0)
    80002e4c:	0500006f          	j	80002e9c <bench_lzip_prepare+0xf4>
    80002e50:	981fd0ef          	jal	ra,800007d0 <bench_rand>
    80002e54:	00050793          	mv	a5,a0
    80002e58:	0007879b          	sext.w	a5,a5
    80002e5c:	00078713          	mv	a4,a5
    80002e60:	01a00793          	li	a5,26
    80002e64:	02f777bb          	remuw	a5,a4,a5
    80002e68:	0007879b          	sext.w	a5,a5
    80002e6c:	0ff7f713          	zext.b	a4,a5
    80002e70:	00009797          	auipc	a5,0x9
    80002e74:	44078793          	addi	a5,a5,1088 # 8000c2b0 <blk>
    80002e78:	0007b683          	ld	a3,0(a5)
    80002e7c:	fec42783          	lw	a5,-20(s0)
    80002e80:	00f687b3          	add	a5,a3,a5
    80002e84:	0617071b          	addiw	a4,a4,97
    80002e88:	0ff77713          	zext.b	a4,a4
    80002e8c:	00e78023          	sb	a4,0(a5)
    80002e90:	fec42783          	lw	a5,-20(s0)
    80002e94:	0017879b          	addiw	a5,a5,1
    80002e98:	fef42623          	sw	a5,-20(s0)
    80002e9c:	00009797          	auipc	a5,0x9
    80002ea0:	40478793          	addi	a5,a5,1028 # 8000c2a0 <SIZE>
    80002ea4:	0007a703          	lw	a4,0(a5)
    80002ea8:	fec42783          	lw	a5,-20(s0)
    80002eac:	0007879b          	sext.w	a5,a5
    80002eb0:	fae7c0e3          	blt	a5,a4,80002e50 <bench_lzip_prepare+0xa8>
    80002eb4:	00000013          	nop
    80002eb8:	00000013          	nop
    80002ebc:	01813083          	ld	ra,24(sp)
    80002ec0:	01013403          	ld	s0,16(sp)
    80002ec4:	02010113          	addi	sp,sp,32
    80002ec8:	00008067          	ret

0000000080002ecc <bench_lzip_run>:
    80002ecc:	ff010113          	addi	sp,sp,-16
    80002ed0:	00113423          	sd	ra,8(sp)
    80002ed4:	00813023          	sd	s0,0(sp)
    80002ed8:	01010413          	addi	s0,sp,16
    80002edc:	00009797          	auipc	a5,0x9
    80002ee0:	3d478793          	addi	a5,a5,980 # 8000c2b0 <blk>
    80002ee4:	0007b703          	ld	a4,0(a5)
    80002ee8:	00009797          	auipc	a5,0x9
    80002eec:	3d078793          	addi	a5,a5,976 # 8000c2b8 <compress>
    80002ef0:	0007b583          	ld	a1,0(a5)
    80002ef4:	00009797          	auipc	a5,0x9
    80002ef8:	3ac78793          	addi	a5,a5,940 # 8000c2a0 <SIZE>
    80002efc:	0007a783          	lw	a5,0(a5)
    80002f00:	00078613          	mv	a2,a5
    80002f04:	00009797          	auipc	a5,0x9
    80002f08:	3a478793          	addi	a5,a5,932 # 8000c2a8 <state>
    80002f0c:	0007b783          	ld	a5,0(a5)
    80002f10:	00078693          	mv	a3,a5
    80002f14:	00070513          	mv	a0,a4
    80002f18:	bf1ff0ef          	jal	ra,80002b08 <qlz_compress>
    80002f1c:	00050793          	mv	a5,a0
    80002f20:	0007871b          	sext.w	a4,a5
    80002f24:	00009797          	auipc	a5,0x9
    80002f28:	39c78793          	addi	a5,a5,924 # 8000c2c0 <len>
    80002f2c:	00e7a023          	sw	a4,0(a5)
    80002f30:	00000013          	nop
    80002f34:	00813083          	ld	ra,8(sp)
    80002f38:	00013403          	ld	s0,0(sp)
    80002f3c:	01010113          	addi	sp,sp,16
    80002f40:	00008067          	ret

0000000080002f44 <bench_lzip_validate>:
    80002f44:	ff010113          	addi	sp,sp,-16
    80002f48:	00113423          	sd	ra,8(sp)
    80002f4c:	00813023          	sd	s0,0(sp)
    80002f50:	01010413          	addi	s0,sp,16
    80002f54:	00009797          	auipc	a5,0x9
    80002f58:	36478793          	addi	a5,a5,868 # 8000c2b8 <compress>
    80002f5c:	0007b683          	ld	a3,0(a5)
    80002f60:	00009797          	auipc	a5,0x9
    80002f64:	35878793          	addi	a5,a5,856 # 8000c2b8 <compress>
    80002f68:	0007b783          	ld	a5,0(a5)
    80002f6c:	00009717          	auipc	a4,0x9
    80002f70:	35470713          	addi	a4,a4,852 # 8000c2c0 <len>
    80002f74:	00072703          	lw	a4,0(a4)
    80002f78:	00e787b3          	add	a5,a5,a4
    80002f7c:	00078593          	mv	a1,a5
    80002f80:	00068513          	mv	a0,a3
    80002f84:	8c9fd0ef          	jal	ra,8000084c <checksum>
    80002f88:	00050793          	mv	a5,a0
    80002f8c:	0007871b          	sext.w	a4,a5
    80002f90:	00009797          	auipc	a5,0x9
    80002f94:	3c878793          	addi	a5,a5,968 # 8000c358 <setting>
    80002f98:	0007b783          	ld	a5,0(a5)
    80002f9c:	0187a783          	lw	a5,24(a5)
    80002fa0:	40f707b3          	sub	a5,a4,a5
    80002fa4:	0017b793          	seqz	a5,a5
    80002fa8:	0ff7f793          	zext.b	a5,a5
    80002fac:	0007879b          	sext.w	a5,a5
    80002fb0:	00078513          	mv	a0,a5
    80002fb4:	00813083          	ld	ra,8(sp)
    80002fb8:	00013403          	ld	s0,0(sp)
    80002fbc:	01010113          	addi	sp,sp,16
    80002fc0:	00008067          	ret

0000000080002fc4 <dfs>:
    80002fc4:	fd010113          	addi	sp,sp,-48
    80002fc8:	02113423          	sd	ra,40(sp)
    80002fcc:	02813023          	sd	s0,32(sp)
    80002fd0:	03010413          	addi	s0,sp,48
    80002fd4:	00050793          	mv	a5,a0
    80002fd8:	00058693          	mv	a3,a1
    80002fdc:	00060713          	mv	a4,a2
    80002fe0:	fcf42e23          	sw	a5,-36(s0)
    80002fe4:	00068793          	mv	a5,a3
    80002fe8:	fcf42c23          	sw	a5,-40(s0)
    80002fec:	00070793          	mv	a5,a4
    80002ff0:	fcf42a23          	sw	a5,-44(s0)
    80002ff4:	00009797          	auipc	a5,0x9
    80002ff8:	2d078793          	addi	a5,a5,720 # 8000c2c4 <FULL>
    80002ffc:	0007a703          	lw	a4,0(a5)
    80003000:	fdc42783          	lw	a5,-36(s0)
    80003004:	0007879b          	sext.w	a5,a5
    80003008:	00e79663          	bne	a5,a4,80003014 <dfs+0x50>
    8000300c:	00100793          	li	a5,1
    80003010:	0dc0006f          	j	800030ec <dfs+0x128>
    80003014:	fdc42703          	lw	a4,-36(s0)
    80003018:	fd842783          	lw	a5,-40(s0)
    8000301c:	00f767b3          	or	a5,a4,a5
    80003020:	0007871b          	sext.w	a4,a5
    80003024:	fd442783          	lw	a5,-44(s0)
    80003028:	00e7e7b3          	or	a5,a5,a4
    8000302c:	0007879b          	sext.w	a5,a5
    80003030:	fff7c793          	not	a5,a5
    80003034:	0007871b          	sext.w	a4,a5
    80003038:	00009797          	auipc	a5,0x9
    8000303c:	28c78793          	addi	a5,a5,652 # 8000c2c4 <FULL>
    80003040:	0007a783          	lw	a5,0(a5)
    80003044:	00f777b3          	and	a5,a4,a5
    80003048:	fef42623          	sw	a5,-20(s0)
    8000304c:	fe042423          	sw	zero,-24(s0)
    80003050:	08c0006f          	j	800030dc <dfs+0x118>
    80003054:	fec42783          	lw	a5,-20(s0)
    80003058:	40f007bb          	negw	a5,a5
    8000305c:	0007871b          	sext.w	a4,a5
    80003060:	fec42783          	lw	a5,-20(s0)
    80003064:	00e7f7b3          	and	a5,a5,a4
    80003068:	fef42223          	sw	a5,-28(s0)
    8000306c:	fec42703          	lw	a4,-20(s0)
    80003070:	fe442783          	lw	a5,-28(s0)
    80003074:	40f707bb          	subw	a5,a4,a5
    80003078:	fef42623          	sw	a5,-20(s0)
    8000307c:	fdc42703          	lw	a4,-36(s0)
    80003080:	fe442783          	lw	a5,-28(s0)
    80003084:	00f767b3          	or	a5,a4,a5
    80003088:	0007869b          	sext.w	a3,a5
    8000308c:	fd842703          	lw	a4,-40(s0)
    80003090:	fe442783          	lw	a5,-28(s0)
    80003094:	00f767b3          	or	a5,a4,a5
    80003098:	0007879b          	sext.w	a5,a5
    8000309c:	0017979b          	slliw	a5,a5,0x1
    800030a0:	0007859b          	sext.w	a1,a5
    800030a4:	fd442703          	lw	a4,-44(s0)
    800030a8:	fe442783          	lw	a5,-28(s0)
    800030ac:	00f767b3          	or	a5,a4,a5
    800030b0:	0007879b          	sext.w	a5,a5
    800030b4:	0017d79b          	srliw	a5,a5,0x1
    800030b8:	0007879b          	sext.w	a5,a5
    800030bc:	00078613          	mv	a2,a5
    800030c0:	00068513          	mv	a0,a3
    800030c4:	f01ff0ef          	jal	ra,80002fc4 <dfs>
    800030c8:	00050793          	mv	a5,a0
    800030cc:	0007879b          	sext.w	a5,a5
    800030d0:	fe842703          	lw	a4,-24(s0)
    800030d4:	00f707bb          	addw	a5,a4,a5
    800030d8:	fef42423          	sw	a5,-24(s0)
    800030dc:	fec42783          	lw	a5,-20(s0)
    800030e0:	0007879b          	sext.w	a5,a5
    800030e4:	f60798e3          	bnez	a5,80003054 <dfs+0x90>
    800030e8:	fe842783          	lw	a5,-24(s0)
    800030ec:	00078513          	mv	a0,a5
    800030f0:	02813083          	ld	ra,40(sp)
    800030f4:	02013403          	ld	s0,32(sp)
    800030f8:	03010113          	addi	sp,sp,48
    800030fc:	00008067          	ret

0000000080003100 <bench_queen_prepare>:
    80003100:	ff010113          	addi	sp,sp,-16
    80003104:	00813423          	sd	s0,8(sp)
    80003108:	01010413          	addi	s0,sp,16
    8000310c:	00009797          	auipc	a5,0x9
    80003110:	1bc78793          	addi	a5,a5,444 # 8000c2c8 <ans>
    80003114:	0007a023          	sw	zero,0(a5)
    80003118:	00009797          	auipc	a5,0x9
    8000311c:	24078793          	addi	a5,a5,576 # 8000c358 <setting>
    80003120:	0007b783          	ld	a5,0(a5)
    80003124:	0007a783          	lw	a5,0(a5)
    80003128:	00100713          	li	a4,1
    8000312c:	00f717bb          	sllw	a5,a4,a5
    80003130:	0007879b          	sext.w	a5,a5
    80003134:	fff7879b          	addiw	a5,a5,-1
    80003138:	0007879b          	sext.w	a5,a5
    8000313c:	0007871b          	sext.w	a4,a5
    80003140:	00009797          	auipc	a5,0x9
    80003144:	18478793          	addi	a5,a5,388 # 8000c2c4 <FULL>
    80003148:	00e7a023          	sw	a4,0(a5)
    8000314c:	00000013          	nop
    80003150:	00813403          	ld	s0,8(sp)
    80003154:	01010113          	addi	sp,sp,16
    80003158:	00008067          	ret

000000008000315c <bench_queen_run>:
    8000315c:	ff010113          	addi	sp,sp,-16
    80003160:	00113423          	sd	ra,8(sp)
    80003164:	00813023          	sd	s0,0(sp)
    80003168:	01010413          	addi	s0,sp,16
    8000316c:	00000613          	li	a2,0
    80003170:	00000593          	li	a1,0
    80003174:	00000513          	li	a0,0
    80003178:	e4dff0ef          	jal	ra,80002fc4 <dfs>
    8000317c:	00050793          	mv	a5,a0
    80003180:	0007871b          	sext.w	a4,a5
    80003184:	00009797          	auipc	a5,0x9
    80003188:	14478793          	addi	a5,a5,324 # 8000c2c8 <ans>
    8000318c:	00e7a023          	sw	a4,0(a5)
    80003190:	00000013          	nop
    80003194:	00813083          	ld	ra,8(sp)
    80003198:	00013403          	ld	s0,0(sp)
    8000319c:	01010113          	addi	sp,sp,16
    800031a0:	00008067          	ret

00000000800031a4 <bench_queen_validate>:
    800031a4:	ff010113          	addi	sp,sp,-16
    800031a8:	00813423          	sd	s0,8(sp)
    800031ac:	01010413          	addi	s0,sp,16
    800031b0:	00009797          	auipc	a5,0x9
    800031b4:	1a878793          	addi	a5,a5,424 # 8000c358 <setting>
    800031b8:	0007b783          	ld	a5,0(a5)
    800031bc:	0187a703          	lw	a4,24(a5)
    800031c0:	00009797          	auipc	a5,0x9
    800031c4:	10878793          	addi	a5,a5,264 # 8000c2c8 <ans>
    800031c8:	0007a783          	lw	a5,0(a5)
    800031cc:	40f707b3          	sub	a5,a4,a5
    800031d0:	0017b793          	seqz	a5,a5
    800031d4:	0ff7f793          	zext.b	a5,a5
    800031d8:	0007879b          	sext.w	a5,a5
    800031dc:	00078513          	mv	a0,a5
    800031e0:	00813403          	ld	s0,8(sp)
    800031e4:	01010113          	addi	sp,sp,16
    800031e8:	00008067          	ret

00000000800031ec <_ZL9radixPassPiS_S_ii>:
    800031ec:	fa010113          	addi	sp,sp,-96
    800031f0:	04113c23          	sd	ra,88(sp)
    800031f4:	04813823          	sd	s0,80(sp)
    800031f8:	06010413          	addi	s0,sp,96
    800031fc:	faa43c23          	sd	a0,-72(s0)
    80003200:	fab43823          	sd	a1,-80(s0)
    80003204:	fac43423          	sd	a2,-88(s0)
    80003208:	00068793          	mv	a5,a3
    8000320c:	faf42223          	sw	a5,-92(s0)
    80003210:	00070793          	mv	a5,a4
    80003214:	faf42023          	sw	a5,-96(s0)
    80003218:	fa042783          	lw	a5,-96(s0)
    8000321c:	0017879b          	addiw	a5,a5,1
    80003220:	0007879b          	sext.w	a5,a5
    80003224:	00279793          	slli	a5,a5,0x2
    80003228:	00078513          	mv	a0,a5
    8000322c:	becfd0ef          	jal	ra,80000618 <bench_alloc>
    80003230:	fca43823          	sd	a0,-48(s0)
    80003234:	fe042623          	sw	zero,-20(s0)
    80003238:	fec42703          	lw	a4,-20(s0)
    8000323c:	fa042783          	lw	a5,-96(s0)
    80003240:	0007071b          	sext.w	a4,a4
    80003244:	0007879b          	sext.w	a5,a5
    80003248:	02e7c463          	blt	a5,a4,80003270 <_ZL9radixPassPiS_S_ii+0x84>
    8000324c:	fec42783          	lw	a5,-20(s0)
    80003250:	00279793          	slli	a5,a5,0x2
    80003254:	fd043703          	ld	a4,-48(s0)
    80003258:	00f707b3          	add	a5,a4,a5
    8000325c:	0007a023          	sw	zero,0(a5)
    80003260:	fec42783          	lw	a5,-20(s0)
    80003264:	0017879b          	addiw	a5,a5,1
    80003268:	fef42623          	sw	a5,-20(s0)
    8000326c:	fcdff06f          	j	80003238 <_ZL9radixPassPiS_S_ii+0x4c>
    80003270:	fe042423          	sw	zero,-24(s0)
    80003274:	fe842703          	lw	a4,-24(s0)
    80003278:	fa442783          	lw	a5,-92(s0)
    8000327c:	0007071b          	sext.w	a4,a4
    80003280:	0007879b          	sext.w	a5,a5
    80003284:	04f75a63          	bge	a4,a5,800032d8 <_ZL9radixPassPiS_S_ii+0xec>
    80003288:	fe842783          	lw	a5,-24(s0)
    8000328c:	00279793          	slli	a5,a5,0x2
    80003290:	fb843703          	ld	a4,-72(s0)
    80003294:	00f707b3          	add	a5,a4,a5
    80003298:	0007a783          	lw	a5,0(a5)
    8000329c:	00279793          	slli	a5,a5,0x2
    800032a0:	fa843703          	ld	a4,-88(s0)
    800032a4:	00f707b3          	add	a5,a4,a5
    800032a8:	0007a783          	lw	a5,0(a5)
    800032ac:	00279793          	slli	a5,a5,0x2
    800032b0:	fd043703          	ld	a4,-48(s0)
    800032b4:	00f707b3          	add	a5,a4,a5
    800032b8:	0007a703          	lw	a4,0(a5)
    800032bc:	0017071b          	addiw	a4,a4,1
    800032c0:	0007071b          	sext.w	a4,a4
    800032c4:	00e7a023          	sw	a4,0(a5)
    800032c8:	fe842783          	lw	a5,-24(s0)
    800032cc:	0017879b          	addiw	a5,a5,1
    800032d0:	fef42423          	sw	a5,-24(s0)
    800032d4:	fa1ff06f          	j	80003274 <_ZL9radixPassPiS_S_ii+0x88>
    800032d8:	fe042223          	sw	zero,-28(s0)
    800032dc:	fe042023          	sw	zero,-32(s0)
    800032e0:	fe442703          	lw	a4,-28(s0)
    800032e4:	fa042783          	lw	a5,-96(s0)
    800032e8:	0007071b          	sext.w	a4,a4
    800032ec:	0007879b          	sext.w	a5,a5
    800032f0:	04e7ca63          	blt	a5,a4,80003344 <_ZL9radixPassPiS_S_ii+0x158>
    800032f4:	fe442783          	lw	a5,-28(s0)
    800032f8:	00279793          	slli	a5,a5,0x2
    800032fc:	fd043703          	ld	a4,-48(s0)
    80003300:	00f707b3          	add	a5,a4,a5
    80003304:	0007a783          	lw	a5,0(a5)
    80003308:	fcf42623          	sw	a5,-52(s0)
    8000330c:	fe442783          	lw	a5,-28(s0)
    80003310:	00279793          	slli	a5,a5,0x2
    80003314:	fd043703          	ld	a4,-48(s0)
    80003318:	00f707b3          	add	a5,a4,a5
    8000331c:	fe042703          	lw	a4,-32(s0)
    80003320:	00e7a023          	sw	a4,0(a5)
    80003324:	fe042703          	lw	a4,-32(s0)
    80003328:	fcc42783          	lw	a5,-52(s0)
    8000332c:	00f707bb          	addw	a5,a4,a5
    80003330:	fef42023          	sw	a5,-32(s0)
    80003334:	fe442783          	lw	a5,-28(s0)
    80003338:	0017879b          	addiw	a5,a5,1
    8000333c:	fef42223          	sw	a5,-28(s0)
    80003340:	fa1ff06f          	j	800032e0 <_ZL9radixPassPiS_S_ii+0xf4>
    80003344:	fc042e23          	sw	zero,-36(s0)
    80003348:	fdc42703          	lw	a4,-36(s0)
    8000334c:	fa442783          	lw	a5,-92(s0)
    80003350:	0007071b          	sext.w	a4,a4
    80003354:	0007879b          	sext.w	a5,a5
    80003358:	06f75e63          	bge	a4,a5,800033d4 <_ZL9radixPassPiS_S_ii+0x1e8>
    8000335c:	fdc42783          	lw	a5,-36(s0)
    80003360:	00279793          	slli	a5,a5,0x2
    80003364:	fb843703          	ld	a4,-72(s0)
    80003368:	00f706b3          	add	a3,a4,a5
    8000336c:	fdc42783          	lw	a5,-36(s0)
    80003370:	00279793          	slli	a5,a5,0x2
    80003374:	fb843703          	ld	a4,-72(s0)
    80003378:	00f707b3          	add	a5,a4,a5
    8000337c:	0007a783          	lw	a5,0(a5)
    80003380:	00279793          	slli	a5,a5,0x2
    80003384:	fa843703          	ld	a4,-88(s0)
    80003388:	00f707b3          	add	a5,a4,a5
    8000338c:	0007a783          	lw	a5,0(a5)
    80003390:	00279793          	slli	a5,a5,0x2
    80003394:	fd043703          	ld	a4,-48(s0)
    80003398:	00f707b3          	add	a5,a4,a5
    8000339c:	0007a703          	lw	a4,0(a5)
    800033a0:	0017061b          	addiw	a2,a4,1
    800033a4:	0006061b          	sext.w	a2,a2
    800033a8:	00c7a023          	sw	a2,0(a5)
    800033ac:	00070793          	mv	a5,a4
    800033b0:	00279793          	slli	a5,a5,0x2
    800033b4:	fb043703          	ld	a4,-80(s0)
    800033b8:	00f707b3          	add	a5,a4,a5
    800033bc:	0006a703          	lw	a4,0(a3)
    800033c0:	00e7a023          	sw	a4,0(a5)
    800033c4:	fdc42783          	lw	a5,-36(s0)
    800033c8:	0017879b          	addiw	a5,a5,1
    800033cc:	fcf42e23          	sw	a5,-36(s0)
    800033d0:	f79ff06f          	j	80003348 <_ZL9radixPassPiS_S_ii+0x15c>
    800033d4:	00000013          	nop
    800033d8:	05813083          	ld	ra,88(sp)
    800033dc:	05013403          	ld	s0,80(sp)
    800033e0:	06010113          	addi	sp,sp,96
    800033e4:	00008067          	ret

00000000800033e8 <_Z11suffixArrayPiS_ii>:
    800033e8:	f6010113          	addi	sp,sp,-160
    800033ec:	08113c23          	sd	ra,152(sp)
    800033f0:	08813823          	sd	s0,144(sp)
    800033f4:	0a010413          	addi	s0,sp,160
    800033f8:	f6a43c23          	sd	a0,-136(s0)
    800033fc:	f6b43823          	sd	a1,-144(s0)
    80003400:	00060793          	mv	a5,a2
    80003404:	00068713          	mv	a4,a3
    80003408:	f6f42623          	sw	a5,-148(s0)
    8000340c:	00070793          	mv	a5,a4
    80003410:	f6f42423          	sw	a5,-152(s0)
    80003414:	f6c42783          	lw	a5,-148(s0)
    80003418:	0027879b          	addiw	a5,a5,2
    8000341c:	0007879b          	sext.w	a5,a5
    80003420:	00078713          	mv	a4,a5
    80003424:	00300793          	li	a5,3
    80003428:	02f747bb          	divw	a5,a4,a5
    8000342c:	faf42a23          	sw	a5,-76(s0)
    80003430:	f6c42783          	lw	a5,-148(s0)
    80003434:	0017879b          	addiw	a5,a5,1
    80003438:	0007879b          	sext.w	a5,a5
    8000343c:	00078713          	mv	a4,a5
    80003440:	00300793          	li	a5,3
    80003444:	02f747bb          	divw	a5,a4,a5
    80003448:	faf42823          	sw	a5,-80(s0)
    8000344c:	f6c42703          	lw	a4,-148(s0)
    80003450:	00300793          	li	a5,3
    80003454:	02f747bb          	divw	a5,a4,a5
    80003458:	faf42623          	sw	a5,-84(s0)
    8000345c:	fb442703          	lw	a4,-76(s0)
    80003460:	fac42783          	lw	a5,-84(s0)
    80003464:	00f707bb          	addw	a5,a4,a5
    80003468:	faf42423          	sw	a5,-88(s0)
    8000346c:	fa842783          	lw	a5,-88(s0)
    80003470:	0037879b          	addiw	a5,a5,3
    80003474:	0007879b          	sext.w	a5,a5
    80003478:	00279793          	slli	a5,a5,0x2
    8000347c:	00078513          	mv	a0,a5
    80003480:	998fd0ef          	jal	ra,80000618 <bench_alloc>
    80003484:	faa43023          	sd	a0,-96(s0)
    80003488:	fa842783          	lw	a5,-88(s0)
    8000348c:	00278793          	addi	a5,a5,2
    80003490:	00279793          	slli	a5,a5,0x2
    80003494:	fa043703          	ld	a4,-96(s0)
    80003498:	00f70733          	add	a4,a4,a5
    8000349c:	00072023          	sw	zero,0(a4)
    800034a0:	fa842783          	lw	a5,-88(s0)
    800034a4:	00178793          	addi	a5,a5,1
    800034a8:	00279793          	slli	a5,a5,0x2
    800034ac:	fa043683          	ld	a3,-96(s0)
    800034b0:	00f687b3          	add	a5,a3,a5
    800034b4:	00072703          	lw	a4,0(a4)
    800034b8:	00e7a023          	sw	a4,0(a5)
    800034bc:	fa842703          	lw	a4,-88(s0)
    800034c0:	00271713          	slli	a4,a4,0x2
    800034c4:	fa043683          	ld	a3,-96(s0)
    800034c8:	00e68733          	add	a4,a3,a4
    800034cc:	0007a783          	lw	a5,0(a5)
    800034d0:	00f72023          	sw	a5,0(a4)
    800034d4:	fa842783          	lw	a5,-88(s0)
    800034d8:	0037879b          	addiw	a5,a5,3
    800034dc:	0007879b          	sext.w	a5,a5
    800034e0:	00279793          	slli	a5,a5,0x2
    800034e4:	00078513          	mv	a0,a5
    800034e8:	930fd0ef          	jal	ra,80000618 <bench_alloc>
    800034ec:	f8a43c23          	sd	a0,-104(s0)
    800034f0:	fa842783          	lw	a5,-88(s0)
    800034f4:	00278793          	addi	a5,a5,2
    800034f8:	00279793          	slli	a5,a5,0x2
    800034fc:	f9843703          	ld	a4,-104(s0)
    80003500:	00f70733          	add	a4,a4,a5
    80003504:	00072023          	sw	zero,0(a4)
    80003508:	fa842783          	lw	a5,-88(s0)
    8000350c:	00178793          	addi	a5,a5,1
    80003510:	00279793          	slli	a5,a5,0x2
    80003514:	f9843683          	ld	a3,-104(s0)
    80003518:	00f687b3          	add	a5,a3,a5
    8000351c:	00072703          	lw	a4,0(a4)
    80003520:	00e7a023          	sw	a4,0(a5)
    80003524:	fa842703          	lw	a4,-88(s0)
    80003528:	00271713          	slli	a4,a4,0x2
    8000352c:	f9843683          	ld	a3,-104(s0)
    80003530:	00e68733          	add	a4,a3,a4
    80003534:	0007a783          	lw	a5,0(a5)
    80003538:	00f72023          	sw	a5,0(a4)
    8000353c:	fb442783          	lw	a5,-76(s0)
    80003540:	00279793          	slli	a5,a5,0x2
    80003544:	00078513          	mv	a0,a5
    80003548:	8d0fd0ef          	jal	ra,80000618 <bench_alloc>
    8000354c:	f8a43823          	sd	a0,-112(s0)
    80003550:	fb442783          	lw	a5,-76(s0)
    80003554:	00279793          	slli	a5,a5,0x2
    80003558:	00078513          	mv	a0,a5
    8000355c:	8bcfd0ef          	jal	ra,80000618 <bench_alloc>
    80003560:	f8a43423          	sd	a0,-120(s0)
    80003564:	fe042623          	sw	zero,-20(s0)
    80003568:	fe042423          	sw	zero,-24(s0)
    8000356c:	fb442703          	lw	a4,-76(s0)
    80003570:	fb042783          	lw	a5,-80(s0)
    80003574:	40f707bb          	subw	a5,a4,a5
    80003578:	0007879b          	sext.w	a5,a5
    8000357c:	f6c42703          	lw	a4,-148(s0)
    80003580:	00f707bb          	addw	a5,a4,a5
    80003584:	0007871b          	sext.w	a4,a5
    80003588:	fec42783          	lw	a5,-20(s0)
    8000358c:	0007879b          	sext.w	a5,a5
    80003590:	04e7d463          	bge	a5,a4,800035d8 <_Z11suffixArrayPiS_ii+0x1f0>
    80003594:	fec42703          	lw	a4,-20(s0)
    80003598:	00300793          	li	a5,3
    8000359c:	02f767bb          	remw	a5,a4,a5
    800035a0:	0007879b          	sext.w	a5,a5
    800035a4:	02078263          	beqz	a5,800035c8 <_Z11suffixArrayPiS_ii+0x1e0>
    800035a8:	fe842783          	lw	a5,-24(s0)
    800035ac:	0017871b          	addiw	a4,a5,1
    800035b0:	fee42423          	sw	a4,-24(s0)
    800035b4:	00279793          	slli	a5,a5,0x2
    800035b8:	fa043703          	ld	a4,-96(s0)
    800035bc:	00f707b3          	add	a5,a4,a5
    800035c0:	fec42703          	lw	a4,-20(s0)
    800035c4:	00e7a023          	sw	a4,0(a5)
    800035c8:	fec42783          	lw	a5,-20(s0)
    800035cc:	0017879b          	addiw	a5,a5,1
    800035d0:	fef42623          	sw	a5,-20(s0)
    800035d4:	f99ff06f          	j	8000356c <_Z11suffixArrayPiS_ii+0x184>
    800035d8:	f7843783          	ld	a5,-136(s0)
    800035dc:	00878793          	addi	a5,a5,8
    800035e0:	f6842703          	lw	a4,-152(s0)
    800035e4:	fa842683          	lw	a3,-88(s0)
    800035e8:	00078613          	mv	a2,a5
    800035ec:	f9843583          	ld	a1,-104(s0)
    800035f0:	fa043503          	ld	a0,-96(s0)
    800035f4:	bf9ff0ef          	jal	ra,800031ec <_ZL9radixPassPiS_S_ii>
    800035f8:	f7843783          	ld	a5,-136(s0)
    800035fc:	00478793          	addi	a5,a5,4
    80003600:	f6842703          	lw	a4,-152(s0)
    80003604:	fa842683          	lw	a3,-88(s0)
    80003608:	00078613          	mv	a2,a5
    8000360c:	fa043583          	ld	a1,-96(s0)
    80003610:	f9843503          	ld	a0,-104(s0)
    80003614:	bd9ff0ef          	jal	ra,800031ec <_ZL9radixPassPiS_S_ii>
    80003618:	f6842703          	lw	a4,-152(s0)
    8000361c:	fa842783          	lw	a5,-88(s0)
    80003620:	00078693          	mv	a3,a5
    80003624:	f7843603          	ld	a2,-136(s0)
    80003628:	f9843583          	ld	a1,-104(s0)
    8000362c:	fa043503          	ld	a0,-96(s0)
    80003630:	bbdff0ef          	jal	ra,800031ec <_ZL9radixPassPiS_S_ii>
    80003634:	fe042223          	sw	zero,-28(s0)
    80003638:	fff00793          	li	a5,-1
    8000363c:	fef42023          	sw	a5,-32(s0)
    80003640:	fff00793          	li	a5,-1
    80003644:	fcf42e23          	sw	a5,-36(s0)
    80003648:	fff00793          	li	a5,-1
    8000364c:	fcf42c23          	sw	a5,-40(s0)
    80003650:	fc042a23          	sw	zero,-44(s0)
    80003654:	fd442703          	lw	a4,-44(s0)
    80003658:	fa842783          	lw	a5,-88(s0)
    8000365c:	0007071b          	sext.w	a4,a4
    80003660:	0007879b          	sext.w	a5,a5
    80003664:	1ef75463          	bge	a4,a5,8000384c <_Z11suffixArrayPiS_ii+0x464>
    80003668:	fd442783          	lw	a5,-44(s0)
    8000366c:	00279793          	slli	a5,a5,0x2
    80003670:	f9843703          	ld	a4,-104(s0)
    80003674:	00f707b3          	add	a5,a4,a5
    80003678:	0007a783          	lw	a5,0(a5)
    8000367c:	00279793          	slli	a5,a5,0x2
    80003680:	f7843703          	ld	a4,-136(s0)
    80003684:	00f707b3          	add	a5,a4,a5
    80003688:	0007a703          	lw	a4,0(a5)
    8000368c:	fe042783          	lw	a5,-32(s0)
    80003690:	0007879b          	sext.w	a5,a5
    80003694:	06e79663          	bne	a5,a4,80003700 <_Z11suffixArrayPiS_ii+0x318>
    80003698:	fd442783          	lw	a5,-44(s0)
    8000369c:	00279793          	slli	a5,a5,0x2
    800036a0:	f9843703          	ld	a4,-104(s0)
    800036a4:	00f707b3          	add	a5,a4,a5
    800036a8:	0007a783          	lw	a5,0(a5)
    800036ac:	00178793          	addi	a5,a5,1
    800036b0:	00279793          	slli	a5,a5,0x2
    800036b4:	f7843703          	ld	a4,-136(s0)
    800036b8:	00f707b3          	add	a5,a4,a5
    800036bc:	0007a703          	lw	a4,0(a5)
    800036c0:	fdc42783          	lw	a5,-36(s0)
    800036c4:	0007879b          	sext.w	a5,a5
    800036c8:	02e79c63          	bne	a5,a4,80003700 <_Z11suffixArrayPiS_ii+0x318>
    800036cc:	fd442783          	lw	a5,-44(s0)
    800036d0:	00279793          	slli	a5,a5,0x2
    800036d4:	f9843703          	ld	a4,-104(s0)
    800036d8:	00f707b3          	add	a5,a4,a5
    800036dc:	0007a783          	lw	a5,0(a5)
    800036e0:	00278793          	addi	a5,a5,2
    800036e4:	00279793          	slli	a5,a5,0x2
    800036e8:	f7843703          	ld	a4,-136(s0)
    800036ec:	00f707b3          	add	a5,a4,a5
    800036f0:	0007a703          	lw	a4,0(a5)
    800036f4:	fd842783          	lw	a5,-40(s0)
    800036f8:	0007879b          	sext.w	a5,a5
    800036fc:	08e78863          	beq	a5,a4,8000378c <_Z11suffixArrayPiS_ii+0x3a4>
    80003700:	fe442783          	lw	a5,-28(s0)
    80003704:	0017879b          	addiw	a5,a5,1
    80003708:	fef42223          	sw	a5,-28(s0)
    8000370c:	fd442783          	lw	a5,-44(s0)
    80003710:	00279793          	slli	a5,a5,0x2
    80003714:	f9843703          	ld	a4,-104(s0)
    80003718:	00f707b3          	add	a5,a4,a5
    8000371c:	0007a783          	lw	a5,0(a5)
    80003720:	00279793          	slli	a5,a5,0x2
    80003724:	f7843703          	ld	a4,-136(s0)
    80003728:	00f707b3          	add	a5,a4,a5
    8000372c:	0007a783          	lw	a5,0(a5)
    80003730:	fef42023          	sw	a5,-32(s0)
    80003734:	fd442783          	lw	a5,-44(s0)
    80003738:	00279793          	slli	a5,a5,0x2
    8000373c:	f9843703          	ld	a4,-104(s0)
    80003740:	00f707b3          	add	a5,a4,a5
    80003744:	0007a783          	lw	a5,0(a5)
    80003748:	00178793          	addi	a5,a5,1
    8000374c:	00279793          	slli	a5,a5,0x2
    80003750:	f7843703          	ld	a4,-136(s0)
    80003754:	00f707b3          	add	a5,a4,a5
    80003758:	0007a783          	lw	a5,0(a5)
    8000375c:	fcf42e23          	sw	a5,-36(s0)
    80003760:	fd442783          	lw	a5,-44(s0)
    80003764:	00279793          	slli	a5,a5,0x2
    80003768:	f9843703          	ld	a4,-104(s0)
    8000376c:	00f707b3          	add	a5,a4,a5
    80003770:	0007a783          	lw	a5,0(a5)
    80003774:	00278793          	addi	a5,a5,2
    80003778:	00279793          	slli	a5,a5,0x2
    8000377c:	f7843703          	ld	a4,-136(s0)
    80003780:	00f707b3          	add	a5,a4,a5
    80003784:	0007a783          	lw	a5,0(a5)
    80003788:	fcf42c23          	sw	a5,-40(s0)
    8000378c:	fd442783          	lw	a5,-44(s0)
    80003790:	00279793          	slli	a5,a5,0x2
    80003794:	f9843703          	ld	a4,-104(s0)
    80003798:	00f707b3          	add	a5,a4,a5
    8000379c:	0007a783          	lw	a5,0(a5)
    800037a0:	00078713          	mv	a4,a5
    800037a4:	00300793          	li	a5,3
    800037a8:	02f767bb          	remw	a5,a4,a5
    800037ac:	0007879b          	sext.w	a5,a5
    800037b0:	00078713          	mv	a4,a5
    800037b4:	00100793          	li	a5,1
    800037b8:	04f71063          	bne	a4,a5,800037f8 <_Z11suffixArrayPiS_ii+0x410>
    800037bc:	fd442783          	lw	a5,-44(s0)
    800037c0:	00279793          	slli	a5,a5,0x2
    800037c4:	f9843703          	ld	a4,-104(s0)
    800037c8:	00f707b3          	add	a5,a4,a5
    800037cc:	0007a783          	lw	a5,0(a5)
    800037d0:	00078713          	mv	a4,a5
    800037d4:	00300793          	li	a5,3
    800037d8:	02f747bb          	divw	a5,a4,a5
    800037dc:	0007879b          	sext.w	a5,a5
    800037e0:	00279793          	slli	a5,a5,0x2
    800037e4:	fa043703          	ld	a4,-96(s0)
    800037e8:	00f707b3          	add	a5,a4,a5
    800037ec:	fe442703          	lw	a4,-28(s0)
    800037f0:	00e7a023          	sw	a4,0(a5)
    800037f4:	0480006f          	j	8000383c <_Z11suffixArrayPiS_ii+0x454>
    800037f8:	fd442783          	lw	a5,-44(s0)
    800037fc:	00279793          	slli	a5,a5,0x2
    80003800:	f9843703          	ld	a4,-104(s0)
    80003804:	00f707b3          	add	a5,a4,a5
    80003808:	0007a783          	lw	a5,0(a5)
    8000380c:	00078713          	mv	a4,a5
    80003810:	00300793          	li	a5,3
    80003814:	02f747bb          	divw	a5,a4,a5
    80003818:	0007879b          	sext.w	a5,a5
    8000381c:	fb442703          	lw	a4,-76(s0)
    80003820:	00f707bb          	addw	a5,a4,a5
    80003824:	0007879b          	sext.w	a5,a5
    80003828:	00279793          	slli	a5,a5,0x2
    8000382c:	fa043703          	ld	a4,-96(s0)
    80003830:	00f707b3          	add	a5,a4,a5
    80003834:	fe442703          	lw	a4,-28(s0)
    80003838:	00e7a023          	sw	a4,0(a5)
    8000383c:	fd442783          	lw	a5,-44(s0)
    80003840:	0017879b          	addiw	a5,a5,1
    80003844:	fcf42a23          	sw	a5,-44(s0)
    80003848:	e0dff06f          	j	80003654 <_Z11suffixArrayPiS_ii+0x26c>
    8000384c:	fe442703          	lw	a4,-28(s0)
    80003850:	fa842783          	lw	a5,-88(s0)
    80003854:	0007071b          	sext.w	a4,a4
    80003858:	0007879b          	sext.w	a5,a5
    8000385c:	06f75c63          	bge	a4,a5,800038d4 <_Z11suffixArrayPiS_ii+0x4ec>
    80003860:	fe442703          	lw	a4,-28(s0)
    80003864:	fa842783          	lw	a5,-88(s0)
    80003868:	00070693          	mv	a3,a4
    8000386c:	00078613          	mv	a2,a5
    80003870:	f9843583          	ld	a1,-104(s0)
    80003874:	fa043503          	ld	a0,-96(s0)
    80003878:	b71ff0ef          	jal	ra,800033e8 <_Z11suffixArrayPiS_ii>
    8000387c:	fc042823          	sw	zero,-48(s0)
    80003880:	fd042703          	lw	a4,-48(s0)
    80003884:	fa842783          	lw	a5,-88(s0)
    80003888:	0007071b          	sext.w	a4,a4
    8000388c:	0007879b          	sext.w	a5,a5
    80003890:	08f75c63          	bge	a4,a5,80003928 <_Z11suffixArrayPiS_ii+0x540>
    80003894:	fd042783          	lw	a5,-48(s0)
    80003898:	00279793          	slli	a5,a5,0x2
    8000389c:	f9843703          	ld	a4,-104(s0)
    800038a0:	00f707b3          	add	a5,a4,a5
    800038a4:	0007a783          	lw	a5,0(a5)
    800038a8:	00279793          	slli	a5,a5,0x2
    800038ac:	fa043703          	ld	a4,-96(s0)
    800038b0:	00f707b3          	add	a5,a4,a5
    800038b4:	fd042703          	lw	a4,-48(s0)
    800038b8:	0017071b          	addiw	a4,a4,1
    800038bc:	0007071b          	sext.w	a4,a4
    800038c0:	00e7a023          	sw	a4,0(a5)
    800038c4:	fd042783          	lw	a5,-48(s0)
    800038c8:	0017879b          	addiw	a5,a5,1
    800038cc:	fcf42823          	sw	a5,-48(s0)
    800038d0:	fb1ff06f          	j	80003880 <_Z11suffixArrayPiS_ii+0x498>
    800038d4:	fc042623          	sw	zero,-52(s0)
    800038d8:	fcc42703          	lw	a4,-52(s0)
    800038dc:	fa842783          	lw	a5,-88(s0)
    800038e0:	0007071b          	sext.w	a4,a4
    800038e4:	0007879b          	sext.w	a5,a5
    800038e8:	04f75063          	bge	a4,a5,80003928 <_Z11suffixArrayPiS_ii+0x540>
    800038ec:	fcc42783          	lw	a5,-52(s0)
    800038f0:	00279793          	slli	a5,a5,0x2
    800038f4:	fa043703          	ld	a4,-96(s0)
    800038f8:	00f707b3          	add	a5,a4,a5
    800038fc:	0007a783          	lw	a5,0(a5)
    80003900:	00279793          	slli	a5,a5,0x2
    80003904:	ffc78793          	addi	a5,a5,-4
    80003908:	f9843703          	ld	a4,-104(s0)
    8000390c:	00f707b3          	add	a5,a4,a5
    80003910:	fcc42703          	lw	a4,-52(s0)
    80003914:	00e7a023          	sw	a4,0(a5)
    80003918:	fcc42783          	lw	a5,-52(s0)
    8000391c:	0017879b          	addiw	a5,a5,1
    80003920:	fcf42623          	sw	a5,-52(s0)
    80003924:	fb5ff06f          	j	800038d8 <_Z11suffixArrayPiS_ii+0x4f0>
    80003928:	fc042423          	sw	zero,-56(s0)
    8000392c:	fc042223          	sw	zero,-60(s0)
    80003930:	fc842703          	lw	a4,-56(s0)
    80003934:	fa842783          	lw	a5,-88(s0)
    80003938:	0007071b          	sext.w	a4,a4
    8000393c:	0007879b          	sext.w	a5,a5
    80003940:	06f75a63          	bge	a4,a5,800039b4 <_Z11suffixArrayPiS_ii+0x5cc>
    80003944:	fc842783          	lw	a5,-56(s0)
    80003948:	00279793          	slli	a5,a5,0x2
    8000394c:	f9843703          	ld	a4,-104(s0)
    80003950:	00f707b3          	add	a5,a4,a5
    80003954:	0007a703          	lw	a4,0(a5)
    80003958:	fb442783          	lw	a5,-76(s0)
    8000395c:	0007879b          	sext.w	a5,a5
    80003960:	04f75263          	bge	a4,a5,800039a4 <_Z11suffixArrayPiS_ii+0x5bc>
    80003964:	fc842783          	lw	a5,-56(s0)
    80003968:	00279793          	slli	a5,a5,0x2
    8000396c:	f9843703          	ld	a4,-104(s0)
    80003970:	00f707b3          	add	a5,a4,a5
    80003974:	0007a683          	lw	a3,0(a5)
    80003978:	fc442783          	lw	a5,-60(s0)
    8000397c:	0017871b          	addiw	a4,a5,1
    80003980:	fce42223          	sw	a4,-60(s0)
    80003984:	00279793          	slli	a5,a5,0x2
    80003988:	f9043703          	ld	a4,-112(s0)
    8000398c:	00f70733          	add	a4,a4,a5
    80003990:	00068793          	mv	a5,a3
    80003994:	0017979b          	slliw	a5,a5,0x1
    80003998:	00d787bb          	addw	a5,a5,a3
    8000399c:	0007879b          	sext.w	a5,a5
    800039a0:	00f72023          	sw	a5,0(a4)
    800039a4:	fc842783          	lw	a5,-56(s0)
    800039a8:	0017879b          	addiw	a5,a5,1
    800039ac:	fcf42423          	sw	a5,-56(s0)
    800039b0:	f81ff06f          	j	80003930 <_Z11suffixArrayPiS_ii+0x548>
    800039b4:	f6842703          	lw	a4,-152(s0)
    800039b8:	fb442783          	lw	a5,-76(s0)
    800039bc:	00078693          	mv	a3,a5
    800039c0:	f7843603          	ld	a2,-136(s0)
    800039c4:	f8843583          	ld	a1,-120(s0)
    800039c8:	f9043503          	ld	a0,-112(s0)
    800039cc:	821ff0ef          	jal	ra,800031ec <_ZL9radixPassPiS_S_ii>
    800039d0:	fc042023          	sw	zero,-64(s0)
    800039d4:	fb442703          	lw	a4,-76(s0)
    800039d8:	fb042783          	lw	a5,-80(s0)
    800039dc:	40f707bb          	subw	a5,a4,a5
    800039e0:	faf42e23          	sw	a5,-68(s0)
    800039e4:	fa042c23          	sw	zero,-72(s0)
    800039e8:	fb842703          	lw	a4,-72(s0)
    800039ec:	f6c42783          	lw	a5,-148(s0)
    800039f0:	0007071b          	sext.w	a4,a4
    800039f4:	0007879b          	sext.w	a5,a5
    800039f8:	3ef75e63          	bge	a4,a5,80003df4 <_Z11suffixArrayPiS_ii+0xa0c>
    800039fc:	fbc42783          	lw	a5,-68(s0)
    80003a00:	00279793          	slli	a5,a5,0x2
    80003a04:	f9843703          	ld	a4,-104(s0)
    80003a08:	00f707b3          	add	a5,a4,a5
    80003a0c:	0007a703          	lw	a4,0(a5)
    80003a10:	fb442783          	lw	a5,-76(s0)
    80003a14:	0007879b          	sext.w	a5,a5
    80003a18:	02f75c63          	bge	a4,a5,80003a50 <_Z11suffixArrayPiS_ii+0x668>
    80003a1c:	fbc42783          	lw	a5,-68(s0)
    80003a20:	00279793          	slli	a5,a5,0x2
    80003a24:	f9843703          	ld	a4,-104(s0)
    80003a28:	00f707b3          	add	a5,a4,a5
    80003a2c:	0007a783          	lw	a5,0(a5)
    80003a30:	00078713          	mv	a4,a5
    80003a34:	00070793          	mv	a5,a4
    80003a38:	0017979b          	slliw	a5,a5,0x1
    80003a3c:	00e787bb          	addw	a5,a5,a4
    80003a40:	0007879b          	sext.w	a5,a5
    80003a44:	0017879b          	addiw	a5,a5,1
    80003a48:	0007879b          	sext.w	a5,a5
    80003a4c:	0400006f          	j	80003a8c <_Z11suffixArrayPiS_ii+0x6a4>
    80003a50:	fbc42783          	lw	a5,-68(s0)
    80003a54:	00279793          	slli	a5,a5,0x2
    80003a58:	f9843703          	ld	a4,-104(s0)
    80003a5c:	00f707b3          	add	a5,a4,a5
    80003a60:	0007a703          	lw	a4,0(a5)
    80003a64:	fb442783          	lw	a5,-76(s0)
    80003a68:	40f707bb          	subw	a5,a4,a5
    80003a6c:	0007879b          	sext.w	a5,a5
    80003a70:	00078713          	mv	a4,a5
    80003a74:	00070793          	mv	a5,a4
    80003a78:	0017979b          	slliw	a5,a5,0x1
    80003a7c:	00e787bb          	addw	a5,a5,a4
    80003a80:	0007879b          	sext.w	a5,a5
    80003a84:	0027879b          	addiw	a5,a5,2
    80003a88:	0007879b          	sext.w	a5,a5
    80003a8c:	f8f42223          	sw	a5,-124(s0)
    80003a90:	fc042783          	lw	a5,-64(s0)
    80003a94:	00279793          	slli	a5,a5,0x2
    80003a98:	f8843703          	ld	a4,-120(s0)
    80003a9c:	00f707b3          	add	a5,a4,a5
    80003aa0:	0007a783          	lw	a5,0(a5)
    80003aa4:	f8f42023          	sw	a5,-128(s0)
    80003aa8:	fbc42783          	lw	a5,-68(s0)
    80003aac:	00279793          	slli	a5,a5,0x2
    80003ab0:	f9843703          	ld	a4,-104(s0)
    80003ab4:	00f707b3          	add	a5,a4,a5
    80003ab8:	0007a703          	lw	a4,0(a5)
    80003abc:	fb442783          	lw	a5,-76(s0)
    80003ac0:	0007879b          	sext.w	a5,a5
    80003ac4:	08f75c63          	bge	a4,a5,80003b5c <_Z11suffixArrayPiS_ii+0x774>
    80003ac8:	f8442783          	lw	a5,-124(s0)
    80003acc:	00279793          	slli	a5,a5,0x2
    80003ad0:	f7843703          	ld	a4,-136(s0)
    80003ad4:	00f707b3          	add	a5,a4,a5
    80003ad8:	0007a503          	lw	a0,0(a5)
    80003adc:	fbc42783          	lw	a5,-68(s0)
    80003ae0:	00279793          	slli	a5,a5,0x2
    80003ae4:	f9843703          	ld	a4,-104(s0)
    80003ae8:	00f707b3          	add	a5,a4,a5
    80003aec:	0007a783          	lw	a5,0(a5)
    80003af0:	fb442703          	lw	a4,-76(s0)
    80003af4:	00f707bb          	addw	a5,a4,a5
    80003af8:	0007879b          	sext.w	a5,a5
    80003afc:	00279793          	slli	a5,a5,0x2
    80003b00:	fa043703          	ld	a4,-96(s0)
    80003b04:	00f707b3          	add	a5,a4,a5
    80003b08:	0007a583          	lw	a1,0(a5)
    80003b0c:	f8042783          	lw	a5,-128(s0)
    80003b10:	00279793          	slli	a5,a5,0x2
    80003b14:	f7843703          	ld	a4,-136(s0)
    80003b18:	00f707b3          	add	a5,a4,a5
    80003b1c:	0007a603          	lw	a2,0(a5)
    80003b20:	f8042703          	lw	a4,-128(s0)
    80003b24:	00300793          	li	a5,3
    80003b28:	02f747bb          	divw	a5,a4,a5
    80003b2c:	0007879b          	sext.w	a5,a5
    80003b30:	00279793          	slli	a5,a5,0x2
    80003b34:	fa043703          	ld	a4,-96(s0)
    80003b38:	00f707b3          	add	a5,a4,a5
    80003b3c:	0007a783          	lw	a5,0(a5)
    80003b40:	00078693          	mv	a3,a5
    80003b44:	4cd030ef          	jal	ra,80007810 <_Z3leqiiii>
    80003b48:	00050793          	mv	a5,a0
    80003b4c:	0007879b          	sext.w	a5,a5
    80003b50:	00f037b3          	snez	a5,a5
    80003b54:	0ff7f793          	zext.b	a5,a5
    80003b58:	0d40006f          	j	80003c2c <_Z11suffixArrayPiS_ii+0x844>
    80003b5c:	f8442783          	lw	a5,-124(s0)
    80003b60:	00279793          	slli	a5,a5,0x2
    80003b64:	f7843703          	ld	a4,-136(s0)
    80003b68:	00f707b3          	add	a5,a4,a5
    80003b6c:	0007a503          	lw	a0,0(a5)
    80003b70:	f8442783          	lw	a5,-124(s0)
    80003b74:	00178793          	addi	a5,a5,1
    80003b78:	00279793          	slli	a5,a5,0x2
    80003b7c:	f7843703          	ld	a4,-136(s0)
    80003b80:	00f707b3          	add	a5,a4,a5
    80003b84:	0007a583          	lw	a1,0(a5)
    80003b88:	fbc42783          	lw	a5,-68(s0)
    80003b8c:	00279793          	slli	a5,a5,0x2
    80003b90:	f9843703          	ld	a4,-104(s0)
    80003b94:	00f707b3          	add	a5,a4,a5
    80003b98:	0007a703          	lw	a4,0(a5)
    80003b9c:	fb442783          	lw	a5,-76(s0)
    80003ba0:	40f707bb          	subw	a5,a4,a5
    80003ba4:	0007879b          	sext.w	a5,a5
    80003ba8:	00178793          	addi	a5,a5,1
    80003bac:	00279793          	slli	a5,a5,0x2
    80003bb0:	fa043703          	ld	a4,-96(s0)
    80003bb4:	00f707b3          	add	a5,a4,a5
    80003bb8:	0007a603          	lw	a2,0(a5)
    80003bbc:	f8042783          	lw	a5,-128(s0)
    80003bc0:	00279793          	slli	a5,a5,0x2
    80003bc4:	f7843703          	ld	a4,-136(s0)
    80003bc8:	00f707b3          	add	a5,a4,a5
    80003bcc:	0007a683          	lw	a3,0(a5)
    80003bd0:	f8042783          	lw	a5,-128(s0)
    80003bd4:	00178793          	addi	a5,a5,1
    80003bd8:	00279793          	slli	a5,a5,0x2
    80003bdc:	f7843703          	ld	a4,-136(s0)
    80003be0:	00f707b3          	add	a5,a4,a5
    80003be4:	0007a803          	lw	a6,0(a5)
    80003be8:	f8042703          	lw	a4,-128(s0)
    80003bec:	00300793          	li	a5,3
    80003bf0:	02f747bb          	divw	a5,a4,a5
    80003bf4:	0007879b          	sext.w	a5,a5
    80003bf8:	fb442703          	lw	a4,-76(s0)
    80003bfc:	00f707bb          	addw	a5,a4,a5
    80003c00:	0007879b          	sext.w	a5,a5
    80003c04:	00279793          	slli	a5,a5,0x2
    80003c08:	fa043703          	ld	a4,-96(s0)
    80003c0c:	00f707b3          	add	a5,a4,a5
    80003c10:	0007a783          	lw	a5,0(a5)
    80003c14:	00080713          	mv	a4,a6
    80003c18:	481030ef          	jal	ra,80007898 <_Z3leqiiiiii>
    80003c1c:	00050793          	mv	a5,a0
    80003c20:	0007879b          	sext.w	a5,a5
    80003c24:	00f037b3          	snez	a5,a5
    80003c28:	0ff7f793          	zext.b	a5,a5
    80003c2c:	0a078063          	beqz	a5,80003ccc <_Z11suffixArrayPiS_ii+0x8e4>
    80003c30:	fb842783          	lw	a5,-72(s0)
    80003c34:	00279793          	slli	a5,a5,0x2
    80003c38:	f7043703          	ld	a4,-144(s0)
    80003c3c:	00f707b3          	add	a5,a4,a5
    80003c40:	f8442703          	lw	a4,-124(s0)
    80003c44:	00e7a023          	sw	a4,0(a5)
    80003c48:	fbc42783          	lw	a5,-68(s0)
    80003c4c:	0017879b          	addiw	a5,a5,1
    80003c50:	faf42e23          	sw	a5,-68(s0)
    80003c54:	fbc42703          	lw	a4,-68(s0)
    80003c58:	fa842783          	lw	a5,-88(s0)
    80003c5c:	0007071b          	sext.w	a4,a4
    80003c60:	0007879b          	sext.w	a5,a5
    80003c64:	18f71063          	bne	a4,a5,80003de4 <_Z11suffixArrayPiS_ii+0x9fc>
    80003c68:	fb842783          	lw	a5,-72(s0)
    80003c6c:	0017879b          	addiw	a5,a5,1
    80003c70:	faf42c23          	sw	a5,-72(s0)
    80003c74:	fc042703          	lw	a4,-64(s0)
    80003c78:	fb442783          	lw	a5,-76(s0)
    80003c7c:	0007071b          	sext.w	a4,a4
    80003c80:	0007879b          	sext.w	a5,a5
    80003c84:	16f75063          	bge	a4,a5,80003de4 <_Z11suffixArrayPiS_ii+0x9fc>
    80003c88:	fc042783          	lw	a5,-64(s0)
    80003c8c:	00279793          	slli	a5,a5,0x2
    80003c90:	f8843703          	ld	a4,-120(s0)
    80003c94:	00f70733          	add	a4,a4,a5
    80003c98:	fb842783          	lw	a5,-72(s0)
    80003c9c:	00279793          	slli	a5,a5,0x2
    80003ca0:	f7043683          	ld	a3,-144(s0)
    80003ca4:	00f687b3          	add	a5,a3,a5
    80003ca8:	00072703          	lw	a4,0(a4)
    80003cac:	00e7a023          	sw	a4,0(a5)
    80003cb0:	fc042783          	lw	a5,-64(s0)
    80003cb4:	0017879b          	addiw	a5,a5,1
    80003cb8:	fcf42023          	sw	a5,-64(s0)
    80003cbc:	fb842783          	lw	a5,-72(s0)
    80003cc0:	0017879b          	addiw	a5,a5,1
    80003cc4:	faf42c23          	sw	a5,-72(s0)
    80003cc8:	fadff06f          	j	80003c74 <_Z11suffixArrayPiS_ii+0x88c>
    80003ccc:	fb842783          	lw	a5,-72(s0)
    80003cd0:	00279793          	slli	a5,a5,0x2
    80003cd4:	f7043703          	ld	a4,-144(s0)
    80003cd8:	00f707b3          	add	a5,a4,a5
    80003cdc:	f8042703          	lw	a4,-128(s0)
    80003ce0:	00e7a023          	sw	a4,0(a5)
    80003ce4:	fc042783          	lw	a5,-64(s0)
    80003ce8:	0017879b          	addiw	a5,a5,1
    80003cec:	fcf42023          	sw	a5,-64(s0)
    80003cf0:	fc042703          	lw	a4,-64(s0)
    80003cf4:	fb442783          	lw	a5,-76(s0)
    80003cf8:	0007071b          	sext.w	a4,a4
    80003cfc:	0007879b          	sext.w	a5,a5
    80003d00:	0ef71263          	bne	a4,a5,80003de4 <_Z11suffixArrayPiS_ii+0x9fc>
    80003d04:	fb842783          	lw	a5,-72(s0)
    80003d08:	0017879b          	addiw	a5,a5,1
    80003d0c:	faf42c23          	sw	a5,-72(s0)
    80003d10:	fbc42703          	lw	a4,-68(s0)
    80003d14:	fa842783          	lw	a5,-88(s0)
    80003d18:	0007071b          	sext.w	a4,a4
    80003d1c:	0007879b          	sext.w	a5,a5
    80003d20:	0cf75263          	bge	a4,a5,80003de4 <_Z11suffixArrayPiS_ii+0x9fc>
    80003d24:	fbc42783          	lw	a5,-68(s0)
    80003d28:	00279793          	slli	a5,a5,0x2
    80003d2c:	f9843703          	ld	a4,-104(s0)
    80003d30:	00f707b3          	add	a5,a4,a5
    80003d34:	0007a703          	lw	a4,0(a5)
    80003d38:	fb442783          	lw	a5,-76(s0)
    80003d3c:	0007879b          	sext.w	a5,a5
    80003d40:	02f75c63          	bge	a4,a5,80003d78 <_Z11suffixArrayPiS_ii+0x990>
    80003d44:	fbc42783          	lw	a5,-68(s0)
    80003d48:	00279793          	slli	a5,a5,0x2
    80003d4c:	f9843703          	ld	a4,-104(s0)
    80003d50:	00f707b3          	add	a5,a4,a5
    80003d54:	0007a783          	lw	a5,0(a5)
    80003d58:	00078713          	mv	a4,a5
    80003d5c:	00070793          	mv	a5,a4
    80003d60:	0017979b          	slliw	a5,a5,0x1
    80003d64:	00e787bb          	addw	a5,a5,a4
    80003d68:	0007879b          	sext.w	a5,a5
    80003d6c:	0017879b          	addiw	a5,a5,1
    80003d70:	0007879b          	sext.w	a5,a5
    80003d74:	0400006f          	j	80003db4 <_Z11suffixArrayPiS_ii+0x9cc>
    80003d78:	fbc42783          	lw	a5,-68(s0)
    80003d7c:	00279793          	slli	a5,a5,0x2
    80003d80:	f9843703          	ld	a4,-104(s0)
    80003d84:	00f707b3          	add	a5,a4,a5
    80003d88:	0007a703          	lw	a4,0(a5)
    80003d8c:	fb442783          	lw	a5,-76(s0)
    80003d90:	40f707bb          	subw	a5,a4,a5
    80003d94:	0007879b          	sext.w	a5,a5
    80003d98:	00078713          	mv	a4,a5
    80003d9c:	00070793          	mv	a5,a4
    80003da0:	0017979b          	slliw	a5,a5,0x1
    80003da4:	00e787bb          	addw	a5,a5,a4
    80003da8:	0007879b          	sext.w	a5,a5
    80003dac:	0027879b          	addiw	a5,a5,2
    80003db0:	0007879b          	sext.w	a5,a5
    80003db4:	fb842703          	lw	a4,-72(s0)
    80003db8:	00271713          	slli	a4,a4,0x2
    80003dbc:	f7043683          	ld	a3,-144(s0)
    80003dc0:	00e68733          	add	a4,a3,a4
    80003dc4:	00f72023          	sw	a5,0(a4)
    80003dc8:	fbc42783          	lw	a5,-68(s0)
    80003dcc:	0017879b          	addiw	a5,a5,1
    80003dd0:	faf42e23          	sw	a5,-68(s0)
    80003dd4:	fb842783          	lw	a5,-72(s0)
    80003dd8:	0017879b          	addiw	a5,a5,1
    80003ddc:	faf42c23          	sw	a5,-72(s0)
    80003de0:	f31ff06f          	j	80003d10 <_Z11suffixArrayPiS_ii+0x928>
    80003de4:	fb842783          	lw	a5,-72(s0)
    80003de8:	0017879b          	addiw	a5,a5,1
    80003dec:	faf42c23          	sw	a5,-72(s0)
    80003df0:	bf9ff06f          	j	800039e8 <_Z11suffixArrayPiS_ii+0x600>
    80003df4:	00000013          	nop
    80003df8:	09813083          	ld	ra,152(sp)
    80003dfc:	09013403          	ld	s0,144(sp)
    80003e00:	0a010113          	addi	sp,sp,160
    80003e04:	00008067          	ret

0000000080003e08 <bench_ssort_prepare>:
    80003e08:	fe010113          	addi	sp,sp,-32
    80003e0c:	00113c23          	sd	ra,24(sp)
    80003e10:	00813823          	sd	s0,16(sp)
    80003e14:	02010413          	addi	s0,sp,32
    80003e18:	00008797          	auipc	a5,0x8
    80003e1c:	54078793          	addi	a5,a5,1344 # 8000c358 <setting>
    80003e20:	0007b783          	ld	a5,0(a5)
    80003e24:	0007a703          	lw	a4,0(a5)
    80003e28:	00008797          	auipc	a5,0x8
    80003e2c:	4a878793          	addi	a5,a5,1192 # 8000c2d0 <_ZL1N>
    80003e30:	00e7a023          	sw	a4,0(a5)
    80003e34:	00100513          	li	a0,1
    80003e38:	955fc0ef          	jal	ra,8000078c <bench_srand>
    80003e3c:	00008797          	auipc	a5,0x8
    80003e40:	49478793          	addi	a5,a5,1172 # 8000c2d0 <_ZL1N>
    80003e44:	0007a783          	lw	a5,0(a5)
    80003e48:	00a7879b          	addiw	a5,a5,10
    80003e4c:	0007879b          	sext.w	a5,a5
    80003e50:	00279793          	slli	a5,a5,0x2
    80003e54:	00078513          	mv	a0,a5
    80003e58:	fc0fc0ef          	jal	ra,80000618 <bench_alloc>
    80003e5c:	00050713          	mv	a4,a0
    80003e60:	00008797          	auipc	a5,0x8
    80003e64:	47878793          	addi	a5,a5,1144 # 8000c2d8 <_ZL1s>
    80003e68:	00e7b023          	sd	a4,0(a5)
    80003e6c:	00008797          	auipc	a5,0x8
    80003e70:	46478793          	addi	a5,a5,1124 # 8000c2d0 <_ZL1N>
    80003e74:	0007a783          	lw	a5,0(a5)
    80003e78:	00a7879b          	addiw	a5,a5,10
    80003e7c:	0007879b          	sext.w	a5,a5
    80003e80:	00279793          	slli	a5,a5,0x2
    80003e84:	00078513          	mv	a0,a5
    80003e88:	f90fc0ef          	jal	ra,80000618 <bench_alloc>
    80003e8c:	00050713          	mv	a4,a0
    80003e90:	00008797          	auipc	a5,0x8
    80003e94:	45078793          	addi	a5,a5,1104 # 8000c2e0 <_ZL2sa>
    80003e98:	00e7b023          	sd	a4,0(a5)
    80003e9c:	fe042623          	sw	zero,-20(s0)
    80003ea0:	00008797          	auipc	a5,0x8
    80003ea4:	43078793          	addi	a5,a5,1072 # 8000c2d0 <_ZL1N>
    80003ea8:	0007a703          	lw	a4,0(a5)
    80003eac:	fec42783          	lw	a5,-20(s0)
    80003eb0:	0007879b          	sext.w	a5,a5
    80003eb4:	04e7d863          	bge	a5,a4,80003f04 <bench_ssort_prepare+0xfc>
    80003eb8:	919fc0ef          	jal	ra,800007d0 <bench_rand>
    80003ebc:	00050793          	mv	a5,a0
    80003ec0:	0007879b          	sext.w	a5,a5
    80003ec4:	00078713          	mv	a4,a5
    80003ec8:	01a00793          	li	a5,26
    80003ecc:	02f777bb          	remuw	a5,a4,a5
    80003ed0:	0007869b          	sext.w	a3,a5
    80003ed4:	00008797          	auipc	a5,0x8
    80003ed8:	40478793          	addi	a5,a5,1028 # 8000c2d8 <_ZL1s>
    80003edc:	0007b703          	ld	a4,0(a5)
    80003ee0:	fec42783          	lw	a5,-20(s0)
    80003ee4:	00279793          	slli	a5,a5,0x2
    80003ee8:	00f707b3          	add	a5,a4,a5
    80003eec:	0006871b          	sext.w	a4,a3
    80003ef0:	00e7a023          	sw	a4,0(a5)
    80003ef4:	fec42783          	lw	a5,-20(s0)
    80003ef8:	0017879b          	addiw	a5,a5,1
    80003efc:	fef42623          	sw	a5,-20(s0)
    80003f00:	fa1ff06f          	j	80003ea0 <bench_ssort_prepare+0x98>
    80003f04:	00000013          	nop
    80003f08:	01813083          	ld	ra,24(sp)
    80003f0c:	01013403          	ld	s0,16(sp)
    80003f10:	02010113          	addi	sp,sp,32
    80003f14:	00008067          	ret

0000000080003f18 <bench_ssort_run>:
    80003f18:	ff010113          	addi	sp,sp,-16
    80003f1c:	00113423          	sd	ra,8(sp)
    80003f20:	00813023          	sd	s0,0(sp)
    80003f24:	01010413          	addi	s0,sp,16
    80003f28:	00008797          	auipc	a5,0x8
    80003f2c:	3b078793          	addi	a5,a5,944 # 8000c2d8 <_ZL1s>
    80003f30:	0007b703          	ld	a4,0(a5)
    80003f34:	00008797          	auipc	a5,0x8
    80003f38:	3ac78793          	addi	a5,a5,940 # 8000c2e0 <_ZL2sa>
    80003f3c:	0007b583          	ld	a1,0(a5)
    80003f40:	00008797          	auipc	a5,0x8
    80003f44:	39078793          	addi	a5,a5,912 # 8000c2d0 <_ZL1N>
    80003f48:	0007a783          	lw	a5,0(a5)
    80003f4c:	01a00693          	li	a3,26
    80003f50:	00078613          	mv	a2,a5
    80003f54:	00070513          	mv	a0,a4
    80003f58:	c90ff0ef          	jal	ra,800033e8 <_Z11suffixArrayPiS_ii>
    80003f5c:	00000013          	nop
    80003f60:	00813083          	ld	ra,8(sp)
    80003f64:	00013403          	ld	s0,0(sp)
    80003f68:	01010113          	addi	sp,sp,16
    80003f6c:	00008067          	ret

0000000080003f70 <bench_ssort_validate>:
    80003f70:	ff010113          	addi	sp,sp,-16
    80003f74:	00113423          	sd	ra,8(sp)
    80003f78:	00813023          	sd	s0,0(sp)
    80003f7c:	01010413          	addi	s0,sp,16
    80003f80:	00008797          	auipc	a5,0x8
    80003f84:	36078793          	addi	a5,a5,864 # 8000c2e0 <_ZL2sa>
    80003f88:	0007b683          	ld	a3,0(a5)
    80003f8c:	00008797          	auipc	a5,0x8
    80003f90:	35478793          	addi	a5,a5,852 # 8000c2e0 <_ZL2sa>
    80003f94:	0007b703          	ld	a4,0(a5)
    80003f98:	00008797          	auipc	a5,0x8
    80003f9c:	33878793          	addi	a5,a5,824 # 8000c2d0 <_ZL1N>
    80003fa0:	0007a783          	lw	a5,0(a5)
    80003fa4:	00279793          	slli	a5,a5,0x2
    80003fa8:	00f707b3          	add	a5,a4,a5
    80003fac:	00078593          	mv	a1,a5
    80003fb0:	00068513          	mv	a0,a3
    80003fb4:	899fc0ef          	jal	ra,8000084c <checksum>
    80003fb8:	00050793          	mv	a5,a0
    80003fbc:	0007871b          	sext.w	a4,a5
    80003fc0:	00008797          	auipc	a5,0x8
    80003fc4:	39878793          	addi	a5,a5,920 # 8000c358 <setting>
    80003fc8:	0007b783          	ld	a5,0(a5)
    80003fcc:	0187a783          	lw	a5,24(a5)
    80003fd0:	40f707b3          	sub	a5,a4,a5
    80003fd4:	0017b793          	seqz	a5,a5
    80003fd8:	0ff7f793          	zext.b	a5,a5
    80003fdc:	0007879b          	sext.w	a5,a5
    80003fe0:	00078513          	mv	a0,a5
    80003fe4:	00813083          	ld	ra,8(sp)
    80003fe8:	00013403          	ld	s0,0(sp)
    80003fec:	01010113          	addi	sp,sp,16
    80003ff0:	00008067          	ret

0000000080003ff4 <bench_qsort_prepare>:
    80003ff4:	fe010113          	addi	sp,sp,-32
    80003ff8:	00113c23          	sd	ra,24(sp)
    80003ffc:	00813823          	sd	s0,16(sp)
    80004000:	02010413          	addi	s0,sp,32
    80004004:	00100513          	li	a0,1
    80004008:	f84fc0ef          	jal	ra,8000078c <bench_srand>
    8000400c:	00008797          	auipc	a5,0x8
    80004010:	34c78793          	addi	a5,a5,844 # 8000c358 <setting>
    80004014:	0007b783          	ld	a5,0(a5)
    80004018:	0007a703          	lw	a4,0(a5)
    8000401c:	00008797          	auipc	a5,0x8
    80004020:	2cc78793          	addi	a5,a5,716 # 8000c2e8 <N>
    80004024:	00e7a023          	sw	a4,0(a5)
    80004028:	00008797          	auipc	a5,0x8
    8000402c:	2c078793          	addi	a5,a5,704 # 8000c2e8 <N>
    80004030:	0007a783          	lw	a5,0(a5)
    80004034:	00279793          	slli	a5,a5,0x2
    80004038:	00078513          	mv	a0,a5
    8000403c:	ddcfc0ef          	jal	ra,80000618 <bench_alloc>
    80004040:	00050713          	mv	a4,a0
    80004044:	00008797          	auipc	a5,0x8
    80004048:	2ac78793          	addi	a5,a5,684 # 8000c2f0 <data>
    8000404c:	00e7b023          	sd	a4,0(a5)
    80004050:	fe042623          	sw	zero,-20(s0)
    80004054:	0640006f          	j	800040b8 <bench_qsort_prepare+0xc4>
    80004058:	f78fc0ef          	jal	ra,800007d0 <bench_rand>
    8000405c:	00050793          	mv	a5,a0
    80004060:	0007879b          	sext.w	a5,a5
    80004064:	fef42423          	sw	a5,-24(s0)
    80004068:	f68fc0ef          	jal	ra,800007d0 <bench_rand>
    8000406c:	00050793          	mv	a5,a0
    80004070:	0007879b          	sext.w	a5,a5
    80004074:	fef42223          	sw	a5,-28(s0)
    80004078:	fe842783          	lw	a5,-24(s0)
    8000407c:	0107979b          	slliw	a5,a5,0x10
    80004080:	0007869b          	sext.w	a3,a5
    80004084:	00008797          	auipc	a5,0x8
    80004088:	26c78793          	addi	a5,a5,620 # 8000c2f0 <data>
    8000408c:	0007b703          	ld	a4,0(a5)
    80004090:	fec42783          	lw	a5,-20(s0)
    80004094:	00279793          	slli	a5,a5,0x2
    80004098:	00f707b3          	add	a5,a4,a5
    8000409c:	fe442703          	lw	a4,-28(s0)
    800040a0:	00e6e733          	or	a4,a3,a4
    800040a4:	0007071b          	sext.w	a4,a4
    800040a8:	00e7a023          	sw	a4,0(a5)
    800040ac:	fec42783          	lw	a5,-20(s0)
    800040b0:	0017879b          	addiw	a5,a5,1
    800040b4:	fef42623          	sw	a5,-20(s0)
    800040b8:	00008797          	auipc	a5,0x8
    800040bc:	23078793          	addi	a5,a5,560 # 8000c2e8 <N>
    800040c0:	0007a703          	lw	a4,0(a5)
    800040c4:	fec42783          	lw	a5,-20(s0)
    800040c8:	0007879b          	sext.w	a5,a5
    800040cc:	f8e7c6e3          	blt	a5,a4,80004058 <bench_qsort_prepare+0x64>
    800040d0:	00000013          	nop
    800040d4:	00000013          	nop
    800040d8:	01813083          	ld	ra,24(sp)
    800040dc:	01013403          	ld	s0,16(sp)
    800040e0:	02010113          	addi	sp,sp,32
    800040e4:	00008067          	ret

00000000800040e8 <swap>:
    800040e8:	fd010113          	addi	sp,sp,-48
    800040ec:	02813423          	sd	s0,40(sp)
    800040f0:	03010413          	addi	s0,sp,48
    800040f4:	fca43c23          	sd	a0,-40(s0)
    800040f8:	fcb43823          	sd	a1,-48(s0)
    800040fc:	fd843783          	ld	a5,-40(s0)
    80004100:	0007a783          	lw	a5,0(a5)
    80004104:	fef42623          	sw	a5,-20(s0)
    80004108:	fd043783          	ld	a5,-48(s0)
    8000410c:	0007a703          	lw	a4,0(a5)
    80004110:	fd843783          	ld	a5,-40(s0)
    80004114:	00e7a023          	sw	a4,0(a5)
    80004118:	fd043783          	ld	a5,-48(s0)
    8000411c:	fec42703          	lw	a4,-20(s0)
    80004120:	00e7a023          	sw	a4,0(a5)
    80004124:	00000013          	nop
    80004128:	02813403          	ld	s0,40(sp)
    8000412c:	03010113          	addi	sp,sp,48
    80004130:	00008067          	ret

0000000080004134 <myqsort>:
    80004134:	fd010113          	addi	sp,sp,-48
    80004138:	02113423          	sd	ra,40(sp)
    8000413c:	02813023          	sd	s0,32(sp)
    80004140:	03010413          	addi	s0,sp,48
    80004144:	fca43c23          	sd	a0,-40(s0)
    80004148:	00058793          	mv	a5,a1
    8000414c:	00060713          	mv	a4,a2
    80004150:	fcf42a23          	sw	a5,-44(s0)
    80004154:	00070793          	mv	a5,a4
    80004158:	fcf42823          	sw	a5,-48(s0)
    8000415c:	fd442703          	lw	a4,-44(s0)
    80004160:	fd042783          	lw	a5,-48(s0)
    80004164:	0007071b          	sext.w	a4,a4
    80004168:	0007879b          	sext.w	a5,a5
    8000416c:	10f75863          	bge	a4,a5,8000427c <myqsort+0x148>
    80004170:	fd442783          	lw	a5,-44(s0)
    80004174:	00279793          	slli	a5,a5,0x2
    80004178:	fd843703          	ld	a4,-40(s0)
    8000417c:	00f707b3          	add	a5,a4,a5
    80004180:	0007a783          	lw	a5,0(a5)
    80004184:	fef42223          	sw	a5,-28(s0)
    80004188:	fd442783          	lw	a5,-44(s0)
    8000418c:	fef42623          	sw	a5,-20(s0)
    80004190:	fd442783          	lw	a5,-44(s0)
    80004194:	0017879b          	addiw	a5,a5,1
    80004198:	fef42423          	sw	a5,-24(s0)
    8000419c:	0680006f          	j	80004204 <myqsort+0xd0>
    800041a0:	fe842783          	lw	a5,-24(s0)
    800041a4:	00279793          	slli	a5,a5,0x2
    800041a8:	fd843703          	ld	a4,-40(s0)
    800041ac:	00f707b3          	add	a5,a4,a5
    800041b0:	0007a703          	lw	a4,0(a5)
    800041b4:	fe442783          	lw	a5,-28(s0)
    800041b8:	0007879b          	sext.w	a5,a5
    800041bc:	02f75e63          	bge	a4,a5,800041f8 <myqsort+0xc4>
    800041c0:	fec42783          	lw	a5,-20(s0)
    800041c4:	0017879b          	addiw	a5,a5,1
    800041c8:	fef42623          	sw	a5,-20(s0)
    800041cc:	fec42783          	lw	a5,-20(s0)
    800041d0:	00279793          	slli	a5,a5,0x2
    800041d4:	fd843703          	ld	a4,-40(s0)
    800041d8:	00f706b3          	add	a3,a4,a5
    800041dc:	fe842783          	lw	a5,-24(s0)
    800041e0:	00279793          	slli	a5,a5,0x2
    800041e4:	fd843703          	ld	a4,-40(s0)
    800041e8:	00f707b3          	add	a5,a4,a5
    800041ec:	00078593          	mv	a1,a5
    800041f0:	00068513          	mv	a0,a3
    800041f4:	ef5ff0ef          	jal	ra,800040e8 <swap>
    800041f8:	fe842783          	lw	a5,-24(s0)
    800041fc:	0017879b          	addiw	a5,a5,1
    80004200:	fef42423          	sw	a5,-24(s0)
    80004204:	fe842703          	lw	a4,-24(s0)
    80004208:	fd042783          	lw	a5,-48(s0)
    8000420c:	0007071b          	sext.w	a4,a4
    80004210:	0007879b          	sext.w	a5,a5
    80004214:	f8f746e3          	blt	a4,a5,800041a0 <myqsort+0x6c>
    80004218:	fec42783          	lw	a5,-20(s0)
    8000421c:	00279793          	slli	a5,a5,0x2
    80004220:	fd843703          	ld	a4,-40(s0)
    80004224:	00f706b3          	add	a3,a4,a5
    80004228:	fd442783          	lw	a5,-44(s0)
    8000422c:	00279793          	slli	a5,a5,0x2
    80004230:	fd843703          	ld	a4,-40(s0)
    80004234:	00f707b3          	add	a5,a4,a5
    80004238:	00078593          	mv	a1,a5
    8000423c:	00068513          	mv	a0,a3
    80004240:	ea9ff0ef          	jal	ra,800040e8 <swap>
    80004244:	fec42703          	lw	a4,-20(s0)
    80004248:	fd442783          	lw	a5,-44(s0)
    8000424c:	00070613          	mv	a2,a4
    80004250:	00078593          	mv	a1,a5
    80004254:	fd843503          	ld	a0,-40(s0)
    80004258:	eddff0ef          	jal	ra,80004134 <myqsort>
    8000425c:	fec42783          	lw	a5,-20(s0)
    80004260:	0017879b          	addiw	a5,a5,1
    80004264:	0007879b          	sext.w	a5,a5
    80004268:	fd042703          	lw	a4,-48(s0)
    8000426c:	00070613          	mv	a2,a4
    80004270:	00078593          	mv	a1,a5
    80004274:	fd843503          	ld	a0,-40(s0)
    80004278:	ebdff0ef          	jal	ra,80004134 <myqsort>
    8000427c:	00000013          	nop
    80004280:	02813083          	ld	ra,40(sp)
    80004284:	02013403          	ld	s0,32(sp)
    80004288:	03010113          	addi	sp,sp,48
    8000428c:	00008067          	ret

0000000080004290 <bench_qsort_run>:
    80004290:	ff010113          	addi	sp,sp,-16
    80004294:	00113423          	sd	ra,8(sp)
    80004298:	00813023          	sd	s0,0(sp)
    8000429c:	01010413          	addi	s0,sp,16
    800042a0:	00008797          	auipc	a5,0x8
    800042a4:	05078793          	addi	a5,a5,80 # 8000c2f0 <data>
    800042a8:	0007b703          	ld	a4,0(a5)
    800042ac:	00008797          	auipc	a5,0x8
    800042b0:	03c78793          	addi	a5,a5,60 # 8000c2e8 <N>
    800042b4:	0007a783          	lw	a5,0(a5)
    800042b8:	00078613          	mv	a2,a5
    800042bc:	00000593          	li	a1,0
    800042c0:	00070513          	mv	a0,a4
    800042c4:	e71ff0ef          	jal	ra,80004134 <myqsort>
    800042c8:	00000013          	nop
    800042cc:	00813083          	ld	ra,8(sp)
    800042d0:	00013403          	ld	s0,0(sp)
    800042d4:	01010113          	addi	sp,sp,16
    800042d8:	00008067          	ret

00000000800042dc <bench_qsort_validate>:
    800042dc:	ff010113          	addi	sp,sp,-16
    800042e0:	00113423          	sd	ra,8(sp)
    800042e4:	00813023          	sd	s0,0(sp)
    800042e8:	01010413          	addi	s0,sp,16
    800042ec:	00008797          	auipc	a5,0x8
    800042f0:	00478793          	addi	a5,a5,4 # 8000c2f0 <data>
    800042f4:	0007b683          	ld	a3,0(a5)
    800042f8:	00008797          	auipc	a5,0x8
    800042fc:	ff878793          	addi	a5,a5,-8 # 8000c2f0 <data>
    80004300:	0007b703          	ld	a4,0(a5)
    80004304:	00008797          	auipc	a5,0x8
    80004308:	fe478793          	addi	a5,a5,-28 # 8000c2e8 <N>
    8000430c:	0007a783          	lw	a5,0(a5)
    80004310:	00279793          	slli	a5,a5,0x2
    80004314:	00f707b3          	add	a5,a4,a5
    80004318:	00078593          	mv	a1,a5
    8000431c:	00068513          	mv	a0,a3
    80004320:	d2cfc0ef          	jal	ra,8000084c <checksum>
    80004324:	00050793          	mv	a5,a0
    80004328:	0007871b          	sext.w	a4,a5
    8000432c:	00008797          	auipc	a5,0x8
    80004330:	02c78793          	addi	a5,a5,44 # 8000c358 <setting>
    80004334:	0007b783          	ld	a5,0(a5)
    80004338:	0187a783          	lw	a5,24(a5)
    8000433c:	40f707b3          	sub	a5,a4,a5
    80004340:	0017b793          	seqz	a5,a5
    80004344:	0ff7f793          	zext.b	a5,a5
    80004348:	0007879b          	sext.w	a5,a5
    8000434c:	00078513          	mv	a0,a5
    80004350:	00813083          	ld	ra,8(sp)
    80004354:	00013403          	ld	s0,0(sp)
    80004358:	01010113          	addi	sp,sp,16
    8000435c:	00008067          	ret

0000000080004360 <to_bytes>:
    80004360:	fe010113          	addi	sp,sp,-32
    80004364:	00813c23          	sd	s0,24(sp)
    80004368:	02010413          	addi	s0,sp,32
    8000436c:	00050793          	mv	a5,a0
    80004370:	feb43023          	sd	a1,-32(s0)
    80004374:	fef42623          	sw	a5,-20(s0)
    80004378:	fec42783          	lw	a5,-20(s0)
    8000437c:	0ff7f713          	zext.b	a4,a5
    80004380:	fe043783          	ld	a5,-32(s0)
    80004384:	00e78023          	sb	a4,0(a5)
    80004388:	fec42783          	lw	a5,-20(s0)
    8000438c:	0087d79b          	srliw	a5,a5,0x8
    80004390:	0007871b          	sext.w	a4,a5
    80004394:	fe043783          	ld	a5,-32(s0)
    80004398:	00178793          	addi	a5,a5,1
    8000439c:	0ff77713          	zext.b	a4,a4
    800043a0:	00e78023          	sb	a4,0(a5)
    800043a4:	fec42783          	lw	a5,-20(s0)
    800043a8:	0107d79b          	srliw	a5,a5,0x10
    800043ac:	0007871b          	sext.w	a4,a5
    800043b0:	fe043783          	ld	a5,-32(s0)
    800043b4:	00278793          	addi	a5,a5,2
    800043b8:	0ff77713          	zext.b	a4,a4
    800043bc:	00e78023          	sb	a4,0(a5)
    800043c0:	fec42783          	lw	a5,-20(s0)
    800043c4:	0187d79b          	srliw	a5,a5,0x18
    800043c8:	0007871b          	sext.w	a4,a5
    800043cc:	fe043783          	ld	a5,-32(s0)
    800043d0:	00378793          	addi	a5,a5,3
    800043d4:	0ff77713          	zext.b	a4,a4
    800043d8:	00e78023          	sb	a4,0(a5)
    800043dc:	00000013          	nop
    800043e0:	01813403          	ld	s0,24(sp)
    800043e4:	02010113          	addi	sp,sp,32
    800043e8:	00008067          	ret

00000000800043ec <to_int32>:
    800043ec:	fe010113          	addi	sp,sp,-32
    800043f0:	00813c23          	sd	s0,24(sp)
    800043f4:	02010413          	addi	s0,sp,32
    800043f8:	fea43423          	sd	a0,-24(s0)
    800043fc:	fe843783          	ld	a5,-24(s0)
    80004400:	0007c783          	lbu	a5,0(a5)
    80004404:	0007871b          	sext.w	a4,a5
    80004408:	fe843783          	ld	a5,-24(s0)
    8000440c:	00178793          	addi	a5,a5,1
    80004410:	0007c783          	lbu	a5,0(a5)
    80004414:	0007879b          	sext.w	a5,a5
    80004418:	0087979b          	slliw	a5,a5,0x8
    8000441c:	0007879b          	sext.w	a5,a5
    80004420:	00f767b3          	or	a5,a4,a5
    80004424:	0007871b          	sext.w	a4,a5
    80004428:	fe843783          	ld	a5,-24(s0)
    8000442c:	00278793          	addi	a5,a5,2
    80004430:	0007c783          	lbu	a5,0(a5)
    80004434:	0007879b          	sext.w	a5,a5
    80004438:	0107979b          	slliw	a5,a5,0x10
    8000443c:	0007879b          	sext.w	a5,a5
    80004440:	00f767b3          	or	a5,a4,a5
    80004444:	0007871b          	sext.w	a4,a5
    80004448:	fe843783          	ld	a5,-24(s0)
    8000444c:	00378793          	addi	a5,a5,3
    80004450:	0007c783          	lbu	a5,0(a5)
    80004454:	0007879b          	sext.w	a5,a5
    80004458:	0187979b          	slliw	a5,a5,0x18
    8000445c:	0007879b          	sext.w	a5,a5
    80004460:	00f767b3          	or	a5,a4,a5
    80004464:	0007879b          	sext.w	a5,a5
    80004468:	00078513          	mv	a0,a5
    8000446c:	01813403          	ld	s0,24(sp)
    80004470:	02010113          	addi	sp,sp,32
    80004474:	00008067          	ret

0000000080004478 <md5>:
    80004478:	f5010113          	addi	sp,sp,-176
    8000447c:	0a113423          	sd	ra,168(sp)
    80004480:	0a813023          	sd	s0,160(sp)
    80004484:	0b010413          	addi	s0,sp,176
    80004488:	f6a43423          	sd	a0,-152(s0)
    8000448c:	f6b43023          	sd	a1,-160(s0)
    80004490:	f4c43c23          	sd	a2,-168(s0)
    80004494:	674527b7          	lui	a5,0x67452
    80004498:	30178793          	addi	a5,a5,769 # 67452301 <_start-0x18badcff>
    8000449c:	fef42623          	sw	a5,-20(s0)
    800044a0:	efcdb7b7          	lui	a5,0xefcdb
    800044a4:	b8978793          	addi	a5,a5,-1143 # ffffffffefcdab89 <_pmem_end+0xffffffff67cdab89>
    800044a8:	fef42423          	sw	a5,-24(s0)
    800044ac:	98bae7b7          	lui	a5,0x98bae
    800044b0:	cfe78793          	addi	a5,a5,-770 # ffffffff98badcfe <_pmem_end+0xffffffff10badcfe>
    800044b4:	fef42223          	sw	a5,-28(s0)
    800044b8:	103257b7          	lui	a5,0x10325
    800044bc:	47678793          	addi	a5,a5,1142 # 10325476 <_start-0x6fcdab8a>
    800044c0:	fef42023          	sw	a5,-32(s0)
    800044c4:	f6043783          	ld	a5,-160(s0)
    800044c8:	00178793          	addi	a5,a5,1
    800044cc:	fcf43c23          	sd	a5,-40(s0)
    800044d0:	0100006f          	j	800044e0 <md5+0x68>
    800044d4:	fd843783          	ld	a5,-40(s0)
    800044d8:	00178793          	addi	a5,a5,1
    800044dc:	fcf43c23          	sd	a5,-40(s0)
    800044e0:	fd843783          	ld	a5,-40(s0)
    800044e4:	03f7f713          	andi	a4,a5,63
    800044e8:	03800793          	li	a5,56
    800044ec:	fef714e3          	bne	a4,a5,800044d4 <md5+0x5c>
    800044f0:	f6843703          	ld	a4,-152(s0)
    800044f4:	f6043783          	ld	a5,-160(s0)
    800044f8:	00f707b3          	add	a5,a4,a5
    800044fc:	f8000713          	li	a4,-128
    80004500:	00e78023          	sb	a4,0(a5)
    80004504:	f6043783          	ld	a5,-160(s0)
    80004508:	00178793          	addi	a5,a5,1
    8000450c:	fcf43823          	sd	a5,-48(s0)
    80004510:	0200006f          	j	80004530 <md5+0xb8>
    80004514:	f6843703          	ld	a4,-152(s0)
    80004518:	fd043783          	ld	a5,-48(s0)
    8000451c:	00f707b3          	add	a5,a4,a5
    80004520:	00078023          	sb	zero,0(a5)
    80004524:	fd043783          	ld	a5,-48(s0)
    80004528:	00178793          	addi	a5,a5,1
    8000452c:	fcf43823          	sd	a5,-48(s0)
    80004530:	fd043703          	ld	a4,-48(s0)
    80004534:	fd843783          	ld	a5,-40(s0)
    80004538:	fcf76ee3          	bltu	a4,a5,80004514 <md5+0x9c>
    8000453c:	f6043783          	ld	a5,-160(s0)
    80004540:	0007879b          	sext.w	a5,a5
    80004544:	0037979b          	slliw	a5,a5,0x3
    80004548:	0007869b          	sext.w	a3,a5
    8000454c:	f6843703          	ld	a4,-152(s0)
    80004550:	fd843783          	ld	a5,-40(s0)
    80004554:	00f707b3          	add	a5,a4,a5
    80004558:	00078593          	mv	a1,a5
    8000455c:	00068513          	mv	a0,a3
    80004560:	e01ff0ef          	jal	ra,80004360 <to_bytes>
    80004564:	f6043783          	ld	a5,-160(s0)
    80004568:	01d7d793          	srli	a5,a5,0x1d
    8000456c:	0007869b          	sext.w	a3,a5
    80004570:	fd843783          	ld	a5,-40(s0)
    80004574:	00478793          	addi	a5,a5,4
    80004578:	f6843703          	ld	a4,-152(s0)
    8000457c:	00f707b3          	add	a5,a4,a5
    80004580:	00078593          	mv	a1,a5
    80004584:	00068513          	mv	a0,a3
    80004588:	dd9ff0ef          	jal	ra,80004360 <to_bytes>
    8000458c:	fc043823          	sd	zero,-48(s0)
    80004590:	2f80006f          	j	80004888 <md5+0x410>
    80004594:	fa042e23          	sw	zero,-68(s0)
    80004598:	0580006f          	j	800045f0 <md5+0x178>
    8000459c:	fbc42783          	lw	a5,-68(s0)
    800045a0:	0027979b          	slliw	a5,a5,0x2
    800045a4:	0007879b          	sext.w	a5,a5
    800045a8:	02079713          	slli	a4,a5,0x20
    800045ac:	02075713          	srli	a4,a4,0x20
    800045b0:	fd043783          	ld	a5,-48(s0)
    800045b4:	00f707b3          	add	a5,a4,a5
    800045b8:	f6843703          	ld	a4,-152(s0)
    800045bc:	00f707b3          	add	a5,a4,a5
    800045c0:	00078513          	mv	a0,a5
    800045c4:	e29ff0ef          	jal	ra,800043ec <to_int32>
    800045c8:	00050793          	mv	a5,a0
    800045cc:	0007871b          	sext.w	a4,a5
    800045d0:	fbc46783          	lwu	a5,-68(s0)
    800045d4:	00279793          	slli	a5,a5,0x2
    800045d8:	ff040693          	addi	a3,s0,-16
    800045dc:	00f687b3          	add	a5,a3,a5
    800045e0:	f8e7a023          	sw	a4,-128(a5)
    800045e4:	fbc42783          	lw	a5,-68(s0)
    800045e8:	0017879b          	addiw	a5,a5,1
    800045ec:	faf42e23          	sw	a5,-68(s0)
    800045f0:	fbc42783          	lw	a5,-68(s0)
    800045f4:	0007871b          	sext.w	a4,a5
    800045f8:	00f00793          	li	a5,15
    800045fc:	fae7f0e3          	bgeu	a5,a4,8000459c <md5+0x124>
    80004600:	fec42783          	lw	a5,-20(s0)
    80004604:	fcf42623          	sw	a5,-52(s0)
    80004608:	fe842783          	lw	a5,-24(s0)
    8000460c:	fcf42423          	sw	a5,-56(s0)
    80004610:	fe442783          	lw	a5,-28(s0)
    80004614:	fcf42223          	sw	a5,-60(s0)
    80004618:	fe042783          	lw	a5,-32(s0)
    8000461c:	fcf42023          	sw	a5,-64(s0)
    80004620:	fa042e23          	sw	zero,-68(s0)
    80004624:	2080006f          	j	8000482c <md5+0x3b4>
    80004628:	fbc42783          	lw	a5,-68(s0)
    8000462c:	0007871b          	sext.w	a4,a5
    80004630:	00f00793          	li	a5,15
    80004634:	04e7e063          	bltu	a5,a4,80004674 <md5+0x1fc>
    80004638:	fc842703          	lw	a4,-56(s0)
    8000463c:	fc442783          	lw	a5,-60(s0)
    80004640:	00f777b3          	and	a5,a4,a5
    80004644:	0007871b          	sext.w	a4,a5
    80004648:	fc842783          	lw	a5,-56(s0)
    8000464c:	fff7c793          	not	a5,a5
    80004650:	0007869b          	sext.w	a3,a5
    80004654:	fc042783          	lw	a5,-64(s0)
    80004658:	00d7f7b3          	and	a5,a5,a3
    8000465c:	0007879b          	sext.w	a5,a5
    80004660:	00f767b3          	or	a5,a4,a5
    80004664:	faf42c23          	sw	a5,-72(s0)
    80004668:	fbc42783          	lw	a5,-68(s0)
    8000466c:	faf42a23          	sw	a5,-76(s0)
    80004670:	1000006f          	j	80004770 <md5+0x2f8>
    80004674:	fbc42783          	lw	a5,-68(s0)
    80004678:	0007871b          	sext.w	a4,a5
    8000467c:	01f00793          	li	a5,31
    80004680:	04e7ee63          	bltu	a5,a4,800046dc <md5+0x264>
    80004684:	fc042703          	lw	a4,-64(s0)
    80004688:	fc842783          	lw	a5,-56(s0)
    8000468c:	00f777b3          	and	a5,a4,a5
    80004690:	0007871b          	sext.w	a4,a5
    80004694:	fc042783          	lw	a5,-64(s0)
    80004698:	fff7c793          	not	a5,a5
    8000469c:	0007869b          	sext.w	a3,a5
    800046a0:	fc442783          	lw	a5,-60(s0)
    800046a4:	00d7f7b3          	and	a5,a5,a3
    800046a8:	0007879b          	sext.w	a5,a5
    800046ac:	00f767b3          	or	a5,a4,a5
    800046b0:	faf42c23          	sw	a5,-72(s0)
    800046b4:	fbc42703          	lw	a4,-68(s0)
    800046b8:	00070793          	mv	a5,a4
    800046bc:	0027979b          	slliw	a5,a5,0x2
    800046c0:	00e787bb          	addw	a5,a5,a4
    800046c4:	0007879b          	sext.w	a5,a5
    800046c8:	0017879b          	addiw	a5,a5,1
    800046cc:	0007879b          	sext.w	a5,a5
    800046d0:	00f7f793          	andi	a5,a5,15
    800046d4:	faf42a23          	sw	a5,-76(s0)
    800046d8:	0980006f          	j	80004770 <md5+0x2f8>
    800046dc:	fbc42783          	lw	a5,-68(s0)
    800046e0:	0007871b          	sext.w	a4,a5
    800046e4:	02f00793          	li	a5,47
    800046e8:	04e7e463          	bltu	a5,a4,80004730 <md5+0x2b8>
    800046ec:	fc842703          	lw	a4,-56(s0)
    800046f0:	fc442783          	lw	a5,-60(s0)
    800046f4:	00f747b3          	xor	a5,a4,a5
    800046f8:	0007871b          	sext.w	a4,a5
    800046fc:	fc042783          	lw	a5,-64(s0)
    80004700:	00e7c7b3          	xor	a5,a5,a4
    80004704:	faf42c23          	sw	a5,-72(s0)
    80004708:	fbc42703          	lw	a4,-68(s0)
    8000470c:	00070793          	mv	a5,a4
    80004710:	0017979b          	slliw	a5,a5,0x1
    80004714:	00e787bb          	addw	a5,a5,a4
    80004718:	0007879b          	sext.w	a5,a5
    8000471c:	0057879b          	addiw	a5,a5,5
    80004720:	0007879b          	sext.w	a5,a5
    80004724:	00f7f793          	andi	a5,a5,15
    80004728:	faf42a23          	sw	a5,-76(s0)
    8000472c:	0440006f          	j	80004770 <md5+0x2f8>
    80004730:	fc042783          	lw	a5,-64(s0)
    80004734:	fff7c793          	not	a5,a5
    80004738:	0007871b          	sext.w	a4,a5
    8000473c:	fc842783          	lw	a5,-56(s0)
    80004740:	00e7e7b3          	or	a5,a5,a4
    80004744:	0007871b          	sext.w	a4,a5
    80004748:	fc442783          	lw	a5,-60(s0)
    8000474c:	00e7c7b3          	xor	a5,a5,a4
    80004750:	faf42c23          	sw	a5,-72(s0)
    80004754:	fbc42703          	lw	a4,-68(s0)
    80004758:	00070793          	mv	a5,a4
    8000475c:	0037979b          	slliw	a5,a5,0x3
    80004760:	40e787bb          	subw	a5,a5,a4
    80004764:	0007879b          	sext.w	a5,a5
    80004768:	00f7f793          	andi	a5,a5,15
    8000476c:	faf42a23          	sw	a5,-76(s0)
    80004770:	fc042783          	lw	a5,-64(s0)
    80004774:	faf42823          	sw	a5,-80(s0)
    80004778:	fc442783          	lw	a5,-60(s0)
    8000477c:	fcf42023          	sw	a5,-64(s0)
    80004780:	fc842783          	lw	a5,-56(s0)
    80004784:	fcf42223          	sw	a5,-60(s0)
    80004788:	fcc42703          	lw	a4,-52(s0)
    8000478c:	fb842783          	lw	a5,-72(s0)
    80004790:	00f707bb          	addw	a5,a4,a5
    80004794:	0007871b          	sext.w	a4,a5
    80004798:	00007697          	auipc	a3,0x7
    8000479c:	f7868693          	addi	a3,a3,-136 # 8000b710 <k>
    800047a0:	fbc46783          	lwu	a5,-68(s0)
    800047a4:	00279793          	slli	a5,a5,0x2
    800047a8:	00f687b3          	add	a5,a3,a5
    800047ac:	0007a783          	lw	a5,0(a5)
    800047b0:	00f707bb          	addw	a5,a4,a5
    800047b4:	0007871b          	sext.w	a4,a5
    800047b8:	fb446783          	lwu	a5,-76(s0)
    800047bc:	00279793          	slli	a5,a5,0x2
    800047c0:	ff040693          	addi	a3,s0,-16
    800047c4:	00f687b3          	add	a5,a3,a5
    800047c8:	f807a783          	lw	a5,-128(a5)
    800047cc:	00f707bb          	addw	a5,a4,a5
    800047d0:	0007869b          	sext.w	a3,a5
    800047d4:	00007717          	auipc	a4,0x7
    800047d8:	03c70713          	addi	a4,a4,60 # 8000b810 <r>
    800047dc:	fbc46783          	lwu	a5,-68(s0)
    800047e0:	00279793          	slli	a5,a5,0x2
    800047e4:	00f707b3          	add	a5,a4,a5
    800047e8:	0007a703          	lw	a4,0(a5)
    800047ec:	00068793          	mv	a5,a3
    800047f0:	00070693          	mv	a3,a4
    800047f4:	00d796bb          	sllw	a3,a5,a3
    800047f8:	40e0073b          	negw	a4,a4
    800047fc:	01f77713          	andi	a4,a4,31
    80004800:	00e7d7bb          	srlw	a5,a5,a4
    80004804:	00f6e7b3          	or	a5,a3,a5
    80004808:	0007879b          	sext.w	a5,a5
    8000480c:	fc842703          	lw	a4,-56(s0)
    80004810:	00f707bb          	addw	a5,a4,a5
    80004814:	fcf42423          	sw	a5,-56(s0)
    80004818:	fb042783          	lw	a5,-80(s0)
    8000481c:	fcf42623          	sw	a5,-52(s0)
    80004820:	fbc42783          	lw	a5,-68(s0)
    80004824:	0017879b          	addiw	a5,a5,1
    80004828:	faf42e23          	sw	a5,-68(s0)
    8000482c:	fbc42783          	lw	a5,-68(s0)
    80004830:	0007871b          	sext.w	a4,a5
    80004834:	03f00793          	li	a5,63
    80004838:	dee7f8e3          	bgeu	a5,a4,80004628 <md5+0x1b0>
    8000483c:	fec42703          	lw	a4,-20(s0)
    80004840:	fcc42783          	lw	a5,-52(s0)
    80004844:	00f707bb          	addw	a5,a4,a5
    80004848:	fef42623          	sw	a5,-20(s0)
    8000484c:	fe842703          	lw	a4,-24(s0)
    80004850:	fc842783          	lw	a5,-56(s0)
    80004854:	00f707bb          	addw	a5,a4,a5
    80004858:	fef42423          	sw	a5,-24(s0)
    8000485c:	fe442703          	lw	a4,-28(s0)
    80004860:	fc442783          	lw	a5,-60(s0)
    80004864:	00f707bb          	addw	a5,a4,a5
    80004868:	fef42223          	sw	a5,-28(s0)
    8000486c:	fe042703          	lw	a4,-32(s0)
    80004870:	fc042783          	lw	a5,-64(s0)
    80004874:	00f707bb          	addw	a5,a4,a5
    80004878:	fef42023          	sw	a5,-32(s0)
    8000487c:	fd043783          	ld	a5,-48(s0)
    80004880:	04078793          	addi	a5,a5,64
    80004884:	fcf43823          	sd	a5,-48(s0)
    80004888:	fd043703          	ld	a4,-48(s0)
    8000488c:	fd843783          	ld	a5,-40(s0)
    80004890:	d0f762e3          	bltu	a4,a5,80004594 <md5+0x11c>
    80004894:	fec42783          	lw	a5,-20(s0)
    80004898:	f5843583          	ld	a1,-168(s0)
    8000489c:	00078513          	mv	a0,a5
    800048a0:	ac1ff0ef          	jal	ra,80004360 <to_bytes>
    800048a4:	f5843783          	ld	a5,-168(s0)
    800048a8:	00478713          	addi	a4,a5,4
    800048ac:	fe842783          	lw	a5,-24(s0)
    800048b0:	00070593          	mv	a1,a4
    800048b4:	00078513          	mv	a0,a5
    800048b8:	aa9ff0ef          	jal	ra,80004360 <to_bytes>
    800048bc:	f5843783          	ld	a5,-168(s0)
    800048c0:	00878713          	addi	a4,a5,8
    800048c4:	fe442783          	lw	a5,-28(s0)
    800048c8:	00070593          	mv	a1,a4
    800048cc:	00078513          	mv	a0,a5
    800048d0:	a91ff0ef          	jal	ra,80004360 <to_bytes>
    800048d4:	f5843783          	ld	a5,-168(s0)
    800048d8:	00c78713          	addi	a4,a5,12
    800048dc:	fe042783          	lw	a5,-32(s0)
    800048e0:	00070593          	mv	a1,a4
    800048e4:	00078513          	mv	a0,a5
    800048e8:	a79ff0ef          	jal	ra,80004360 <to_bytes>
    800048ec:	00000013          	nop
    800048f0:	0a813083          	ld	ra,168(sp)
    800048f4:	0a013403          	ld	s0,160(sp)
    800048f8:	0b010113          	addi	sp,sp,176
    800048fc:	00008067          	ret

0000000080004900 <bench_md5_prepare>:
    80004900:	fe010113          	addi	sp,sp,-32
    80004904:	00113c23          	sd	ra,24(sp)
    80004908:	00813823          	sd	s0,16(sp)
    8000490c:	02010413          	addi	s0,sp,32
    80004910:	00008797          	auipc	a5,0x8
    80004914:	a4878793          	addi	a5,a5,-1464 # 8000c358 <setting>
    80004918:	0007b783          	ld	a5,0(a5)
    8000491c:	0007a703          	lw	a4,0(a5)
    80004920:	00008797          	auipc	a5,0x8
    80004924:	9d878793          	addi	a5,a5,-1576 # 8000c2f8 <N>
    80004928:	00e7a023          	sw	a4,0(a5)
    8000492c:	00100513          	li	a0,1
    80004930:	e5dfb0ef          	jal	ra,8000078c <bench_srand>
    80004934:	00008797          	auipc	a5,0x8
    80004938:	9c478793          	addi	a5,a5,-1596 # 8000c2f8 <N>
    8000493c:	0007a783          	lw	a5,0(a5)
    80004940:	00078513          	mv	a0,a5
    80004944:	cd5fb0ef          	jal	ra,80000618 <bench_alloc>
    80004948:	00050713          	mv	a4,a0
    8000494c:	00008797          	auipc	a5,0x8
    80004950:	9b478793          	addi	a5,a5,-1612 # 8000c300 <str>
    80004954:	00e7b023          	sd	a4,0(a5)
    80004958:	fe042623          	sw	zero,-20(s0)
    8000495c:	03c0006f          	j	80004998 <bench_md5_prepare+0x98>
    80004960:	e71fb0ef          	jal	ra,800007d0 <bench_rand>
    80004964:	00050793          	mv	a5,a0
    80004968:	0007869b          	sext.w	a3,a5
    8000496c:	00008797          	auipc	a5,0x8
    80004970:	99478793          	addi	a5,a5,-1644 # 8000c300 <str>
    80004974:	0007b703          	ld	a4,0(a5)
    80004978:	fec42783          	lw	a5,-20(s0)
    8000497c:	00f707b3          	add	a5,a4,a5
    80004980:	00068713          	mv	a4,a3
    80004984:	0ff77713          	zext.b	a4,a4
    80004988:	00e78023          	sb	a4,0(a5)
    8000498c:	fec42783          	lw	a5,-20(s0)
    80004990:	0017879b          	addiw	a5,a5,1
    80004994:	fef42623          	sw	a5,-20(s0)
    80004998:	00008797          	auipc	a5,0x8
    8000499c:	96078793          	addi	a5,a5,-1696 # 8000c2f8 <N>
    800049a0:	0007a703          	lw	a4,0(a5)
    800049a4:	fec42783          	lw	a5,-20(s0)
    800049a8:	0007879b          	sext.w	a5,a5
    800049ac:	fae7cae3          	blt	a5,a4,80004960 <bench_md5_prepare+0x60>
    800049b0:	01000513          	li	a0,16
    800049b4:	c65fb0ef          	jal	ra,80000618 <bench_alloc>
    800049b8:	00050713          	mv	a4,a0
    800049bc:	00008797          	auipc	a5,0x8
    800049c0:	94c78793          	addi	a5,a5,-1716 # 8000c308 <digest>
    800049c4:	00e7b023          	sd	a4,0(a5)
    800049c8:	00000013          	nop
    800049cc:	01813083          	ld	ra,24(sp)
    800049d0:	01013403          	ld	s0,16(sp)
    800049d4:	02010113          	addi	sp,sp,32
    800049d8:	00008067          	ret

00000000800049dc <bench_md5_run>:
    800049dc:	ff010113          	addi	sp,sp,-16
    800049e0:	00113423          	sd	ra,8(sp)
    800049e4:	00813023          	sd	s0,0(sp)
    800049e8:	01010413          	addi	s0,sp,16
    800049ec:	00008797          	auipc	a5,0x8
    800049f0:	91478793          	addi	a5,a5,-1772 # 8000c300 <str>
    800049f4:	0007b703          	ld	a4,0(a5)
    800049f8:	00008797          	auipc	a5,0x8
    800049fc:	90078793          	addi	a5,a5,-1792 # 8000c2f8 <N>
    80004a00:	0007a783          	lw	a5,0(a5)
    80004a04:	00078693          	mv	a3,a5
    80004a08:	00008797          	auipc	a5,0x8
    80004a0c:	90078793          	addi	a5,a5,-1792 # 8000c308 <digest>
    80004a10:	0007b783          	ld	a5,0(a5)
    80004a14:	00078613          	mv	a2,a5
    80004a18:	00068593          	mv	a1,a3
    80004a1c:	00070513          	mv	a0,a4
    80004a20:	a59ff0ef          	jal	ra,80004478 <md5>
    80004a24:	00000013          	nop
    80004a28:	00813083          	ld	ra,8(sp)
    80004a2c:	00013403          	ld	s0,0(sp)
    80004a30:	01010113          	addi	sp,sp,16
    80004a34:	00008067          	ret

0000000080004a38 <bench_md5_validate>:
    80004a38:	ff010113          	addi	sp,sp,-16
    80004a3c:	00113423          	sd	ra,8(sp)
    80004a40:	00813023          	sd	s0,0(sp)
    80004a44:	01010413          	addi	s0,sp,16
    80004a48:	00008797          	auipc	a5,0x8
    80004a4c:	8c078793          	addi	a5,a5,-1856 # 8000c308 <digest>
    80004a50:	0007b703          	ld	a4,0(a5)
    80004a54:	00008797          	auipc	a5,0x8
    80004a58:	8b478793          	addi	a5,a5,-1868 # 8000c308 <digest>
    80004a5c:	0007b783          	ld	a5,0(a5)
    80004a60:	01078793          	addi	a5,a5,16
    80004a64:	00078593          	mv	a1,a5
    80004a68:	00070513          	mv	a0,a4
    80004a6c:	de1fb0ef          	jal	ra,8000084c <checksum>
    80004a70:	00050793          	mv	a5,a0
    80004a74:	0007871b          	sext.w	a4,a5
    80004a78:	00008797          	auipc	a5,0x8
    80004a7c:	8e078793          	addi	a5,a5,-1824 # 8000c358 <setting>
    80004a80:	0007b783          	ld	a5,0(a5)
    80004a84:	0187a783          	lw	a5,24(a5)
    80004a88:	40f707b3          	sub	a5,a4,a5
    80004a8c:	0017b793          	seqz	a5,a5
    80004a90:	0ff7f793          	zext.b	a5,a5
    80004a94:	0007879b          	sext.w	a5,a5
    80004a98:	00078513          	mv	a0,a5
    80004a9c:	00813083          	ld	ra,8(sp)
    80004aa0:	00013403          	ld	s0,0(sp)
    80004aa4:	01010113          	addi	sp,sp,16
    80004aa8:	00008067          	ret

0000000080004aac <put>:
    80004aac:	fd010113          	addi	sp,sp,-48
    80004ab0:	02813423          	sd	s0,40(sp)
    80004ab4:	03010413          	addi	s0,sp,48
    80004ab8:	fea43423          	sd	a0,-24(s0)
    80004abc:	00058793          	mv	a5,a1
    80004ac0:	00068713          	mv	a4,a3
    80004ac4:	fef42223          	sw	a5,-28(s0)
    80004ac8:	00060793          	mv	a5,a2
    80004acc:	fef42023          	sw	a5,-32(s0)
    80004ad0:	00070793          	mv	a5,a4
    80004ad4:	fcf42e23          	sw	a5,-36(s0)
    80004ad8:	00008797          	auipc	a5,0x8
    80004adc:	83878793          	addi	a5,a5,-1992 # 8000c310 <M>
    80004ae0:	0007a783          	lw	a5,0(a5)
    80004ae4:	fe442703          	lw	a4,-28(s0)
    80004ae8:	02f707bb          	mulw	a5,a4,a5
    80004aec:	0007879b          	sext.w	a5,a5
    80004af0:	fe042703          	lw	a4,-32(s0)
    80004af4:	00f707bb          	addw	a5,a4,a5
    80004af8:	0007879b          	sext.w	a5,a5
    80004afc:	00279793          	slli	a5,a5,0x2
    80004b00:	fe843703          	ld	a4,-24(s0)
    80004b04:	00f707b3          	add	a5,a4,a5
    80004b08:	fdc42703          	lw	a4,-36(s0)
    80004b0c:	00e7a023          	sw	a4,0(a5)
    80004b10:	00000013          	nop
    80004b14:	02813403          	ld	s0,40(sp)
    80004b18:	03010113          	addi	sp,sp,48
    80004b1c:	00008067          	ret

0000000080004b20 <get>:
    80004b20:	fe010113          	addi	sp,sp,-32
    80004b24:	00813c23          	sd	s0,24(sp)
    80004b28:	02010413          	addi	s0,sp,32
    80004b2c:	fea43423          	sd	a0,-24(s0)
    80004b30:	00058793          	mv	a5,a1
    80004b34:	00060713          	mv	a4,a2
    80004b38:	fef42223          	sw	a5,-28(s0)
    80004b3c:	00070793          	mv	a5,a4
    80004b40:	fef42023          	sw	a5,-32(s0)
    80004b44:	00007797          	auipc	a5,0x7
    80004b48:	7cc78793          	addi	a5,a5,1996 # 8000c310 <M>
    80004b4c:	0007a783          	lw	a5,0(a5)
    80004b50:	fe442703          	lw	a4,-28(s0)
    80004b54:	02f707bb          	mulw	a5,a4,a5
    80004b58:	0007879b          	sext.w	a5,a5
    80004b5c:	fe042703          	lw	a4,-32(s0)
    80004b60:	00f707bb          	addw	a5,a4,a5
    80004b64:	0007879b          	sext.w	a5,a5
    80004b68:	00279793          	slli	a5,a5,0x2
    80004b6c:	fe843703          	ld	a4,-24(s0)
    80004b70:	00f707b3          	add	a5,a4,a5
    80004b74:	0007a783          	lw	a5,0(a5)
    80004b78:	00078513          	mv	a0,a5
    80004b7c:	01813403          	ld	s0,24(sp)
    80004b80:	02010113          	addi	sp,sp,32
    80004b84:	00008067          	ret

0000000080004b88 <mult>:
    80004b88:	fb010113          	addi	sp,sp,-80
    80004b8c:	04113423          	sd	ra,72(sp)
    80004b90:	04813023          	sd	s0,64(sp)
    80004b94:	02913c23          	sd	s1,56(sp)
    80004b98:	03213823          	sd	s2,48(sp)
    80004b9c:	05010413          	addi	s0,sp,80
    80004ba0:	fca43423          	sd	a0,-56(s0)
    80004ba4:	fcb43023          	sd	a1,-64(s0)
    80004ba8:	fac43c23          	sd	a2,-72(s0)
    80004bac:	fc042e23          	sw	zero,-36(s0)
    80004bb0:	10c0006f          	j	80004cbc <mult+0x134>
    80004bb4:	fc042c23          	sw	zero,-40(s0)
    80004bb8:	0e00006f          	j	80004c98 <mult+0x110>
    80004bbc:	fd842703          	lw	a4,-40(s0)
    80004bc0:	fdc42783          	lw	a5,-36(s0)
    80004bc4:	00000693          	li	a3,0
    80004bc8:	00070613          	mv	a2,a4
    80004bcc:	00078593          	mv	a1,a5
    80004bd0:	fc843503          	ld	a0,-56(s0)
    80004bd4:	ed9ff0ef          	jal	ra,80004aac <put>
    80004bd8:	fc042a23          	sw	zero,-44(s0)
    80004bdc:	0980006f          	j	80004c74 <mult+0xec>
    80004be0:	fd842703          	lw	a4,-40(s0)
    80004be4:	fdc42783          	lw	a5,-36(s0)
    80004be8:	00070613          	mv	a2,a4
    80004bec:	00078593          	mv	a1,a5
    80004bf0:	fc843503          	ld	a0,-56(s0)
    80004bf4:	f2dff0ef          	jal	ra,80004b20 <get>
    80004bf8:	00050793          	mv	a5,a0
    80004bfc:	0007849b          	sext.w	s1,a5
    80004c00:	fd442703          	lw	a4,-44(s0)
    80004c04:	fdc42783          	lw	a5,-36(s0)
    80004c08:	00070613          	mv	a2,a4
    80004c0c:	00078593          	mv	a1,a5
    80004c10:	fc043503          	ld	a0,-64(s0)
    80004c14:	f0dff0ef          	jal	ra,80004b20 <get>
    80004c18:	00050793          	mv	a5,a0
    80004c1c:	0007891b          	sext.w	s2,a5
    80004c20:	fd842703          	lw	a4,-40(s0)
    80004c24:	fd442783          	lw	a5,-44(s0)
    80004c28:	00070613          	mv	a2,a4
    80004c2c:	00078593          	mv	a1,a5
    80004c30:	fb843503          	ld	a0,-72(s0)
    80004c34:	eedff0ef          	jal	ra,80004b20 <get>
    80004c38:	00050793          	mv	a5,a0
    80004c3c:	0007879b          	sext.w	a5,a5
    80004c40:	02f907bb          	mulw	a5,s2,a5
    80004c44:	0007879b          	sext.w	a5,a5
    80004c48:	00f487bb          	addw	a5,s1,a5
    80004c4c:	0007869b          	sext.w	a3,a5
    80004c50:	fd842703          	lw	a4,-40(s0)
    80004c54:	fdc42783          	lw	a5,-36(s0)
    80004c58:	00070613          	mv	a2,a4
    80004c5c:	00078593          	mv	a1,a5
    80004c60:	fc843503          	ld	a0,-56(s0)
    80004c64:	e49ff0ef          	jal	ra,80004aac <put>
    80004c68:	fd442783          	lw	a5,-44(s0)
    80004c6c:	0017879b          	addiw	a5,a5,1
    80004c70:	fcf42a23          	sw	a5,-44(s0)
    80004c74:	00007797          	auipc	a5,0x7
    80004c78:	69c78793          	addi	a5,a5,1692 # 8000c310 <M>
    80004c7c:	0007a703          	lw	a4,0(a5)
    80004c80:	fd442783          	lw	a5,-44(s0)
    80004c84:	0007879b          	sext.w	a5,a5
    80004c88:	f4e7cce3          	blt	a5,a4,80004be0 <mult+0x58>
    80004c8c:	fd842783          	lw	a5,-40(s0)
    80004c90:	0017879b          	addiw	a5,a5,1
    80004c94:	fcf42c23          	sw	a5,-40(s0)
    80004c98:	00007797          	auipc	a5,0x7
    80004c9c:	67878793          	addi	a5,a5,1656 # 8000c310 <M>
    80004ca0:	0007a703          	lw	a4,0(a5)
    80004ca4:	fd842783          	lw	a5,-40(s0)
    80004ca8:	0007879b          	sext.w	a5,a5
    80004cac:	f0e7c8e3          	blt	a5,a4,80004bbc <mult+0x34>
    80004cb0:	fdc42783          	lw	a5,-36(s0)
    80004cb4:	0017879b          	addiw	a5,a5,1
    80004cb8:	fcf42e23          	sw	a5,-36(s0)
    80004cbc:	00007797          	auipc	a5,0x7
    80004cc0:	65478793          	addi	a5,a5,1620 # 8000c310 <M>
    80004cc4:	0007a703          	lw	a4,0(a5)
    80004cc8:	fdc42783          	lw	a5,-36(s0)
    80004ccc:	0007879b          	sext.w	a5,a5
    80004cd0:	eee7c2e3          	blt	a5,a4,80004bb4 <mult+0x2c>
    80004cd4:	00000013          	nop
    80004cd8:	00000013          	nop
    80004cdc:	04813083          	ld	ra,72(sp)
    80004ce0:	04013403          	ld	s0,64(sp)
    80004ce4:	03813483          	ld	s1,56(sp)
    80004ce8:	03013903          	ld	s2,48(sp)
    80004cec:	05010113          	addi	sp,sp,80
    80004cf0:	00008067          	ret

0000000080004cf4 <assign>:
    80004cf4:	fd010113          	addi	sp,sp,-48
    80004cf8:	02113423          	sd	ra,40(sp)
    80004cfc:	02813023          	sd	s0,32(sp)
    80004d00:	03010413          	addi	s0,sp,48
    80004d04:	fca43c23          	sd	a0,-40(s0)
    80004d08:	fcb43823          	sd	a1,-48(s0)
    80004d0c:	fe042623          	sw	zero,-20(s0)
    80004d10:	0740006f          	j	80004d84 <assign+0x90>
    80004d14:	fe042423          	sw	zero,-24(s0)
    80004d18:	0480006f          	j	80004d60 <assign+0x6c>
    80004d1c:	fe842703          	lw	a4,-24(s0)
    80004d20:	fec42783          	lw	a5,-20(s0)
    80004d24:	00070613          	mv	a2,a4
    80004d28:	00078593          	mv	a1,a5
    80004d2c:	fd043503          	ld	a0,-48(s0)
    80004d30:	df1ff0ef          	jal	ra,80004b20 <get>
    80004d34:	00050793          	mv	a5,a0
    80004d38:	0007869b          	sext.w	a3,a5
    80004d3c:	fe842703          	lw	a4,-24(s0)
    80004d40:	fec42783          	lw	a5,-20(s0)
    80004d44:	00070613          	mv	a2,a4
    80004d48:	00078593          	mv	a1,a5
    80004d4c:	fd843503          	ld	a0,-40(s0)
    80004d50:	d5dff0ef          	jal	ra,80004aac <put>
    80004d54:	fe842783          	lw	a5,-24(s0)
    80004d58:	0017879b          	addiw	a5,a5,1
    80004d5c:	fef42423          	sw	a5,-24(s0)
    80004d60:	00007797          	auipc	a5,0x7
    80004d64:	5b078793          	addi	a5,a5,1456 # 8000c310 <M>
    80004d68:	0007a703          	lw	a4,0(a5)
    80004d6c:	fe842783          	lw	a5,-24(s0)
    80004d70:	0007879b          	sext.w	a5,a5
    80004d74:	fae7c4e3          	blt	a5,a4,80004d1c <assign+0x28>
    80004d78:	fec42783          	lw	a5,-20(s0)
    80004d7c:	0017879b          	addiw	a5,a5,1
    80004d80:	fef42623          	sw	a5,-20(s0)
    80004d84:	00007797          	auipc	a5,0x7
    80004d88:	58c78793          	addi	a5,a5,1420 # 8000c310 <M>
    80004d8c:	0007a703          	lw	a4,0(a5)
    80004d90:	fec42783          	lw	a5,-20(s0)
    80004d94:	0007879b          	sext.w	a5,a5
    80004d98:	f6e7cee3          	blt	a5,a4,80004d14 <assign+0x20>
    80004d9c:	00000013          	nop
    80004da0:	00000013          	nop
    80004da4:	02813083          	ld	ra,40(sp)
    80004da8:	02013403          	ld	s0,32(sp)
    80004dac:	03010113          	addi	sp,sp,48
    80004db0:	00008067          	ret

0000000080004db4 <bench_fib_prepare>:
    80004db4:	fe010113          	addi	sp,sp,-32
    80004db8:	00113c23          	sd	ra,24(sp)
    80004dbc:	00813823          	sd	s0,16(sp)
    80004dc0:	02010413          	addi	s0,sp,32
    80004dc4:	00007797          	auipc	a5,0x7
    80004dc8:	59478793          	addi	a5,a5,1428 # 8000c358 <setting>
    80004dcc:	0007b783          	ld	a5,0(a5)
    80004dd0:	0007a703          	lw	a4,0(a5)
    80004dd4:	00007797          	auipc	a5,0x7
    80004dd8:	53c78793          	addi	a5,a5,1340 # 8000c310 <M>
    80004ddc:	00e7a023          	sw	a4,0(a5)
    80004de0:	00007797          	auipc	a5,0x7
    80004de4:	53078793          	addi	a5,a5,1328 # 8000c310 <M>
    80004de8:	0007a783          	lw	a5,0(a5)
    80004dec:	0007871b          	sext.w	a4,a5
    80004df0:	00007797          	auipc	a5,0x7
    80004df4:	52078793          	addi	a5,a5,1312 # 8000c310 <M>
    80004df8:	0007a783          	lw	a5,0(a5)
    80004dfc:	0007879b          	sext.w	a5,a5
    80004e00:	02f707bb          	mulw	a5,a4,a5
    80004e04:	0007879b          	sext.w	a5,a5
    80004e08:	0027979b          	slliw	a5,a5,0x2
    80004e0c:	0007879b          	sext.w	a5,a5
    80004e10:	fef42623          	sw	a5,-20(s0)
    80004e14:	fec42783          	lw	a5,-20(s0)
    80004e18:	00078513          	mv	a0,a5
    80004e1c:	ffcfb0ef          	jal	ra,80000618 <bench_alloc>
    80004e20:	00050713          	mv	a4,a0
    80004e24:	00007797          	auipc	a5,0x7
    80004e28:	4f478793          	addi	a5,a5,1268 # 8000c318 <A>
    80004e2c:	00e7b023          	sd	a4,0(a5)
    80004e30:	fec42783          	lw	a5,-20(s0)
    80004e34:	00078513          	mv	a0,a5
    80004e38:	fe0fb0ef          	jal	ra,80000618 <bench_alloc>
    80004e3c:	00050713          	mv	a4,a0
    80004e40:	00007797          	auipc	a5,0x7
    80004e44:	4e878793          	addi	a5,a5,1256 # 8000c328 <T>
    80004e48:	00e7b023          	sd	a4,0(a5)
    80004e4c:	fec42783          	lw	a5,-20(s0)
    80004e50:	00078513          	mv	a0,a5
    80004e54:	fc4fb0ef          	jal	ra,80000618 <bench_alloc>
    80004e58:	00050713          	mv	a4,a0
    80004e5c:	00007797          	auipc	a5,0x7
    80004e60:	4c478793          	addi	a5,a5,1220 # 8000c320 <ans>
    80004e64:	00e7b023          	sd	a4,0(a5)
    80004e68:	fec42783          	lw	a5,-20(s0)
    80004e6c:	00078513          	mv	a0,a5
    80004e70:	fa8fb0ef          	jal	ra,80000618 <bench_alloc>
    80004e74:	00050713          	mv	a4,a0
    80004e78:	00007797          	auipc	a5,0x7
    80004e7c:	4b878793          	addi	a5,a5,1208 # 8000c330 <tmp>
    80004e80:	00e7b023          	sd	a4,0(a5)
    80004e84:	00000013          	nop
    80004e88:	01813083          	ld	ra,24(sp)
    80004e8c:	01013403          	ld	s0,16(sp)
    80004e90:	02010113          	addi	sp,sp,32
    80004e94:	00008067          	ret

0000000080004e98 <bench_fib_run>:
    80004e98:	fe010113          	addi	sp,sp,-32
    80004e9c:	00113c23          	sd	ra,24(sp)
    80004ea0:	00813823          	sd	s0,16(sp)
    80004ea4:	02010413          	addi	s0,sp,32
    80004ea8:	fe042623          	sw	zero,-20(s0)
    80004eac:	10c0006f          	j	80004fb8 <bench_fib_run+0x120>
    80004eb0:	fe042423          	sw	zero,-24(s0)
    80004eb4:	0e00006f          	j	80004f94 <bench_fib_run+0xfc>
    80004eb8:	00007797          	auipc	a5,0x7
    80004ebc:	45878793          	addi	a5,a5,1112 # 8000c310 <M>
    80004ec0:	0007a783          	lw	a5,0(a5)
    80004ec4:	fff7879b          	addiw	a5,a5,-1
    80004ec8:	0007871b          	sext.w	a4,a5
    80004ecc:	fec42783          	lw	a5,-20(s0)
    80004ed0:	0007879b          	sext.w	a5,a5
    80004ed4:	00e78e63          	beq	a5,a4,80004ef0 <bench_fib_run+0x58>
    80004ed8:	fec42783          	lw	a5,-20(s0)
    80004edc:	0017879b          	addiw	a5,a5,1
    80004ee0:	0007871b          	sext.w	a4,a5
    80004ee4:	fe842783          	lw	a5,-24(s0)
    80004ee8:	0007879b          	sext.w	a5,a5
    80004eec:	00e79663          	bne	a5,a4,80004ef8 <bench_fib_run+0x60>
    80004ef0:	00100793          	li	a5,1
    80004ef4:	0080006f          	j	80004efc <bench_fib_run+0x64>
    80004ef8:	00000793          	li	a5,0
    80004efc:	fef42023          	sw	a5,-32(s0)
    80004f00:	00007797          	auipc	a5,0x7
    80004f04:	41878793          	addi	a5,a5,1048 # 8000c318 <A>
    80004f08:	0007b783          	ld	a5,0(a5)
    80004f0c:	fe042683          	lw	a3,-32(s0)
    80004f10:	fe842603          	lw	a2,-24(s0)
    80004f14:	fec42703          	lw	a4,-20(s0)
    80004f18:	00070593          	mv	a1,a4
    80004f1c:	00078513          	mv	a0,a5
    80004f20:	b8dff0ef          	jal	ra,80004aac <put>
    80004f24:	00007797          	auipc	a5,0x7
    80004f28:	40478793          	addi	a5,a5,1028 # 8000c328 <T>
    80004f2c:	0007b783          	ld	a5,0(a5)
    80004f30:	fe042683          	lw	a3,-32(s0)
    80004f34:	fe842603          	lw	a2,-24(s0)
    80004f38:	fec42703          	lw	a4,-20(s0)
    80004f3c:	00070593          	mv	a1,a4
    80004f40:	00078513          	mv	a0,a5
    80004f44:	b69ff0ef          	jal	ra,80004aac <put>
    80004f48:	00007797          	auipc	a5,0x7
    80004f4c:	3d878793          	addi	a5,a5,984 # 8000c320 <ans>
    80004f50:	0007b503          	ld	a0,0(a5)
    80004f54:	fec42703          	lw	a4,-20(s0)
    80004f58:	fe842783          	lw	a5,-24(s0)
    80004f5c:	0007071b          	sext.w	a4,a4
    80004f60:	0007879b          	sext.w	a5,a5
    80004f64:	40f707b3          	sub	a5,a4,a5
    80004f68:	0017b793          	seqz	a5,a5
    80004f6c:	0ff7f793          	zext.b	a5,a5
    80004f70:	0007869b          	sext.w	a3,a5
    80004f74:	fe842703          	lw	a4,-24(s0)
    80004f78:	fec42783          	lw	a5,-20(s0)
    80004f7c:	00070613          	mv	a2,a4
    80004f80:	00078593          	mv	a1,a5
    80004f84:	b29ff0ef          	jal	ra,80004aac <put>
    80004f88:	fe842783          	lw	a5,-24(s0)
    80004f8c:	0017879b          	addiw	a5,a5,1
    80004f90:	fef42423          	sw	a5,-24(s0)
    80004f94:	00007797          	auipc	a5,0x7
    80004f98:	37c78793          	addi	a5,a5,892 # 8000c310 <M>
    80004f9c:	0007a703          	lw	a4,0(a5)
    80004fa0:	fe842783          	lw	a5,-24(s0)
    80004fa4:	0007879b          	sext.w	a5,a5
    80004fa8:	f0e7c8e3          	blt	a5,a4,80004eb8 <bench_fib_run+0x20>
    80004fac:	fec42783          	lw	a5,-20(s0)
    80004fb0:	0017879b          	addiw	a5,a5,1
    80004fb4:	fef42623          	sw	a5,-20(s0)
    80004fb8:	00007797          	auipc	a5,0x7
    80004fbc:	35878793          	addi	a5,a5,856 # 8000c310 <M>
    80004fc0:	0007a703          	lw	a4,0(a5)
    80004fc4:	fec42783          	lw	a5,-20(s0)
    80004fc8:	0007879b          	sext.w	a5,a5
    80004fcc:	eee7c2e3          	blt	a5,a4,80004eb0 <bench_fib_run+0x18>
    80004fd0:	800007b7          	lui	a5,0x80000
    80004fd4:	fd37c793          	xori	a5,a5,-45
    80004fd8:	fef42223          	sw	a5,-28(s0)
    80004fdc:	0d00006f          	j	800050ac <bench_fib_run+0x214>
    80004fe0:	fe442783          	lw	a5,-28(s0)
    80004fe4:	0017f793          	andi	a5,a5,1
    80004fe8:	0007879b          	sext.w	a5,a5
    80004fec:	04078e63          	beqz	a5,80005048 <bench_fib_run+0x1b0>
    80004ff0:	00007797          	auipc	a5,0x7
    80004ff4:	34078793          	addi	a5,a5,832 # 8000c330 <tmp>
    80004ff8:	0007b703          	ld	a4,0(a5)
    80004ffc:	00007797          	auipc	a5,0x7
    80005000:	32478793          	addi	a5,a5,804 # 8000c320 <ans>
    80005004:	0007b683          	ld	a3,0(a5)
    80005008:	00007797          	auipc	a5,0x7
    8000500c:	32078793          	addi	a5,a5,800 # 8000c328 <T>
    80005010:	0007b783          	ld	a5,0(a5)
    80005014:	00078613          	mv	a2,a5
    80005018:	00068593          	mv	a1,a3
    8000501c:	00070513          	mv	a0,a4
    80005020:	b69ff0ef          	jal	ra,80004b88 <mult>
    80005024:	00007797          	auipc	a5,0x7
    80005028:	2fc78793          	addi	a5,a5,764 # 8000c320 <ans>
    8000502c:	0007b703          	ld	a4,0(a5)
    80005030:	00007797          	auipc	a5,0x7
    80005034:	30078793          	addi	a5,a5,768 # 8000c330 <tmp>
    80005038:	0007b783          	ld	a5,0(a5)
    8000503c:	00078593          	mv	a1,a5
    80005040:	00070513          	mv	a0,a4
    80005044:	cb1ff0ef          	jal	ra,80004cf4 <assign>
    80005048:	00007797          	auipc	a5,0x7
    8000504c:	2e878793          	addi	a5,a5,744 # 8000c330 <tmp>
    80005050:	0007b703          	ld	a4,0(a5)
    80005054:	00007797          	auipc	a5,0x7
    80005058:	2d478793          	addi	a5,a5,724 # 8000c328 <T>
    8000505c:	0007b683          	ld	a3,0(a5)
    80005060:	00007797          	auipc	a5,0x7
    80005064:	2c878793          	addi	a5,a5,712 # 8000c328 <T>
    80005068:	0007b783          	ld	a5,0(a5)
    8000506c:	00078613          	mv	a2,a5
    80005070:	00068593          	mv	a1,a3
    80005074:	00070513          	mv	a0,a4
    80005078:	b11ff0ef          	jal	ra,80004b88 <mult>
    8000507c:	00007797          	auipc	a5,0x7
    80005080:	2ac78793          	addi	a5,a5,684 # 8000c328 <T>
    80005084:	0007b703          	ld	a4,0(a5)
    80005088:	00007797          	auipc	a5,0x7
    8000508c:	2a878793          	addi	a5,a5,680 # 8000c330 <tmp>
    80005090:	0007b783          	ld	a5,0(a5)
    80005094:	00078593          	mv	a1,a5
    80005098:	00070513          	mv	a0,a4
    8000509c:	c59ff0ef          	jal	ra,80004cf4 <assign>
    800050a0:	fe442783          	lw	a5,-28(s0)
    800050a4:	4017d79b          	sraiw	a5,a5,0x1
    800050a8:	fef42223          	sw	a5,-28(s0)
    800050ac:	fe442783          	lw	a5,-28(s0)
    800050b0:	0007879b          	sext.w	a5,a5
    800050b4:	f2f046e3          	bgtz	a5,80004fe0 <bench_fib_run+0x148>
    800050b8:	00000013          	nop
    800050bc:	00000013          	nop
    800050c0:	01813083          	ld	ra,24(sp)
    800050c4:	01013403          	ld	s0,16(sp)
    800050c8:	02010113          	addi	sp,sp,32
    800050cc:	00008067          	ret

00000000800050d0 <bench_fib_validate>:
    800050d0:	ff010113          	addi	sp,sp,-16
    800050d4:	00113423          	sd	ra,8(sp)
    800050d8:	00813023          	sd	s0,0(sp)
    800050dc:	01010413          	addi	s0,sp,16
    800050e0:	00007797          	auipc	a5,0x7
    800050e4:	24078793          	addi	a5,a5,576 # 8000c320 <ans>
    800050e8:	0007b703          	ld	a4,0(a5)
    800050ec:	00007797          	auipc	a5,0x7
    800050f0:	22478793          	addi	a5,a5,548 # 8000c310 <M>
    800050f4:	0007a783          	lw	a5,0(a5)
    800050f8:	fff7879b          	addiw	a5,a5,-1
    800050fc:	0007869b          	sext.w	a3,a5
    80005100:	00007797          	auipc	a5,0x7
    80005104:	21078793          	addi	a5,a5,528 # 8000c310 <M>
    80005108:	0007a783          	lw	a5,0(a5)
    8000510c:	fff7879b          	addiw	a5,a5,-1
    80005110:	0007879b          	sext.w	a5,a5
    80005114:	00078613          	mv	a2,a5
    80005118:	00068593          	mv	a1,a3
    8000511c:	00070513          	mv	a0,a4
    80005120:	a01ff0ef          	jal	ra,80004b20 <get>
    80005124:	00050793          	mv	a5,a0
    80005128:	0007871b          	sext.w	a4,a5
    8000512c:	00007797          	auipc	a5,0x7
    80005130:	22c78793          	addi	a5,a5,556 # 8000c358 <setting>
    80005134:	0007b783          	ld	a5,0(a5)
    80005138:	0187a783          	lw	a5,24(a5)
    8000513c:	40f707b3          	sub	a5,a4,a5
    80005140:	0017b793          	seqz	a5,a5
    80005144:	0ff7f793          	zext.b	a5,a5
    80005148:	0007879b          	sext.w	a5,a5
    8000514c:	00078513          	mv	a0,a5
    80005150:	00813083          	ld	ra,8(sp)
    80005154:	00013403          	ld	s0,0(sp)
    80005158:	01010113          	addi	sp,sp,16
    8000515c:	00008067          	ret

0000000080005160 <bench_dinic_prepare>:
    80005160:	fc010113          	addi	sp,sp,-64
    80005164:	02113c23          	sd	ra,56(sp)
    80005168:	02813823          	sd	s0,48(sp)
    8000516c:	02913423          	sd	s1,40(sp)
    80005170:	03213023          	sd	s2,32(sp)
    80005174:	04010413          	addi	s0,sp,64
    80005178:	00007797          	auipc	a5,0x7
    8000517c:	1e078793          	addi	a5,a5,480 # 8000c358 <setting>
    80005180:	0007b783          	ld	a5,0(a5)
    80005184:	0007a703          	lw	a4,0(a5)
    80005188:	00007797          	auipc	a5,0x7
    8000518c:	1b078793          	addi	a5,a5,432 # 8000c338 <_ZL1N>
    80005190:	00e7a023          	sw	a4,0(a5)
    80005194:	00100513          	li	a0,1
    80005198:	df4fb0ef          	jal	ra,8000078c <bench_srand>
    8000519c:	00007797          	auipc	a5,0x7
    800051a0:	19c78793          	addi	a5,a5,412 # 8000c338 <_ZL1N>
    800051a4:	0007a783          	lw	a5,0(a5)
    800051a8:	0017979b          	slliw	a5,a5,0x1
    800051ac:	fcf42823          	sw	a5,-48(s0)
    800051b0:	00007797          	auipc	a5,0x7
    800051b4:	18878793          	addi	a5,a5,392 # 8000c338 <_ZL1N>
    800051b8:	0007a783          	lw	a5,0(a5)
    800051bc:	0017979b          	slliw	a5,a5,0x1
    800051c0:	0007879b          	sext.w	a5,a5
    800051c4:	0017879b          	addiw	a5,a5,1
    800051c8:	fcf42623          	sw	a5,-52(s0)
    800051cc:	04800513          	li	a0,72
    800051d0:	c48fb0ef          	jal	ra,80000618 <bench_alloc>
    800051d4:	00050713          	mv	a4,a0
    800051d8:	00007797          	auipc	a5,0x7
    800051dc:	16878793          	addi	a5,a5,360 # 8000c340 <_ZL1G>
    800051e0:	00e7b023          	sd	a4,0(a5)
    800051e4:	00007797          	auipc	a5,0x7
    800051e8:	15c78793          	addi	a5,a5,348 # 8000c340 <_ZL1G>
    800051ec:	0007b703          	ld	a4,0(a5)
    800051f0:	00007797          	auipc	a5,0x7
    800051f4:	14878793          	addi	a5,a5,328 # 8000c338 <_ZL1N>
    800051f8:	0007a783          	lw	a5,0(a5)
    800051fc:	0017879b          	addiw	a5,a5,1
    80005200:	0007879b          	sext.w	a5,a5
    80005204:	0017979b          	slliw	a5,a5,0x1
    80005208:	0007879b          	sext.w	a5,a5
    8000520c:	00078593          	mv	a1,a5
    80005210:	00070513          	mv	a0,a4
    80005214:	7b8020ef          	jal	ra,800079cc <_ZN5Dinic4initEi>
    80005218:	fc042e23          	sw	zero,-36(s0)
    8000521c:	00007797          	auipc	a5,0x7
    80005220:	11c78793          	addi	a5,a5,284 # 8000c338 <_ZL1N>
    80005224:	0007a703          	lw	a4,0(a5)
    80005228:	fdc42783          	lw	a5,-36(s0)
    8000522c:	0007879b          	sext.w	a5,a5
    80005230:	08e7de63          	bge	a5,a4,800052cc <bench_dinic_prepare+0x16c>
    80005234:	fc042c23          	sw	zero,-40(s0)
    80005238:	00007797          	auipc	a5,0x7
    8000523c:	10078793          	addi	a5,a5,256 # 8000c338 <_ZL1N>
    80005240:	0007a703          	lw	a4,0(a5)
    80005244:	fd842783          	lw	a5,-40(s0)
    80005248:	0007879b          	sext.w	a5,a5
    8000524c:	06e7d863          	bge	a5,a4,800052bc <bench_dinic_prepare+0x15c>
    80005250:	00007797          	auipc	a5,0x7
    80005254:	0f078793          	addi	a5,a5,240 # 8000c340 <_ZL1G>
    80005258:	0007b483          	ld	s1,0(a5)
    8000525c:	00007797          	auipc	a5,0x7
    80005260:	0dc78793          	addi	a5,a5,220 # 8000c338 <_ZL1N>
    80005264:	0007a783          	lw	a5,0(a5)
    80005268:	fd842703          	lw	a4,-40(s0)
    8000526c:	00f707bb          	addw	a5,a4,a5
    80005270:	0007891b          	sext.w	s2,a5
    80005274:	d5cfb0ef          	jal	ra,800007d0 <bench_rand>
    80005278:	00050793          	mv	a5,a0
    8000527c:	0007879b          	sext.w	a5,a5
    80005280:	00078713          	mv	a4,a5
    80005284:	00a00793          	li	a5,10
    80005288:	02f777bb          	remuw	a5,a4,a5
    8000528c:	0007879b          	sext.w	a5,a5
    80005290:	0007871b          	sext.w	a4,a5
    80005294:	fdc42783          	lw	a5,-36(s0)
    80005298:	00070693          	mv	a3,a4
    8000529c:	00090613          	mv	a2,s2
    800052a0:	00078593          	mv	a1,a5
    800052a4:	00048513          	mv	a0,s1
    800052a8:	0b1020ef          	jal	ra,80007b58 <_ZN5Dinic7AddEdgeEiii>
    800052ac:	fd842783          	lw	a5,-40(s0)
    800052b0:	0017879b          	addiw	a5,a5,1
    800052b4:	fcf42c23          	sw	a5,-40(s0)
    800052b8:	f81ff06f          	j	80005238 <bench_dinic_prepare+0xd8>
    800052bc:	fdc42783          	lw	a5,-36(s0)
    800052c0:	0017879b          	addiw	a5,a5,1
    800052c4:	fcf42e23          	sw	a5,-36(s0)
    800052c8:	f55ff06f          	j	8000521c <bench_dinic_prepare+0xbc>
    800052cc:	fc042a23          	sw	zero,-44(s0)
    800052d0:	00007797          	auipc	a5,0x7
    800052d4:	06878793          	addi	a5,a5,104 # 8000c338 <_ZL1N>
    800052d8:	0007a703          	lw	a4,0(a5)
    800052dc:	fd442783          	lw	a5,-44(s0)
    800052e0:	0007879b          	sext.w	a5,a5
    800052e4:	0ae7da63          	bge	a5,a4,80005398 <bench_dinic_prepare+0x238>
    800052e8:	00007797          	auipc	a5,0x7
    800052ec:	05878793          	addi	a5,a5,88 # 8000c340 <_ZL1G>
    800052f0:	0007b483          	ld	s1,0(a5)
    800052f4:	cdcfb0ef          	jal	ra,800007d0 <bench_rand>
    800052f8:	00050793          	mv	a5,a0
    800052fc:	0007879b          	sext.w	a5,a5
    80005300:	00078713          	mv	a4,a5
    80005304:	3e800793          	li	a5,1000
    80005308:	02f777bb          	remuw	a5,a4,a5
    8000530c:	0007879b          	sext.w	a5,a5
    80005310:	0007869b          	sext.w	a3,a5
    80005314:	fd442703          	lw	a4,-44(s0)
    80005318:	fd042783          	lw	a5,-48(s0)
    8000531c:	00070613          	mv	a2,a4
    80005320:	00078593          	mv	a1,a5
    80005324:	00048513          	mv	a0,s1
    80005328:	031020ef          	jal	ra,80007b58 <_ZN5Dinic7AddEdgeEiii>
    8000532c:	00007797          	auipc	a5,0x7
    80005330:	01478793          	addi	a5,a5,20 # 8000c340 <_ZL1G>
    80005334:	0007b483          	ld	s1,0(a5)
    80005338:	00007797          	auipc	a5,0x7
    8000533c:	00078793          	mv	a5,a5
    80005340:	0007a783          	lw	a5,0(a5) # 8000c338 <_ZL1N>
    80005344:	fd442703          	lw	a4,-44(s0)
    80005348:	00f707bb          	addw	a5,a4,a5
    8000534c:	0007891b          	sext.w	s2,a5
    80005350:	c80fb0ef          	jal	ra,800007d0 <bench_rand>
    80005354:	00050793          	mv	a5,a0
    80005358:	0007879b          	sext.w	a5,a5
    8000535c:	00078713          	mv	a4,a5
    80005360:	3e800793          	li	a5,1000
    80005364:	02f777bb          	remuw	a5,a4,a5
    80005368:	0007879b          	sext.w	a5,a5
    8000536c:	0007871b          	sext.w	a4,a5
    80005370:	fcc42783          	lw	a5,-52(s0)
    80005374:	00070693          	mv	a3,a4
    80005378:	00078613          	mv	a2,a5
    8000537c:	00090593          	mv	a1,s2
    80005380:	00048513          	mv	a0,s1
    80005384:	7d4020ef          	jal	ra,80007b58 <_ZN5Dinic7AddEdgeEiii>
    80005388:	fd442783          	lw	a5,-44(s0)
    8000538c:	0017879b          	addiw	a5,a5,1
    80005390:	fcf42a23          	sw	a5,-44(s0)
    80005394:	f3dff06f          	j	800052d0 <bench_dinic_prepare+0x170>
    80005398:	00000013          	nop
    8000539c:	03813083          	ld	ra,56(sp)
    800053a0:	03013403          	ld	s0,48(sp)
    800053a4:	02813483          	ld	s1,40(sp)
    800053a8:	02013903          	ld	s2,32(sp)
    800053ac:	04010113          	addi	sp,sp,64
    800053b0:	00008067          	ret

00000000800053b4 <bench_dinic_run>:
    800053b4:	ff010113          	addi	sp,sp,-16
    800053b8:	00113423          	sd	ra,8(sp)
    800053bc:	00813023          	sd	s0,0(sp)
    800053c0:	01010413          	addi	s0,sp,16
    800053c4:	00007797          	auipc	a5,0x7
    800053c8:	f7c78793          	addi	a5,a5,-132 # 8000c340 <_ZL1G>
    800053cc:	0007b703          	ld	a4,0(a5)
    800053d0:	00007797          	auipc	a5,0x7
    800053d4:	f6878793          	addi	a5,a5,-152 # 8000c338 <_ZL1N>
    800053d8:	0007a783          	lw	a5,0(a5)
    800053dc:	0017979b          	slliw	a5,a5,0x1
    800053e0:	0007869b          	sext.w	a3,a5
    800053e4:	00007797          	auipc	a5,0x7
    800053e8:	f5478793          	addi	a5,a5,-172 # 8000c338 <_ZL1N>
    800053ec:	0007a783          	lw	a5,0(a5)
    800053f0:	0017979b          	slliw	a5,a5,0x1
    800053f4:	0007879b          	sext.w	a5,a5
    800053f8:	0017879b          	addiw	a5,a5,1
    800053fc:	0007879b          	sext.w	a5,a5
    80005400:	00078613          	mv	a2,a5
    80005404:	00068593          	mv	a1,a3
    80005408:	00070513          	mv	a0,a4
    8000540c:	55d020ef          	jal	ra,80008168 <_ZN5Dinic7MaxflowEii>
    80005410:	00050793          	mv	a5,a0
    80005414:	00078713          	mv	a4,a5
    80005418:	00007797          	auipc	a5,0x7
    8000541c:	f3078793          	addi	a5,a5,-208 # 8000c348 <_ZL3ans>
    80005420:	00e7a023          	sw	a4,0(a5)
    80005424:	00000013          	nop
    80005428:	00813083          	ld	ra,8(sp)
    8000542c:	00013403          	ld	s0,0(sp)
    80005430:	01010113          	addi	sp,sp,16
    80005434:	00008067          	ret

0000000080005438 <bench_dinic_validate>:
    80005438:	ff010113          	addi	sp,sp,-16
    8000543c:	00813423          	sd	s0,8(sp)
    80005440:	01010413          	addi	s0,sp,16
    80005444:	00007797          	auipc	a5,0x7
    80005448:	f1478793          	addi	a5,a5,-236 # 8000c358 <setting>
    8000544c:	0007b783          	ld	a5,0(a5)
    80005450:	0187a703          	lw	a4,24(a5)
    80005454:	00007797          	auipc	a5,0x7
    80005458:	ef478793          	addi	a5,a5,-268 # 8000c348 <_ZL3ans>
    8000545c:	0007a783          	lw	a5,0(a5)
    80005460:	0007879b          	sext.w	a5,a5
    80005464:	40f707b3          	sub	a5,a4,a5
    80005468:	0017b793          	seqz	a5,a5
    8000546c:	0ff7f793          	zext.b	a5,a5
    80005470:	0007879b          	sext.w	a5,a5
    80005474:	00078513          	mv	a0,a5
    80005478:	00813403          	ld	s0,8(sp)
    8000547c:	01010113          	addi	sp,sp,16
    80005480:	00008067          	ret

Disassembly of section .text._ZN8N_puzzleILi4EEC2Ev:

0000000080005484 <_ZN8N_puzzleILi4EEC1Ev>:
    80005484:	f8010113          	addi	sp,sp,-128
    80005488:	06113c23          	sd	ra,120(sp)
    8000548c:	06813823          	sd	s0,112(sp)
    80005490:	08010413          	addi	s0,sp,128
    80005494:	f8a43423          	sd	a0,-120(s0)
    80005498:	f8843783          	ld	a5,-120(s0)
    8000549c:	00100713          	li	a4,1
    800054a0:	00e78023          	sb	a4,0(a5)
    800054a4:	f8843783          	ld	a5,-120(s0)
    800054a8:	000781a3          	sb	zero,3(a5)
    800054ac:	fe042423          	sw	zero,-24(s0)
    800054b0:	fe842783          	lw	a5,-24(s0)
    800054b4:	0007871b          	sext.w	a4,a5
    800054b8:	00f00793          	li	a5,15
    800054bc:	02e7c663          	blt	a5,a4,800054e8 <_ZN8N_puzzleILi4EEC1Ev+0x64>
    800054c0:	fe842783          	lw	a5,-24(s0)
    800054c4:	00279793          	slli	a5,a5,0x2
    800054c8:	ff040713          	addi	a4,s0,-16
    800054cc:	00f707b3          	add	a5,a4,a5
    800054d0:	fe842703          	lw	a4,-24(s0)
    800054d4:	fae7a423          	sw	a4,-88(a5)
    800054d8:	fe842783          	lw	a5,-24(s0)
    800054dc:	0017879b          	addiw	a5,a5,1
    800054e0:	fef42423          	sw	a5,-24(s0)
    800054e4:	fcdff06f          	j	800054b0 <_ZN8N_puzzleILi4EEC1Ev+0x2c>
    800054e8:	fe042623          	sw	zero,-20(s0)
    800054ec:	fe042223          	sw	zero,-28(s0)
    800054f0:	fe442783          	lw	a5,-28(s0)
    800054f4:	0007871b          	sext.w	a4,a5
    800054f8:	00300793          	li	a5,3
    800054fc:	20e7c663          	blt	a5,a4,80005708 <_ZN8N_puzzleILi4EEC1Ev+0x284>
    80005500:	fe042023          	sw	zero,-32(s0)
    80005504:	fe042783          	lw	a5,-32(s0)
    80005508:	0007871b          	sext.w	a4,a5
    8000550c:	00300793          	li	a5,3
    80005510:	1ee7c463          	blt	a5,a4,800056f8 <_ZN8N_puzzleILi4EEC1Ev+0x274>
    80005514:	abcfb0ef          	jal	ra,800007d0 <bench_rand>
    80005518:	00050793          	mv	a5,a0
    8000551c:	0007869b          	sext.w	a3,a5
    80005520:	01000713          	li	a4,16
    80005524:	fec42783          	lw	a5,-20(s0)
    80005528:	40f707bb          	subw	a5,a4,a5
    8000552c:	0007879b          	sext.w	a5,a5
    80005530:	0007879b          	sext.w	a5,a5
    80005534:	00068713          	mv	a4,a3
    80005538:	02f777bb          	remuw	a5,a4,a5
    8000553c:	0007879b          	sext.w	a5,a5
    80005540:	fcf42e23          	sw	a5,-36(s0)
    80005544:	fdc42783          	lw	a5,-36(s0)
    80005548:	00279793          	slli	a5,a5,0x2
    8000554c:	ff040713          	addi	a4,s0,-16
    80005550:	00f707b3          	add	a5,a4,a5
    80005554:	fa87a783          	lw	a5,-88(a5)
    80005558:	0187971b          	slliw	a4,a5,0x18
    8000555c:	4187571b          	sraiw	a4,a4,0x18
    80005560:	f8843603          	ld	a2,-120(s0)
    80005564:	fe042683          	lw	a3,-32(s0)
    80005568:	fe442783          	lw	a5,-28(s0)
    8000556c:	00279793          	slli	a5,a5,0x2
    80005570:	00f607b3          	add	a5,a2,a5
    80005574:	00d787b3          	add	a5,a5,a3
    80005578:	00e78223          	sb	a4,4(a5)
    8000557c:	fdc42783          	lw	a5,-36(s0)
    80005580:	00279793          	slli	a5,a5,0x2
    80005584:	ff040713          	addi	a4,s0,-16
    80005588:	00f707b3          	add	a5,a4,a5
    8000558c:	fa87a783          	lw	a5,-88(a5)
    80005590:	02079463          	bnez	a5,800055b8 <_ZN8N_puzzleILi4EEC1Ev+0x134>
    80005594:	fe442783          	lw	a5,-28(s0)
    80005598:	0ff7f713          	zext.b	a4,a5
    8000559c:	f8843783          	ld	a5,-120(s0)
    800055a0:	00e780a3          	sb	a4,1(a5)
    800055a4:	fe042783          	lw	a5,-32(s0)
    800055a8:	0ff7f713          	zext.b	a4,a5
    800055ac:	f8843783          	ld	a5,-120(s0)
    800055b0:	00e78123          	sb	a4,2(a5)
    800055b4:	0f40006f          	j	800056a8 <_ZN8N_puzzleILi4EEC1Ev+0x224>
    800055b8:	fdc42783          	lw	a5,-36(s0)
    800055bc:	00279793          	slli	a5,a5,0x2
    800055c0:	ff040713          	addi	a4,s0,-16
    800055c4:	00f707b3          	add	a5,a4,a5
    800055c8:	fa87a783          	lw	a5,-88(a5)
    800055cc:	fff7879b          	addiw	a5,a5,-1
    800055d0:	0007879b          	sext.w	a5,a5
    800055d4:	41f7d71b          	sraiw	a4,a5,0x1f
    800055d8:	01e7571b          	srliw	a4,a4,0x1e
    800055dc:	00f707bb          	addw	a5,a4,a5
    800055e0:	4027d79b          	sraiw	a5,a5,0x2
    800055e4:	0007871b          	sext.w	a4,a5
    800055e8:	fe442783          	lw	a5,-28(s0)
    800055ec:	40f707bb          	subw	a5,a4,a5
    800055f0:	0007879b          	sext.w	a5,a5
    800055f4:	00078513          	mv	a0,a5
    800055f8:	159010ef          	jal	ra,80006f50 <_ZN8N_puzzleILi4EE3absEi>
    800055fc:	00050793          	mv	a5,a0
    80005600:	00078693          	mv	a3,a5
    80005604:	f8843783          	ld	a5,-120(s0)
    80005608:	00378783          	lb	a5,3(a5)
    8000560c:	0ff7f713          	zext.b	a4,a5
    80005610:	0ff6f793          	zext.b	a5,a3
    80005614:	00f707bb          	addw	a5,a4,a5
    80005618:	0ff7f793          	zext.b	a5,a5
    8000561c:	0187971b          	slliw	a4,a5,0x18
    80005620:	4187571b          	sraiw	a4,a4,0x18
    80005624:	f8843783          	ld	a5,-120(s0)
    80005628:	00e781a3          	sb	a4,3(a5)
    8000562c:	fdc42783          	lw	a5,-36(s0)
    80005630:	00279793          	slli	a5,a5,0x2
    80005634:	ff040713          	addi	a4,s0,-16
    80005638:	00f707b3          	add	a5,a4,a5
    8000563c:	fa87a783          	lw	a5,-88(a5)
    80005640:	fff7879b          	addiw	a5,a5,-1
    80005644:	0007879b          	sext.w	a5,a5
    80005648:	00078713          	mv	a4,a5
    8000564c:	41f7579b          	sraiw	a5,a4,0x1f
    80005650:	01e7d79b          	srliw	a5,a5,0x1e
    80005654:	00f7073b          	addw	a4,a4,a5
    80005658:	00377713          	andi	a4,a4,3
    8000565c:	40f707bb          	subw	a5,a4,a5
    80005660:	0007871b          	sext.w	a4,a5
    80005664:	fe042783          	lw	a5,-32(s0)
    80005668:	40f707bb          	subw	a5,a4,a5
    8000566c:	0007879b          	sext.w	a5,a5
    80005670:	00078513          	mv	a0,a5
    80005674:	0dd010ef          	jal	ra,80006f50 <_ZN8N_puzzleILi4EE3absEi>
    80005678:	00050793          	mv	a5,a0
    8000567c:	00078693          	mv	a3,a5
    80005680:	f8843783          	ld	a5,-120(s0)
    80005684:	00378783          	lb	a5,3(a5)
    80005688:	0ff7f713          	zext.b	a4,a5
    8000568c:	0ff6f793          	zext.b	a5,a3
    80005690:	00f707bb          	addw	a5,a4,a5
    80005694:	0ff7f793          	zext.b	a5,a5
    80005698:	0187971b          	slliw	a4,a5,0x18
    8000569c:	4187571b          	sraiw	a4,a4,0x18
    800056a0:	f8843783          	ld	a5,-120(s0)
    800056a4:	00e781a3          	sb	a4,3(a5)
    800056a8:	fec42783          	lw	a5,-20(s0)
    800056ac:	0017879b          	addiw	a5,a5,1
    800056b0:	fef42623          	sw	a5,-20(s0)
    800056b4:	01000713          	li	a4,16
    800056b8:	fec42783          	lw	a5,-20(s0)
    800056bc:	40f707bb          	subw	a5,a4,a5
    800056c0:	0007879b          	sext.w	a5,a5
    800056c4:	00279793          	slli	a5,a5,0x2
    800056c8:	ff040713          	addi	a4,s0,-16
    800056cc:	00f707b3          	add	a5,a4,a5
    800056d0:	fa87a703          	lw	a4,-88(a5)
    800056d4:	fdc42783          	lw	a5,-36(s0)
    800056d8:	00279793          	slli	a5,a5,0x2
    800056dc:	ff040693          	addi	a3,s0,-16
    800056e0:	00f687b3          	add	a5,a3,a5
    800056e4:	fae7a423          	sw	a4,-88(a5)
    800056e8:	fe042783          	lw	a5,-32(s0)
    800056ec:	0017879b          	addiw	a5,a5,1
    800056f0:	fef42023          	sw	a5,-32(s0)
    800056f4:	e11ff06f          	j	80005504 <_ZN8N_puzzleILi4EEC1Ev+0x80>
    800056f8:	fe442783          	lw	a5,-28(s0)
    800056fc:	0017879b          	addiw	a5,a5,1
    80005700:	fef42223          	sw	a5,-28(s0)
    80005704:	dedff06f          	j	800054f0 <_ZN8N_puzzleILi4EEC1Ev+0x6c>
    80005708:	f8843503          	ld	a0,-120(s0)
    8000570c:	081010ef          	jal	ra,80006f8c <_ZN8N_puzzleILi4EE14determine_hashEv>
    80005710:	00000013          	nop
    80005714:	07813083          	ld	ra,120(sp)
    80005718:	07013403          	ld	s0,112(sp)
    8000571c:	08010113          	addi	sp,sp,128
    80005720:	00008067          	ret

Disassembly of section .text._ZN8N_puzzleILi4EEC2EPi:

0000000080005724 <_ZN8N_puzzleILi4EEC1EPi>:
    80005724:	fb010113          	addi	sp,sp,-80
    80005728:	04113423          	sd	ra,72(sp)
    8000572c:	04813023          	sd	s0,64(sp)
    80005730:	05010413          	addi	s0,sp,80
    80005734:	faa43c23          	sd	a0,-72(s0)
    80005738:	fab43823          	sd	a1,-80(s0)
    8000573c:	fb843783          	ld	a5,-72(s0)
    80005740:	00100713          	li	a4,1
    80005744:	00e78023          	sb	a4,0(a5)
    80005748:	fb843783          	ld	a5,-72(s0)
    8000574c:	000781a3          	sb	zero,3(a5)
    80005750:	fe042423          	sw	zero,-24(s0)
    80005754:	fe842783          	lw	a5,-24(s0)
    80005758:	0007871b          	sext.w	a4,a5
    8000575c:	00f00793          	li	a5,15
    80005760:	02e7c263          	blt	a5,a4,80005784 <_ZN8N_puzzleILi4EEC1EPi+0x60>
    80005764:	fe842783          	lw	a5,-24(s0)
    80005768:	ff040713          	addi	a4,s0,-16
    8000576c:	00f707b3          	add	a5,a4,a5
    80005770:	fc078c23          	sb	zero,-40(a5)
    80005774:	fe842783          	lw	a5,-24(s0)
    80005778:	0017879b          	addiw	a5,a5,1
    8000577c:	fef42423          	sw	a5,-24(s0)
    80005780:	fd5ff06f          	j	80005754 <_ZN8N_puzzleILi4EEC1EPi+0x30>
    80005784:	fe042623          	sw	zero,-20(s0)
    80005788:	fe042223          	sw	zero,-28(s0)
    8000578c:	fe442783          	lw	a5,-28(s0)
    80005790:	0007871b          	sext.w	a4,a5
    80005794:	00300793          	li	a5,3
    80005798:	1ce7c663          	blt	a5,a4,80005964 <_ZN8N_puzzleILi4EEC1EPi+0x240>
    8000579c:	fe042023          	sw	zero,-32(s0)
    800057a0:	fe042783          	lw	a5,-32(s0)
    800057a4:	0007871b          	sext.w	a4,a5
    800057a8:	00300793          	li	a5,3
    800057ac:	1ae7c463          	blt	a5,a4,80005954 <_ZN8N_puzzleILi4EEC1EPi+0x230>
    800057b0:	fec42783          	lw	a5,-20(s0)
    800057b4:	00279793          	slli	a5,a5,0x2
    800057b8:	fb043703          	ld	a4,-80(s0)
    800057bc:	00f707b3          	add	a5,a4,a5
    800057c0:	0007a783          	lw	a5,0(a5)
    800057c4:	0187971b          	slliw	a4,a5,0x18
    800057c8:	4187571b          	sraiw	a4,a4,0x18
    800057cc:	fb843603          	ld	a2,-72(s0)
    800057d0:	fe042683          	lw	a3,-32(s0)
    800057d4:	fe442783          	lw	a5,-28(s0)
    800057d8:	00279793          	slli	a5,a5,0x2
    800057dc:	00f607b3          	add	a5,a2,a5
    800057e0:	00d787b3          	add	a5,a5,a3
    800057e4:	00e78223          	sb	a4,4(a5)
    800057e8:	fec42783          	lw	a5,-20(s0)
    800057ec:	00279793          	slli	a5,a5,0x2
    800057f0:	fb043703          	ld	a4,-80(s0)
    800057f4:	00f707b3          	add	a5,a4,a5
    800057f8:	0007a783          	lw	a5,0(a5)
    800057fc:	ff040713          	addi	a4,s0,-16
    80005800:	00f707b3          	add	a5,a4,a5
    80005804:	00100713          	li	a4,1
    80005808:	fce78c23          	sb	a4,-40(a5)
    8000580c:	fec42783          	lw	a5,-20(s0)
    80005810:	00279793          	slli	a5,a5,0x2
    80005814:	fb043703          	ld	a4,-80(s0)
    80005818:	00f707b3          	add	a5,a4,a5
    8000581c:	0007a783          	lw	a5,0(a5)
    80005820:	02079463          	bnez	a5,80005848 <_ZN8N_puzzleILi4EEC1EPi+0x124>
    80005824:	fe442783          	lw	a5,-28(s0)
    80005828:	0ff7f713          	zext.b	a4,a5
    8000582c:	fb843783          	ld	a5,-72(s0)
    80005830:	00e780a3          	sb	a4,1(a5)
    80005834:	fe042783          	lw	a5,-32(s0)
    80005838:	0ff7f713          	zext.b	a4,a5
    8000583c:	fb843783          	ld	a5,-72(s0)
    80005840:	00e78123          	sb	a4,2(a5)
    80005844:	0f40006f          	j	80005938 <_ZN8N_puzzleILi4EEC1EPi+0x214>
    80005848:	fec42783          	lw	a5,-20(s0)
    8000584c:	00279793          	slli	a5,a5,0x2
    80005850:	fb043703          	ld	a4,-80(s0)
    80005854:	00f707b3          	add	a5,a4,a5
    80005858:	0007a783          	lw	a5,0(a5)
    8000585c:	fff7879b          	addiw	a5,a5,-1
    80005860:	0007879b          	sext.w	a5,a5
    80005864:	41f7d71b          	sraiw	a4,a5,0x1f
    80005868:	01e7571b          	srliw	a4,a4,0x1e
    8000586c:	00f707bb          	addw	a5,a4,a5
    80005870:	4027d79b          	sraiw	a5,a5,0x2
    80005874:	0007871b          	sext.w	a4,a5
    80005878:	fe442783          	lw	a5,-28(s0)
    8000587c:	40f707bb          	subw	a5,a4,a5
    80005880:	0007879b          	sext.w	a5,a5
    80005884:	00078513          	mv	a0,a5
    80005888:	6c8010ef          	jal	ra,80006f50 <_ZN8N_puzzleILi4EE3absEi>
    8000588c:	00050793          	mv	a5,a0
    80005890:	00078693          	mv	a3,a5
    80005894:	fb843783          	ld	a5,-72(s0)
    80005898:	00378783          	lb	a5,3(a5)
    8000589c:	0ff7f713          	zext.b	a4,a5
    800058a0:	0ff6f793          	zext.b	a5,a3
    800058a4:	00f707bb          	addw	a5,a4,a5
    800058a8:	0ff7f793          	zext.b	a5,a5
    800058ac:	0187971b          	slliw	a4,a5,0x18
    800058b0:	4187571b          	sraiw	a4,a4,0x18
    800058b4:	fb843783          	ld	a5,-72(s0)
    800058b8:	00e781a3          	sb	a4,3(a5)
    800058bc:	fec42783          	lw	a5,-20(s0)
    800058c0:	00279793          	slli	a5,a5,0x2
    800058c4:	fb043703          	ld	a4,-80(s0)
    800058c8:	00f707b3          	add	a5,a4,a5
    800058cc:	0007a783          	lw	a5,0(a5)
    800058d0:	fff7879b          	addiw	a5,a5,-1
    800058d4:	0007879b          	sext.w	a5,a5
    800058d8:	00078713          	mv	a4,a5
    800058dc:	41f7579b          	sraiw	a5,a4,0x1f
    800058e0:	01e7d79b          	srliw	a5,a5,0x1e
    800058e4:	00f7073b          	addw	a4,a4,a5
    800058e8:	00377713          	andi	a4,a4,3
    800058ec:	40f707bb          	subw	a5,a4,a5
    800058f0:	0007871b          	sext.w	a4,a5
    800058f4:	fe042783          	lw	a5,-32(s0)
    800058f8:	40f707bb          	subw	a5,a4,a5
    800058fc:	0007879b          	sext.w	a5,a5
    80005900:	00078513          	mv	a0,a5
    80005904:	64c010ef          	jal	ra,80006f50 <_ZN8N_puzzleILi4EE3absEi>
    80005908:	00050793          	mv	a5,a0
    8000590c:	00078693          	mv	a3,a5
    80005910:	fb843783          	ld	a5,-72(s0)
    80005914:	00378783          	lb	a5,3(a5)
    80005918:	0ff7f713          	zext.b	a4,a5
    8000591c:	0ff6f793          	zext.b	a5,a3
    80005920:	00f707bb          	addw	a5,a4,a5
    80005924:	0ff7f793          	zext.b	a5,a5
    80005928:	0187971b          	slliw	a4,a5,0x18
    8000592c:	4187571b          	sraiw	a4,a4,0x18
    80005930:	fb843783          	ld	a5,-72(s0)
    80005934:	00e781a3          	sb	a4,3(a5)
    80005938:	fec42783          	lw	a5,-20(s0)
    8000593c:	0017879b          	addiw	a5,a5,1
    80005940:	fef42623          	sw	a5,-20(s0)
    80005944:	fe042783          	lw	a5,-32(s0)
    80005948:	0017879b          	addiw	a5,a5,1
    8000594c:	fef42023          	sw	a5,-32(s0)
    80005950:	e51ff06f          	j	800057a0 <_ZN8N_puzzleILi4EEC1EPi+0x7c>
    80005954:	fe442783          	lw	a5,-28(s0)
    80005958:	0017879b          	addiw	a5,a5,1
    8000595c:	fef42223          	sw	a5,-28(s0)
    80005960:	e2dff06f          	j	8000578c <_ZN8N_puzzleILi4EEC1EPi+0x68>
    80005964:	fc042e23          	sw	zero,-36(s0)
    80005968:	fdc42783          	lw	a5,-36(s0)
    8000596c:	0007871b          	sext.w	a4,a5
    80005970:	00f00793          	li	a5,15
    80005974:	02e7ce63          	blt	a5,a4,800059b0 <_ZN8N_puzzleILi4EEC1EPi+0x28c>
    80005978:	fdc42783          	lw	a5,-36(s0)
    8000597c:	ff040713          	addi	a4,s0,-16
    80005980:	00f707b3          	add	a5,a4,a5
    80005984:	fd87c783          	lbu	a5,-40(a5)
    80005988:	0017c793          	xori	a5,a5,1
    8000598c:	0ff7f793          	zext.b	a5,a5
    80005990:	00078863          	beqz	a5,800059a0 <_ZN8N_puzzleILi4EEC1EPi+0x27c>
    80005994:	fb843783          	ld	a5,-72(s0)
    80005998:	00078023          	sb	zero,0(a5)
    8000599c:	01c0006f          	j	800059b8 <_ZN8N_puzzleILi4EEC1EPi+0x294>
    800059a0:	fdc42783          	lw	a5,-36(s0)
    800059a4:	0017879b          	addiw	a5,a5,1
    800059a8:	fcf42e23          	sw	a5,-36(s0)
    800059ac:	fbdff06f          	j	80005968 <_ZN8N_puzzleILi4EEC1EPi+0x244>
    800059b0:	fb843503          	ld	a0,-72(s0)
    800059b4:	5d8010ef          	jal	ra,80006f8c <_ZN8N_puzzleILi4EE14determine_hashEv>
    800059b8:	04813083          	ld	ra,72(sp)
    800059bc:	04013403          	ld	s0,64(sp)
    800059c0:	05010113          	addi	sp,sp,80
    800059c4:	00008067          	ret

Disassembly of section .text._ZN8N_puzzleILi4EEaSERKS0_:

00000000800059c8 <_ZN8N_puzzleILi4EEaSERKS0_>:
    800059c8:	fd010113          	addi	sp,sp,-48
    800059cc:	02813423          	sd	s0,40(sp)
    800059d0:	03010413          	addi	s0,sp,48
    800059d4:	fca43c23          	sd	a0,-40(s0)
    800059d8:	fcb43823          	sd	a1,-48(s0)
    800059dc:	fd043783          	ld	a5,-48(s0)
    800059e0:	0007c703          	lbu	a4,0(a5)
    800059e4:	fd843783          	ld	a5,-40(s0)
    800059e8:	00e78023          	sb	a4,0(a5)
    800059ec:	fd043783          	ld	a5,-48(s0)
    800059f0:	0017c703          	lbu	a4,1(a5)
    800059f4:	fd843783          	ld	a5,-40(s0)
    800059f8:	00e780a3          	sb	a4,1(a5)
    800059fc:	fd043783          	ld	a5,-48(s0)
    80005a00:	0027c703          	lbu	a4,2(a5)
    80005a04:	fd843783          	ld	a5,-40(s0)
    80005a08:	00e78123          	sb	a4,2(a5)
    80005a0c:	fd043783          	ld	a5,-48(s0)
    80005a10:	00378703          	lb	a4,3(a5)
    80005a14:	fd843783          	ld	a5,-40(s0)
    80005a18:	00e781a3          	sb	a4,3(a5)
    80005a1c:	fd043783          	ld	a5,-48(s0)
    80005a20:	0147a703          	lw	a4,20(a5)
    80005a24:	fd843783          	ld	a5,-40(s0)
    80005a28:	00e7aa23          	sw	a4,20(a5)
    80005a2c:	fe042623          	sw	zero,-20(s0)
    80005a30:	fec42783          	lw	a5,-20(s0)
    80005a34:	0007871b          	sext.w	a4,a5
    80005a38:	00300793          	li	a5,3
    80005a3c:	06e7c863          	blt	a5,a4,80005aac <_ZN8N_puzzleILi4EEaSERKS0_+0xe4>
    80005a40:	fe042423          	sw	zero,-24(s0)
    80005a44:	fe842783          	lw	a5,-24(s0)
    80005a48:	0007871b          	sext.w	a4,a5
    80005a4c:	00300793          	li	a5,3
    80005a50:	04e7c663          	blt	a5,a4,80005a9c <_ZN8N_puzzleILi4EEaSERKS0_+0xd4>
    80005a54:	fd043683          	ld	a3,-48(s0)
    80005a58:	fe842703          	lw	a4,-24(s0)
    80005a5c:	fec42783          	lw	a5,-20(s0)
    80005a60:	00279793          	slli	a5,a5,0x2
    80005a64:	00f687b3          	add	a5,a3,a5
    80005a68:	00e787b3          	add	a5,a5,a4
    80005a6c:	00478703          	lb	a4,4(a5)
    80005a70:	fd843603          	ld	a2,-40(s0)
    80005a74:	fe842683          	lw	a3,-24(s0)
    80005a78:	fec42783          	lw	a5,-20(s0)
    80005a7c:	00279793          	slli	a5,a5,0x2
    80005a80:	00f607b3          	add	a5,a2,a5
    80005a84:	00d787b3          	add	a5,a5,a3
    80005a88:	00e78223          	sb	a4,4(a5)
    80005a8c:	fe842783          	lw	a5,-24(s0)
    80005a90:	0017879b          	addiw	a5,a5,1
    80005a94:	fef42423          	sw	a5,-24(s0)
    80005a98:	fadff06f          	j	80005a44 <_ZN8N_puzzleILi4EEaSERKS0_+0x7c>
    80005a9c:	fec42783          	lw	a5,-20(s0)
    80005aa0:	0017879b          	addiw	a5,a5,1
    80005aa4:	fef42623          	sw	a5,-20(s0)
    80005aa8:	f89ff06f          	j	80005a30 <_ZN8N_puzzleILi4EEaSERKS0_+0x68>
    80005aac:	fd843783          	ld	a5,-40(s0)
    80005ab0:	00078513          	mv	a0,a5
    80005ab4:	02813403          	ld	s0,40(sp)
    80005ab8:	03010113          	addi	sp,sp,48
    80005abc:	00008067          	ret

Disassembly of section .text._ZNK8N_puzzleILi4EE8solvableEv:

0000000080005ac0 <_ZNK8N_puzzleILi4EE8solvableEv>:
    80005ac0:	f8010113          	addi	sp,sp,-128
    80005ac4:	06113c23          	sd	ra,120(sp)
    80005ac8:	06813823          	sd	s0,112(sp)
    80005acc:	08010413          	addi	s0,sp,128
    80005ad0:	f8a43423          	sd	a0,-120(s0)
    80005ad4:	f8843503          	ld	a0,-120(s0)
    80005ad8:	568010ef          	jal	ra,80007040 <_ZNK8N_puzzleILi4EE5validEv>
    80005adc:	00050793          	mv	a5,a0
    80005ae0:	0017c793          	xori	a5,a5,1
    80005ae4:	0ff7f793          	zext.b	a5,a5
    80005ae8:	00078663          	beqz	a5,80005af4 <_ZNK8N_puzzleILi4EE8solvableEv+0x34>
    80005aec:	00000793          	li	a5,0
    80005af0:	1bc0006f          	j	80005cac <_ZNK8N_puzzleILi4EE8solvableEv+0x1ec>
    80005af4:	fe042623          	sw	zero,-20(s0)
    80005af8:	fec42783          	lw	a5,-20(s0)
    80005afc:	0007871b          	sext.w	a4,a5
    80005b00:	00300793          	li	a5,3
    80005b04:	0ce7c863          	blt	a5,a4,80005bd4 <_ZNK8N_puzzleILi4EE8solvableEv+0x114>
    80005b08:	fe042423          	sw	zero,-24(s0)
    80005b0c:	fe842783          	lw	a5,-24(s0)
    80005b10:	0007871b          	sext.w	a4,a5
    80005b14:	00300793          	li	a5,3
    80005b18:	0ae7c663          	blt	a5,a4,80005bc4 <_ZNK8N_puzzleILi4EE8solvableEv+0x104>
    80005b1c:	f8843683          	ld	a3,-120(s0)
    80005b20:	fe842703          	lw	a4,-24(s0)
    80005b24:	fec42783          	lw	a5,-20(s0)
    80005b28:	00279793          	slli	a5,a5,0x2
    80005b2c:	00f687b3          	add	a5,a3,a5
    80005b30:	00e787b3          	add	a5,a5,a4
    80005b34:	00478783          	lb	a5,4(a5)
    80005b38:	02079a63          	bnez	a5,80005b6c <_ZNK8N_puzzleILi4EE8solvableEv+0xac>
    80005b3c:	fec42783          	lw	a5,-20(s0)
    80005b40:	0027979b          	slliw	a5,a5,0x2
    80005b44:	0007879b          	sext.w	a5,a5
    80005b48:	fe842703          	lw	a4,-24(s0)
    80005b4c:	00f707bb          	addw	a5,a4,a5
    80005b50:	0007879b          	sext.w	a5,a5
    80005b54:	00279793          	slli	a5,a5,0x2
    80005b58:	ff040713          	addi	a4,s0,-16
    80005b5c:	00f707b3          	add	a5,a4,a5
    80005b60:	01000713          	li	a4,16
    80005b64:	fae7a423          	sw	a4,-88(a5)
    80005b68:	04c0006f          	j	80005bb4 <_ZNK8N_puzzleILi4EE8solvableEv+0xf4>
    80005b6c:	f8843683          	ld	a3,-120(s0)
    80005b70:	fe842703          	lw	a4,-24(s0)
    80005b74:	fec42783          	lw	a5,-20(s0)
    80005b78:	00279793          	slli	a5,a5,0x2
    80005b7c:	00f687b3          	add	a5,a3,a5
    80005b80:	00e787b3          	add	a5,a5,a4
    80005b84:	00478683          	lb	a3,4(a5)
    80005b88:	fec42783          	lw	a5,-20(s0)
    80005b8c:	0027979b          	slliw	a5,a5,0x2
    80005b90:	0007879b          	sext.w	a5,a5
    80005b94:	fe842703          	lw	a4,-24(s0)
    80005b98:	00f707bb          	addw	a5,a4,a5
    80005b9c:	0007879b          	sext.w	a5,a5
    80005ba0:	0006871b          	sext.w	a4,a3
    80005ba4:	00279793          	slli	a5,a5,0x2
    80005ba8:	ff040693          	addi	a3,s0,-16
    80005bac:	00f687b3          	add	a5,a3,a5
    80005bb0:	fae7a423          	sw	a4,-88(a5)
    80005bb4:	fe842783          	lw	a5,-24(s0)
    80005bb8:	0017879b          	addiw	a5,a5,1
    80005bbc:	fef42423          	sw	a5,-24(s0)
    80005bc0:	f4dff06f          	j	80005b0c <_ZNK8N_puzzleILi4EE8solvableEv+0x4c>
    80005bc4:	fec42783          	lw	a5,-20(s0)
    80005bc8:	0017879b          	addiw	a5,a5,1
    80005bcc:	fef42623          	sw	a5,-20(s0)
    80005bd0:	f29ff06f          	j	80005af8 <_ZNK8N_puzzleILi4EE8solvableEv+0x38>
    80005bd4:	fe042223          	sw	zero,-28(s0)
    80005bd8:	fe042023          	sw	zero,-32(s0)
    80005bdc:	fe042783          	lw	a5,-32(s0)
    80005be0:	0007871b          	sext.w	a4,a5
    80005be4:	00f00793          	li	a5,15
    80005be8:	06e7cc63          	blt	a5,a4,80005c60 <_ZNK8N_puzzleILi4EE8solvableEv+0x1a0>
    80005bec:	fe042783          	lw	a5,-32(s0)
    80005bf0:	0017879b          	addiw	a5,a5,1
    80005bf4:	fcf42e23          	sw	a5,-36(s0)
    80005bf8:	fdc42783          	lw	a5,-36(s0)
    80005bfc:	0007871b          	sext.w	a4,a5
    80005c00:	00f00793          	li	a5,15
    80005c04:	04e7c663          	blt	a5,a4,80005c50 <_ZNK8N_puzzleILi4EE8solvableEv+0x190>
    80005c08:	fe042783          	lw	a5,-32(s0)
    80005c0c:	00279793          	slli	a5,a5,0x2
    80005c10:	ff040713          	addi	a4,s0,-16
    80005c14:	00f707b3          	add	a5,a4,a5
    80005c18:	fa87a703          	lw	a4,-88(a5)
    80005c1c:	fdc42783          	lw	a5,-36(s0)
    80005c20:	00279793          	slli	a5,a5,0x2
    80005c24:	ff040693          	addi	a3,s0,-16
    80005c28:	00f687b3          	add	a5,a3,a5
    80005c2c:	fa87a783          	lw	a5,-88(a5)
    80005c30:	00e7d863          	bge	a5,a4,80005c40 <_ZNK8N_puzzleILi4EE8solvableEv+0x180>
    80005c34:	fe442783          	lw	a5,-28(s0)
    80005c38:	0017879b          	addiw	a5,a5,1
    80005c3c:	fef42223          	sw	a5,-28(s0)
    80005c40:	fdc42783          	lw	a5,-36(s0)
    80005c44:	0017879b          	addiw	a5,a5,1
    80005c48:	fcf42e23          	sw	a5,-36(s0)
    80005c4c:	fadff06f          	j	80005bf8 <_ZNK8N_puzzleILi4EE8solvableEv+0x138>
    80005c50:	fe042783          	lw	a5,-32(s0)
    80005c54:	0017879b          	addiw	a5,a5,1
    80005c58:	fef42023          	sw	a5,-32(s0)
    80005c5c:	f81ff06f          	j	80005bdc <_ZNK8N_puzzleILi4EE8solvableEv+0x11c>
    80005c60:	f8843783          	ld	a5,-120(s0)
    80005c64:	0017c783          	lbu	a5,1(a5)
    80005c68:	0007879b          	sext.w	a5,a5
    80005c6c:	00600713          	li	a4,6
    80005c70:	40f707bb          	subw	a5,a4,a5
    80005c74:	0007871b          	sext.w	a4,a5
    80005c78:	f8843783          	ld	a5,-120(s0)
    80005c7c:	0027c783          	lbu	a5,2(a5)
    80005c80:	0007879b          	sext.w	a5,a5
    80005c84:	40f707bb          	subw	a5,a4,a5
    80005c88:	0007879b          	sext.w	a5,a5
    80005c8c:	fe442703          	lw	a4,-28(s0)
    80005c90:	00f707bb          	addw	a5,a4,a5
    80005c94:	fef42223          	sw	a5,-28(s0)
    80005c98:	fe442783          	lw	a5,-28(s0)
    80005c9c:	0017f793          	andi	a5,a5,1
    80005ca0:	0007879b          	sext.w	a5,a5
    80005ca4:	0017b793          	seqz	a5,a5
    80005ca8:	0ff7f793          	zext.b	a5,a5
    80005cac:	00078513          	mv	a0,a5
    80005cb0:	07813083          	ld	ra,120(sp)
    80005cb4:	07013403          	ld	s0,112(sp)
    80005cb8:	08010113          	addi	sp,sp,128
    80005cbc:	00008067          	ret

Disassembly of section .text._ZN14Updatable_heapI8N_puzzleILi4EEE4initEi:

0000000080005cc0 <_ZN14Updatable_heapI8N_puzzleILi4EEE4initEi>:
    80005cc0:	fd010113          	addi	sp,sp,-48
    80005cc4:	02113423          	sd	ra,40(sp)
    80005cc8:	02813023          	sd	s0,32(sp)
    80005ccc:	03010413          	addi	s0,sp,48
    80005cd0:	fca43c23          	sd	a0,-40(s0)
    80005cd4:	00058793          	mv	a5,a1
    80005cd8:	fcf42a23          	sw	a5,-44(s0)
    80005cdc:	fd843783          	ld	a5,-40(s0)
    80005ce0:	fd442703          	lw	a4,-44(s0)
    80005ce4:	00e7a023          	sw	a4,0(a5)
    80005ce8:	fd843783          	ld	a5,-40(s0)
    80005cec:	0007a783          	lw	a5,0(a5)
    80005cf0:	00379793          	slli	a5,a5,0x3
    80005cf4:	00078513          	mv	a0,a5
    80005cf8:	921fa0ef          	jal	ra,80000618 <bench_alloc>
    80005cfc:	00050713          	mv	a4,a0
    80005d00:	fd843783          	ld	a5,-40(s0)
    80005d04:	00e7b823          	sd	a4,16(a5)
    80005d08:	fd843783          	ld	a5,-40(s0)
    80005d0c:	0007a783          	lw	a5,0(a5)
    80005d10:	0017879b          	addiw	a5,a5,1
    80005d14:	0007879b          	sext.w	a5,a5
    80005d18:	00379793          	slli	a5,a5,0x3
    80005d1c:	00078513          	mv	a0,a5
    80005d20:	8f9fa0ef          	jal	ra,80000618 <bench_alloc>
    80005d24:	00050713          	mv	a4,a0
    80005d28:	fd843783          	ld	a5,-40(s0)
    80005d2c:	00e7b423          	sd	a4,8(a5)
    80005d30:	fd843783          	ld	a5,-40(s0)
    80005d34:	0007ac23          	sw	zero,24(a5)
    80005d38:	fd843783          	ld	a5,-40(s0)
    80005d3c:	0007ae23          	sw	zero,28(a5)
    80005d40:	fe042623          	sw	zero,-20(s0)
    80005d44:	fd843783          	ld	a5,-40(s0)
    80005d48:	0007a703          	lw	a4,0(a5)
    80005d4c:	fec42783          	lw	a5,-20(s0)
    80005d50:	0007879b          	sext.w	a5,a5
    80005d54:	02e7d663          	bge	a5,a4,80005d80 <_ZN14Updatable_heapI8N_puzzleILi4EEE4initEi+0xc0>
    80005d58:	fd843783          	ld	a5,-40(s0)
    80005d5c:	0087b703          	ld	a4,8(a5)
    80005d60:	fec42783          	lw	a5,-20(s0)
    80005d64:	00379793          	slli	a5,a5,0x3
    80005d68:	00f707b3          	add	a5,a4,a5
    80005d6c:	0007b023          	sd	zero,0(a5)
    80005d70:	fec42783          	lw	a5,-20(s0)
    80005d74:	0017879b          	addiw	a5,a5,1
    80005d78:	fef42623          	sw	a5,-20(s0)
    80005d7c:	fc9ff06f          	j	80005d44 <_ZN14Updatable_heapI8N_puzzleILi4EEE4initEi+0x84>
    80005d80:	00000013          	nop
    80005d84:	02813083          	ld	ra,40(sp)
    80005d88:	02013403          	ld	s0,32(sp)
    80005d8c:	03010113          	addi	sp,sp,48
    80005d90:	00008067          	ret

Disassembly of section .text._ZN14Updatable_heapI8N_puzzleILi4EEE4pushERKS1_i:

0000000080005d94 <_ZN14Updatable_heapI8N_puzzleILi4EEE4pushERKS1_i>:
    80005d94:	fb010113          	addi	sp,sp,-80
    80005d98:	04113423          	sd	ra,72(sp)
    80005d9c:	04813023          	sd	s0,64(sp)
    80005da0:	02913c23          	sd	s1,56(sp)
    80005da4:	05010413          	addi	s0,sp,80
    80005da8:	fca43423          	sd	a0,-56(s0)
    80005dac:	fcb43023          	sd	a1,-64(s0)
    80005db0:	00060793          	mv	a5,a2
    80005db4:	faf42e23          	sw	a5,-68(s0)
    80005db8:	fc043583          	ld	a1,-64(s0)
    80005dbc:	fc843503          	ld	a0,-56(s0)
    80005dc0:	2a8010ef          	jal	ra,80007068 <_ZNK14Updatable_heapI8N_puzzleILi4EEE7pointerERKS1_>
    80005dc4:	fca43c23          	sd	a0,-40(s0)
    80005dc8:	fd843783          	ld	a5,-40(s0)
    80005dcc:	18079463          	bnez	a5,80005f54 <_ZN14Updatable_heapI8N_puzzleILi4EEE4pushERKS1_i+0x1c0>
    80005dd0:	fc843783          	ld	a5,-56(s0)
    80005dd4:	0187a703          	lw	a4,24(a5)
    80005dd8:	fc843783          	ld	a5,-56(s0)
    80005ddc:	0007a783          	lw	a5,0(a5)
    80005de0:	02e7d263          	bge	a5,a4,80005e04 <_ZN14Updatable_heapI8N_puzzleILi4EEE4pushERKS1_i+0x70>
    80005de4:	09800613          	li	a2,152
    80005de8:	00005597          	auipc	a1,0x5
    80005dec:	7c858593          	addi	a1,a1,1992 # 8000b5b0 <uptime+0x624>
    80005df0:	00005517          	auipc	a0,0x5
    80005df4:	7a050513          	addi	a0,a0,1952 # 8000b590 <uptime+0x604>
    80005df8:	090050ef          	jal	ra,8000ae88 <printf_>
    80005dfc:	00100513          	li	a0,1
    80005e00:	4e4020ef          	jal	ra,800082e4 <_halt>
    80005e04:	fc843783          	ld	a5,-56(s0)
    80005e08:	0187a783          	lw	a5,24(a5)
    80005e0c:	0017879b          	addiw	a5,a5,1
    80005e10:	0007871b          	sext.w	a4,a5
    80005e14:	fc843783          	ld	a5,-56(s0)
    80005e18:	00e7ac23          	sw	a4,24(a5)
    80005e1c:	03800513          	li	a0,56
    80005e20:	ff8fa0ef          	jal	ra,80000618 <bench_alloc>
    80005e24:	fca43823          	sd	a0,-48(s0)
    80005e28:	fc843783          	ld	a5,-56(s0)
    80005e2c:	0087b483          	ld	s1,8(a5)
    80005e30:	fc043503          	ld	a0,-64(s0)
    80005e34:	2f0010ef          	jal	ra,80007124 <_ZNK8N_puzzleILi4EE4hashEv>
    80005e38:	00050793          	mv	a5,a0
    80005e3c:	0007871b          	sext.w	a4,a5
    80005e40:	fc843783          	ld	a5,-56(s0)
    80005e44:	0007a783          	lw	a5,0(a5)
    80005e48:	fff7879b          	addiw	a5,a5,-1
    80005e4c:	0007879b          	sext.w	a5,a5
    80005e50:	0007879b          	sext.w	a5,a5
    80005e54:	00f777b3          	and	a5,a4,a5
    80005e58:	0007879b          	sext.w	a5,a5
    80005e5c:	02079793          	slli	a5,a5,0x20
    80005e60:	0207d793          	srli	a5,a5,0x20
    80005e64:	00379793          	slli	a5,a5,0x3
    80005e68:	00f487b3          	add	a5,s1,a5
    80005e6c:	0007b483          	ld	s1,0(a5)
    80005e70:	fc843503          	ld	a0,-56(s0)
    80005e74:	184000ef          	jal	ra,80005ff8 <_ZNK14Updatable_heapI8N_puzzleILi4EEE4sizeEv>
    80005e78:	00050793          	mv	a5,a0
    80005e7c:	00078693          	mv	a3,a5
    80005e80:	fbc42783          	lw	a5,-68(s0)
    80005e84:	00078713          	mv	a4,a5
    80005e88:	00048613          	mv	a2,s1
    80005e8c:	fc043583          	ld	a1,-64(s0)
    80005e90:	fd043503          	ld	a0,-48(s0)
    80005e94:	2e0010ef          	jal	ra,80007174 <_ZN14Updatable_heapI8N_puzzleILi4EEE4Step4initERKS1_PS3_ii>
    80005e98:	fc843783          	ld	a5,-56(s0)
    80005e9c:	0087b483          	ld	s1,8(a5)
    80005ea0:	fc043503          	ld	a0,-64(s0)
    80005ea4:	280010ef          	jal	ra,80007124 <_ZNK8N_puzzleILi4EE4hashEv>
    80005ea8:	00050793          	mv	a5,a0
    80005eac:	0007871b          	sext.w	a4,a5
    80005eb0:	fc843783          	ld	a5,-56(s0)
    80005eb4:	0007a783          	lw	a5,0(a5)
    80005eb8:	fff7879b          	addiw	a5,a5,-1
    80005ebc:	0007879b          	sext.w	a5,a5
    80005ec0:	0007879b          	sext.w	a5,a5
    80005ec4:	00f777b3          	and	a5,a4,a5
    80005ec8:	0007879b          	sext.w	a5,a5
    80005ecc:	02079793          	slli	a5,a5,0x20
    80005ed0:	0207d793          	srli	a5,a5,0x20
    80005ed4:	00379793          	slli	a5,a5,0x3
    80005ed8:	00f487b3          	add	a5,s1,a5
    80005edc:	fd043703          	ld	a4,-48(s0)
    80005ee0:	00e7b023          	sd	a4,0(a5)
    80005ee4:	fc843783          	ld	a5,-56(s0)
    80005ee8:	0107b483          	ld	s1,16(a5)
    80005eec:	fc843503          	ld	a0,-56(s0)
    80005ef0:	108000ef          	jal	ra,80005ff8 <_ZNK14Updatable_heapI8N_puzzleILi4EEE4sizeEv>
    80005ef4:	00050793          	mv	a5,a0
    80005ef8:	00379793          	slli	a5,a5,0x3
    80005efc:	00f487b3          	add	a5,s1,a5
    80005f00:	fd043703          	ld	a4,-48(s0)
    80005f04:	00e7b023          	sd	a4,0(a5)
    80005f08:	fc843503          	ld	a0,-56(s0)
    80005f0c:	0ec000ef          	jal	ra,80005ff8 <_ZNK14Updatable_heapI8N_puzzleILi4EEE4sizeEv>
    80005f10:	00050793          	mv	a5,a0
    80005f14:	00078593          	mv	a1,a5
    80005f18:	fc843503          	ld	a0,-56(s0)
    80005f1c:	304010ef          	jal	ra,80007220 <_ZN14Updatable_heapI8N_puzzleILi4EEE12percolate_upEi>
    80005f20:	fc843783          	ld	a5,-56(s0)
    80005f24:	01c7a483          	lw	s1,28(a5)
    80005f28:	fc843503          	ld	a0,-56(s0)
    80005f2c:	0cc000ef          	jal	ra,80005ff8 <_ZNK14Updatable_heapI8N_puzzleILi4EEE4sizeEv>
    80005f30:	00050793          	mv	a5,a0
    80005f34:	00078593          	mv	a1,a5
    80005f38:	00048513          	mv	a0,s1
    80005f3c:	3c0010ef          	jal	ra,800072fc <_Z3maxIiET_S0_S0_>
    80005f40:	00050793          	mv	a5,a0
    80005f44:	00078713          	mv	a4,a5
    80005f48:	fc843783          	ld	a5,-56(s0)
    80005f4c:	00e7ae23          	sw	a4,28(a5)
    80005f50:	0900006f          	j	80005fe0 <_ZN14Updatable_heapI8N_puzzleILi4EEE4pushERKS1_i+0x24c>
    80005f54:	fd843783          	ld	a5,-40(s0)
    80005f58:	02c7c783          	lbu	a5,44(a5)
    80005f5c:	0017c793          	xori	a5,a5,1
    80005f60:	0ff7f793          	zext.b	a5,a5
    80005f64:	06078e63          	beqz	a5,80005fe0 <_ZN14Updatable_heapI8N_puzzleILi4EEE4pushERKS1_i+0x24c>
    80005f68:	fd843783          	ld	a5,-40(s0)
    80005f6c:	00078513          	mv	a0,a5
    80005f70:	3dc010ef          	jal	ra,8000734c <_ZNK8N_puzzleILi4EE11lower_boundEv>
    80005f74:	00050793          	mv	a5,a0
    80005f78:	00078713          	mv	a4,a5
    80005f7c:	fbc42783          	lw	a5,-68(s0)
    80005f80:	00e787bb          	addw	a5,a5,a4
    80005f84:	0007849b          	sext.w	s1,a5
    80005f88:	fd843503          	ld	a0,-40(s0)
    80005f8c:	40c010ef          	jal	ra,80007398 <_ZNK14Updatable_heapI8N_puzzleILi4EEE4Step6weightEv>
    80005f90:	00050793          	mv	a5,a0
    80005f94:	00048713          	mv	a4,s1
    80005f98:	00f727b3          	slt	a5,a4,a5
    80005f9c:	0ff7f793          	zext.b	a5,a5
    80005fa0:	04078063          	beqz	a5,80005fe0 <_ZN14Updatable_heapI8N_puzzleILi4EEE4pushERKS1_i+0x24c>
    80005fa4:	fd843783          	ld	a5,-40(s0)
    80005fa8:	00078513          	mv	a0,a5
    80005fac:	3a0010ef          	jal	ra,8000734c <_ZNK8N_puzzleILi4EE11lower_boundEv>
    80005fb0:	00050793          	mv	a5,a0
    80005fb4:	00078713          	mv	a4,a5
    80005fb8:	fbc42783          	lw	a5,-68(s0)
    80005fbc:	00e787bb          	addw	a5,a5,a4
    80005fc0:	0007871b          	sext.w	a4,a5
    80005fc4:	fd843783          	ld	a5,-40(s0)
    80005fc8:	02e7a423          	sw	a4,40(a5)
    80005fcc:	fd843783          	ld	a5,-40(s0)
    80005fd0:	0207a783          	lw	a5,32(a5)
    80005fd4:	00078593          	mv	a1,a5
    80005fd8:	fc843503          	ld	a0,-56(s0)
    80005fdc:	244010ef          	jal	ra,80007220 <_ZN14Updatable_heapI8N_puzzleILi4EEE12percolate_upEi>
    80005fe0:	00000013          	nop
    80005fe4:	04813083          	ld	ra,72(sp)
    80005fe8:	04013403          	ld	s0,64(sp)
    80005fec:	03813483          	ld	s1,56(sp)
    80005ff0:	05010113          	addi	sp,sp,80
    80005ff4:	00008067          	ret

Disassembly of section .text._ZNK14Updatable_heapI8N_puzzleILi4EEE4sizeEv:

0000000080005ff8 <_ZNK14Updatable_heapI8N_puzzleILi4EEE4sizeEv>:
    80005ff8:	fe010113          	addi	sp,sp,-32
    80005ffc:	00813c23          	sd	s0,24(sp)
    80006000:	02010413          	addi	s0,sp,32
    80006004:	fea43423          	sd	a0,-24(s0)
    80006008:	fe843783          	ld	a5,-24(s0)
    8000600c:	0187a783          	lw	a5,24(a5)
    80006010:	00078513          	mv	a0,a5
    80006014:	01813403          	ld	s0,24(sp)
    80006018:	02010113          	addi	sp,sp,32
    8000601c:	00008067          	ret

Disassembly of section .text._ZN14Updatable_heapI8N_puzzleILi4EEE3popEv:

0000000080006020 <_ZN14Updatable_heapI8N_puzzleILi4EEE3popEv>:
    80006020:	fb010113          	addi	sp,sp,-80
    80006024:	04113423          	sd	ra,72(sp)
    80006028:	04813023          	sd	s0,64(sp)
    8000602c:	02913c23          	sd	s1,56(sp)
    80006030:	05010413          	addi	s0,sp,80
    80006034:	faa43c23          	sd	a0,-72(s0)
    80006038:	fab43823          	sd	a1,-80(s0)
    8000603c:	fb043503          	ld	a0,-80(s0)
    80006040:	fb9ff0ef          	jal	ra,80005ff8 <_ZNK14Updatable_heapI8N_puzzleILi4EEE4sizeEv>
    80006044:	00050793          	mv	a5,a0
    80006048:	0017b793          	seqz	a5,a5
    8000604c:	0ff7f793          	zext.b	a5,a5
    80006050:	00078863          	beqz	a5,80006060 <_ZN14Updatable_heapI8N_puzzleILi4EEE3popEv+0x40>
    80006054:	fb843503          	ld	a0,-72(s0)
    80006058:	c2cff0ef          	jal	ra,80005484 <_ZN8N_puzzleILi4EEC1Ev>
    8000605c:	1140006f          	j	80006170 <_ZN14Updatable_heapI8N_puzzleILi4EEE3popEv+0x150>
    80006060:	fb043783          	ld	a5,-80(s0)
    80006064:	0107b783          	ld	a5,16(a5)
    80006068:	00878793          	addi	a5,a5,8
    8000606c:	0007b783          	ld	a5,0(a5)
    80006070:	00078713          	mv	a4,a5
    80006074:	fc840793          	addi	a5,s0,-56
    80006078:	00070593          	mv	a1,a4
    8000607c:	00078513          	mv	a0,a5
    80006080:	108000ef          	jal	ra,80006188 <_ZN8N_puzzleILi4EEC1ERKS0_>
    80006084:	fb043503          	ld	a0,-80(s0)
    80006088:	f71ff0ef          	jal	ra,80005ff8 <_ZNK14Updatable_heapI8N_puzzleILi4EEE4sizeEv>
    8000608c:	00050793          	mv	a5,a0
    80006090:	00078713          	mv	a4,a5
    80006094:	00100793          	li	a5,1
    80006098:	40f707b3          	sub	a5,a4,a5
    8000609c:	0017b793          	seqz	a5,a5
    800060a0:	0ff7f793          	zext.b	a5,a5
    800060a4:	00078863          	beqz	a5,800060b4 <_ZN14Updatable_heapI8N_puzzleILi4EEE3popEv+0x94>
    800060a8:	fb043783          	ld	a5,-80(s0)
    800060ac:	0007ac23          	sw	zero,24(a5)
    800060b0:	0b00006f          	j	80006160 <_ZN14Updatable_heapI8N_puzzleILi4EEE3popEv+0x140>
    800060b4:	fb043503          	ld	a0,-80(s0)
    800060b8:	f41ff0ef          	jal	ra,80005ff8 <_ZNK14Updatable_heapI8N_puzzleILi4EEE4sizeEv>
    800060bc:	00050793          	mv	a5,a0
    800060c0:	00078713          	mv	a4,a5
    800060c4:	00100793          	li	a5,1
    800060c8:	00e7a7b3          	slt	a5,a5,a4
    800060cc:	0017c793          	xori	a5,a5,1
    800060d0:	0ff7f793          	zext.b	a5,a5
    800060d4:	02078263          	beqz	a5,800060f8 <_ZN14Updatable_heapI8N_puzzleILi4EEE3popEv+0xd8>
    800060d8:	05600613          	li	a2,86
    800060dc:	00005597          	auipc	a1,0x5
    800060e0:	4d458593          	addi	a1,a1,1236 # 8000b5b0 <uptime+0x624>
    800060e4:	00005517          	auipc	a0,0x5
    800060e8:	4ac50513          	addi	a0,a0,1196 # 8000b590 <uptime+0x604>
    800060ec:	59d040ef          	jal	ra,8000ae88 <printf_>
    800060f0:	00100513          	li	a0,1
    800060f4:	1f0020ef          	jal	ra,800082e4 <_halt>
    800060f8:	fb043783          	ld	a5,-80(s0)
    800060fc:	0107b483          	ld	s1,16(a5)
    80006100:	fb043503          	ld	a0,-80(s0)
    80006104:	ef5ff0ef          	jal	ra,80005ff8 <_ZNK14Updatable_heapI8N_puzzleILi4EEE4sizeEv>
    80006108:	00050793          	mv	a5,a0
    8000610c:	00379793          	slli	a5,a5,0x3
    80006110:	00f48733          	add	a4,s1,a5
    80006114:	fb043783          	ld	a5,-80(s0)
    80006118:	0107b783          	ld	a5,16(a5)
    8000611c:	00878793          	addi	a5,a5,8
    80006120:	00073703          	ld	a4,0(a4)
    80006124:	00e7b023          	sd	a4,0(a5)
    80006128:	fb043783          	ld	a5,-80(s0)
    8000612c:	0107b783          	ld	a5,16(a5)
    80006130:	00878793          	addi	a5,a5,8
    80006134:	0007b783          	ld	a5,0(a5)
    80006138:	00100713          	li	a4,1
    8000613c:	02e7a023          	sw	a4,32(a5)
    80006140:	fb043783          	ld	a5,-80(s0)
    80006144:	0187a783          	lw	a5,24(a5)
    80006148:	fff7879b          	addiw	a5,a5,-1
    8000614c:	0007871b          	sext.w	a4,a5
    80006150:	fb043783          	ld	a5,-80(s0)
    80006154:	00e7ac23          	sw	a4,24(a5)
    80006158:	fb043503          	ld	a0,-80(s0)
    8000615c:	264010ef          	jal	ra,800073c0 <_ZN14Updatable_heapI8N_puzzleILi4EEE14percolate_downEv>
    80006160:	fc840793          	addi	a5,s0,-56
    80006164:	00078593          	mv	a1,a5
    80006168:	fb843503          	ld	a0,-72(s0)
    8000616c:	01c000ef          	jal	ra,80006188 <_ZN8N_puzzleILi4EEC1ERKS0_>
    80006170:	fb843503          	ld	a0,-72(s0)
    80006174:	04813083          	ld	ra,72(sp)
    80006178:	04013403          	ld	s0,64(sp)
    8000617c:	03813483          	ld	s1,56(sp)
    80006180:	05010113          	addi	sp,sp,80
    80006184:	00008067          	ret

Disassembly of section .text._ZN8N_puzzleILi4EEC2ERKS0_:

0000000080006188 <_ZN8N_puzzleILi4EEC1ERKS0_>:
    80006188:	fd010113          	addi	sp,sp,-48
    8000618c:	02813423          	sd	s0,40(sp)
    80006190:	03010413          	addi	s0,sp,48
    80006194:	fca43c23          	sd	a0,-40(s0)
    80006198:	fcb43823          	sd	a1,-48(s0)
    8000619c:	fd043783          	ld	a5,-48(s0)
    800061a0:	0007c703          	lbu	a4,0(a5)
    800061a4:	fd843783          	ld	a5,-40(s0)
    800061a8:	00e78023          	sb	a4,0(a5)
    800061ac:	fd043783          	ld	a5,-48(s0)
    800061b0:	0017c703          	lbu	a4,1(a5)
    800061b4:	fd843783          	ld	a5,-40(s0)
    800061b8:	00e780a3          	sb	a4,1(a5)
    800061bc:	fd043783          	ld	a5,-48(s0)
    800061c0:	0027c703          	lbu	a4,2(a5)
    800061c4:	fd843783          	ld	a5,-40(s0)
    800061c8:	00e78123          	sb	a4,2(a5)
    800061cc:	fd043783          	ld	a5,-48(s0)
    800061d0:	00378703          	lb	a4,3(a5)
    800061d4:	fd843783          	ld	a5,-40(s0)
    800061d8:	00e781a3          	sb	a4,3(a5)
    800061dc:	fd043783          	ld	a5,-48(s0)
    800061e0:	0147a703          	lw	a4,20(a5)
    800061e4:	fd843783          	ld	a5,-40(s0)
    800061e8:	00e7aa23          	sw	a4,20(a5)
    800061ec:	fe042623          	sw	zero,-20(s0)
    800061f0:	fec42783          	lw	a5,-20(s0)
    800061f4:	0007871b          	sext.w	a4,a5
    800061f8:	00300793          	li	a5,3
    800061fc:	06e7c863          	blt	a5,a4,8000626c <_ZN8N_puzzleILi4EEC1ERKS0_+0xe4>
    80006200:	fe042423          	sw	zero,-24(s0)
    80006204:	fe842783          	lw	a5,-24(s0)
    80006208:	0007871b          	sext.w	a4,a5
    8000620c:	00300793          	li	a5,3
    80006210:	04e7c663          	blt	a5,a4,8000625c <_ZN8N_puzzleILi4EEC1ERKS0_+0xd4>
    80006214:	fd043683          	ld	a3,-48(s0)
    80006218:	fe842703          	lw	a4,-24(s0)
    8000621c:	fec42783          	lw	a5,-20(s0)
    80006220:	00279793          	slli	a5,a5,0x2
    80006224:	00f687b3          	add	a5,a3,a5
    80006228:	00e787b3          	add	a5,a5,a4
    8000622c:	00478703          	lb	a4,4(a5)
    80006230:	fd843603          	ld	a2,-40(s0)
    80006234:	fe842683          	lw	a3,-24(s0)
    80006238:	fec42783          	lw	a5,-20(s0)
    8000623c:	00279793          	slli	a5,a5,0x2
    80006240:	00f607b3          	add	a5,a2,a5
    80006244:	00d787b3          	add	a5,a5,a3
    80006248:	00e78223          	sb	a4,4(a5)
    8000624c:	fe842783          	lw	a5,-24(s0)
    80006250:	0017879b          	addiw	a5,a5,1
    80006254:	fef42423          	sw	a5,-24(s0)
    80006258:	fadff06f          	j	80006204 <_ZN8N_puzzleILi4EEC1ERKS0_+0x7c>
    8000625c:	fec42783          	lw	a5,-20(s0)
    80006260:	0017879b          	addiw	a5,a5,1
    80006264:	fef42623          	sw	a5,-20(s0)
    80006268:	f89ff06f          	j	800061f0 <_ZN8N_puzzleILi4EEC1ERKS0_+0x68>
    8000626c:	00000013          	nop
    80006270:	02813403          	ld	s0,40(sp)
    80006274:	03010113          	addi	sp,sp,48
    80006278:	00008067          	ret

Disassembly of section .text._ZN8N_puzzleILi4EE8solutionEv:

000000008000627c <_ZN8N_puzzleILi4EE8solutionEv>:
    8000627c:	f9010113          	addi	sp,sp,-112
    80006280:	06113423          	sd	ra,104(sp)
    80006284:	06813023          	sd	s0,96(sp)
    80006288:	07010413          	addi	s0,sp,112
    8000628c:	f8a43c23          	sd	a0,-104(s0)
    80006290:	fe042623          	sw	zero,-20(s0)
    80006294:	fec42783          	lw	a5,-20(s0)
    80006298:	0007871b          	sext.w	a4,a5
    8000629c:	00e00793          	li	a5,14
    800062a0:	02e7ca63          	blt	a5,a4,800062d4 <_ZN8N_puzzleILi4EE8solutionEv+0x58>
    800062a4:	fec42783          	lw	a5,-20(s0)
    800062a8:	0017879b          	addiw	a5,a5,1
    800062ac:	0007871b          	sext.w	a4,a5
    800062b0:	fec42783          	lw	a5,-20(s0)
    800062b4:	00279793          	slli	a5,a5,0x2
    800062b8:	ff040693          	addi	a3,s0,-16
    800062bc:	00f687b3          	add	a5,a3,a5
    800062c0:	fae7ac23          	sw	a4,-72(a5)
    800062c4:	fec42783          	lw	a5,-20(s0)
    800062c8:	0017879b          	addiw	a5,a5,1
    800062cc:	fef42623          	sw	a5,-20(s0)
    800062d0:	fc5ff06f          	j	80006294 <_ZN8N_puzzleILi4EE8solutionEv+0x18>
    800062d4:	fe042223          	sw	zero,-28(s0)
    800062d8:	fa840793          	addi	a5,s0,-88
    800062dc:	00078593          	mv	a1,a5
    800062e0:	f9843503          	ld	a0,-104(s0)
    800062e4:	c40ff0ef          	jal	ra,80005724 <_ZN8N_puzzleILi4EEC1EPi>
    800062e8:	f9843503          	ld	a0,-104(s0)
    800062ec:	06813083          	ld	ra,104(sp)
    800062f0:	06013403          	ld	s0,96(sp)
    800062f4:	07010113          	addi	sp,sp,112
    800062f8:	00008067          	ret

Disassembly of section .text._ZNK8N_puzzleILi4EEeqERKS0_:

00000000800062fc <_ZNK8N_puzzleILi4EEeqERKS0_>:
    800062fc:	fc010113          	addi	sp,sp,-64
    80006300:	02113c23          	sd	ra,56(sp)
    80006304:	02813823          	sd	s0,48(sp)
    80006308:	02913423          	sd	s1,40(sp)
    8000630c:	04010413          	addi	s0,sp,64
    80006310:	fca43423          	sd	a0,-56(s0)
    80006314:	fcb43023          	sd	a1,-64(s0)
    80006318:	fc843503          	ld	a0,-56(s0)
    8000631c:	525000ef          	jal	ra,80007040 <_ZNK8N_puzzleILi4EE5validEv>
    80006320:	00050793          	mv	a5,a0
    80006324:	0017c793          	xori	a5,a5,1
    80006328:	0ff7f793          	zext.b	a5,a5
    8000632c:	04079263          	bnez	a5,80006370 <_ZNK8N_puzzleILi4EEeqERKS0_+0x74>
    80006330:	fc043503          	ld	a0,-64(s0)
    80006334:	50d000ef          	jal	ra,80007040 <_ZNK8N_puzzleILi4EE5validEv>
    80006338:	00050793          	mv	a5,a0
    8000633c:	0017c793          	xori	a5,a5,1
    80006340:	0ff7f793          	zext.b	a5,a5
    80006344:	02079663          	bnez	a5,80006370 <_ZNK8N_puzzleILi4EEeqERKS0_+0x74>
    80006348:	fc843503          	ld	a0,-56(s0)
    8000634c:	5d9000ef          	jal	ra,80007124 <_ZNK8N_puzzleILi4EE4hashEv>
    80006350:	00050793          	mv	a5,a0
    80006354:	0007849b          	sext.w	s1,a5
    80006358:	fc043503          	ld	a0,-64(s0)
    8000635c:	5c9000ef          	jal	ra,80007124 <_ZNK8N_puzzleILi4EE4hashEv>
    80006360:	00050793          	mv	a5,a0
    80006364:	0007879b          	sext.w	a5,a5
    80006368:	00048713          	mv	a4,s1
    8000636c:	00f70663          	beq	a4,a5,80006378 <_ZNK8N_puzzleILi4EEeqERKS0_+0x7c>
    80006370:	00100793          	li	a5,1
    80006374:	0080006f          	j	8000637c <_ZNK8N_puzzleILi4EEeqERKS0_+0x80>
    80006378:	00000793          	li	a5,0
    8000637c:	00078663          	beqz	a5,80006388 <_ZNK8N_puzzleILi4EEeqERKS0_+0x8c>
    80006380:	00000793          	li	a5,0
    80006384:	0980006f          	j	8000641c <_ZNK8N_puzzleILi4EEeqERKS0_+0x120>
    80006388:	fc042e23          	sw	zero,-36(s0)
    8000638c:	fdc42783          	lw	a5,-36(s0)
    80006390:	0007871b          	sext.w	a4,a5
    80006394:	00300793          	li	a5,3
    80006398:	08e7c063          	blt	a5,a4,80006418 <_ZNK8N_puzzleILi4EEeqERKS0_+0x11c>
    8000639c:	fc042c23          	sw	zero,-40(s0)
    800063a0:	fd842783          	lw	a5,-40(s0)
    800063a4:	0007871b          	sext.w	a4,a5
    800063a8:	00300793          	li	a5,3
    800063ac:	04e7ce63          	blt	a5,a4,80006408 <_ZNK8N_puzzleILi4EEeqERKS0_+0x10c>
    800063b0:	fc843683          	ld	a3,-56(s0)
    800063b4:	fd842703          	lw	a4,-40(s0)
    800063b8:	fdc42783          	lw	a5,-36(s0)
    800063bc:	00279793          	slli	a5,a5,0x2
    800063c0:	00f687b3          	add	a5,a3,a5
    800063c4:	00e787b3          	add	a5,a5,a4
    800063c8:	00478603          	lb	a2,4(a5)
    800063cc:	fc043683          	ld	a3,-64(s0)
    800063d0:	fd842703          	lw	a4,-40(s0)
    800063d4:	fdc42783          	lw	a5,-36(s0)
    800063d8:	00279793          	slli	a5,a5,0x2
    800063dc:	00f687b3          	add	a5,a3,a5
    800063e0:	00e787b3          	add	a5,a5,a4
    800063e4:	00478783          	lb	a5,4(a5)
    800063e8:	00060713          	mv	a4,a2
    800063ec:	00f70663          	beq	a4,a5,800063f8 <_ZNK8N_puzzleILi4EEeqERKS0_+0xfc>
    800063f0:	00000793          	li	a5,0
    800063f4:	0280006f          	j	8000641c <_ZNK8N_puzzleILi4EEeqERKS0_+0x120>
    800063f8:	fd842783          	lw	a5,-40(s0)
    800063fc:	0017879b          	addiw	a5,a5,1
    80006400:	fcf42c23          	sw	a5,-40(s0)
    80006404:	f9dff06f          	j	800063a0 <_ZNK8N_puzzleILi4EEeqERKS0_+0xa4>
    80006408:	fdc42783          	lw	a5,-36(s0)
    8000640c:	0017879b          	addiw	a5,a5,1
    80006410:	fcf42e23          	sw	a5,-36(s0)
    80006414:	f79ff06f          	j	8000638c <_ZNK8N_puzzleILi4EEeqERKS0_+0x90>
    80006418:	00100793          	li	a5,1
    8000641c:	00078513          	mv	a0,a5
    80006420:	03813083          	ld	ra,56(sp)
    80006424:	03013403          	ld	s0,48(sp)
    80006428:	02813483          	ld	s1,40(sp)
    8000642c:	04010113          	addi	sp,sp,64
    80006430:	00008067          	ret

Disassembly of section .text._ZNK14Updatable_heapI8N_puzzleILi4EEE6lengthERKS1_:

0000000080006434 <_ZNK14Updatable_heapI8N_puzzleILi4EEE6lengthERKS1_>:
    80006434:	fd010113          	addi	sp,sp,-48
    80006438:	02113423          	sd	ra,40(sp)
    8000643c:	02813023          	sd	s0,32(sp)
    80006440:	03010413          	addi	s0,sp,48
    80006444:	fca43c23          	sd	a0,-40(s0)
    80006448:	fcb43823          	sd	a1,-48(s0)
    8000644c:	fd043583          	ld	a1,-48(s0)
    80006450:	fd843503          	ld	a0,-40(s0)
    80006454:	415000ef          	jal	ra,80007068 <_ZNK14Updatable_heapI8N_puzzleILi4EEE7pointerERKS1_>
    80006458:	fea43423          	sd	a0,-24(s0)
    8000645c:	fe843783          	ld	a5,-24(s0)
    80006460:	00078a63          	beqz	a5,80006474 <_ZNK14Updatable_heapI8N_puzzleILi4EEE6lengthERKS1_+0x40>
    80006464:	fe843503          	ld	a0,-24(s0)
    80006468:	2a4010ef          	jal	ra,8000770c <_ZNK14Updatable_heapI8N_puzzleILi4EEE4Step6lengthEv>
    8000646c:	00050793          	mv	a5,a0
    80006470:	00c0006f          	j	8000647c <_ZNK14Updatable_heapI8N_puzzleILi4EEE6lengthERKS1_+0x48>
    80006474:	800007b7          	lui	a5,0x80000
    80006478:	fff7c793          	not	a5,a5
    8000647c:	00078513          	mv	a0,a5
    80006480:	02813083          	ld	ra,40(sp)
    80006484:	02013403          	ld	s0,32(sp)
    80006488:	03010113          	addi	sp,sp,48
    8000648c:	00008067          	ret

Disassembly of section .text._ZNK8N_puzzleILi4EE18tile_left_possibleEv:

0000000080006490 <_ZNK8N_puzzleILi4EE18tile_left_possibleEv>:
    80006490:	fe010113          	addi	sp,sp,-32
    80006494:	00813c23          	sd	s0,24(sp)
    80006498:	02010413          	addi	s0,sp,32
    8000649c:	fea43423          	sd	a0,-24(s0)
    800064a0:	fe843783          	ld	a5,-24(s0)
    800064a4:	0007c783          	lbu	a5,0(a5) # ffffffff80000000 <_pmem_end+0xfffffffef8000000>
    800064a8:	02078063          	beqz	a5,800064c8 <_ZNK8N_puzzleILi4EE18tile_left_possibleEv+0x38>
    800064ac:	fe843783          	ld	a5,-24(s0)
    800064b0:	0027c783          	lbu	a5,2(a5)
    800064b4:	00078713          	mv	a4,a5
    800064b8:	00300793          	li	a5,3
    800064bc:	00f70663          	beq	a4,a5,800064c8 <_ZNK8N_puzzleILi4EE18tile_left_possibleEv+0x38>
    800064c0:	00100793          	li	a5,1
    800064c4:	0080006f          	j	800064cc <_ZNK8N_puzzleILi4EE18tile_left_possibleEv+0x3c>
    800064c8:	00000793          	li	a5,0
    800064cc:	00078513          	mv	a0,a5
    800064d0:	01813403          	ld	s0,24(sp)
    800064d4:	02010113          	addi	sp,sp,32
    800064d8:	00008067          	ret

Disassembly of section .text._ZNK8N_puzzleILi4EE9tile_leftEv:

00000000800064dc <_ZNK8N_puzzleILi4EE9tile_leftEv>:
    800064dc:	fb010113          	addi	sp,sp,-80
    800064e0:	04113423          	sd	ra,72(sp)
    800064e4:	04813023          	sd	s0,64(sp)
    800064e8:	02913c23          	sd	s1,56(sp)
    800064ec:	05010413          	addi	s0,sp,80
    800064f0:	faa43c23          	sd	a0,-72(s0)
    800064f4:	fab43823          	sd	a1,-80(s0)
    800064f8:	fb043783          	ld	a5,-80(s0)
    800064fc:	0007c783          	lbu	a5,0(a5)
    80006500:	0017c793          	xori	a5,a5,1
    80006504:	0ff7f793          	zext.b	a5,a5
    80006508:	00078a63          	beqz	a5,8000651c <_ZNK8N_puzzleILi4EE9tile_leftEv+0x40>
    8000650c:	fb043583          	ld	a1,-80(s0)
    80006510:	fb843503          	ld	a0,-72(s0)
    80006514:	c75ff0ef          	jal	ra,80006188 <_ZN8N_puzzleILi4EEC1ERKS0_>
    80006518:	2200006f          	j	80006738 <_ZNK8N_puzzleILi4EE9tile_leftEv+0x25c>
    8000651c:	fc840793          	addi	a5,s0,-56
    80006520:	fb043583          	ld	a1,-80(s0)
    80006524:	00078513          	mv	a0,a5
    80006528:	c61ff0ef          	jal	ra,80006188 <_ZN8N_puzzleILi4EEC1ERKS0_>
    8000652c:	fb043783          	ld	a5,-80(s0)
    80006530:	0027c783          	lbu	a5,2(a5)
    80006534:	00078713          	mv	a4,a5
    80006538:	00300793          	li	a5,3
    8000653c:	00f71e63          	bne	a4,a5,80006558 <_ZNK8N_puzzleILi4EE9tile_leftEv+0x7c>
    80006540:	fc040423          	sb	zero,-56(s0)
    80006544:	fc840793          	addi	a5,s0,-56
    80006548:	00078593          	mv	a1,a5
    8000654c:	fb843503          	ld	a0,-72(s0)
    80006550:	c39ff0ef          	jal	ra,80006188 <_ZN8N_puzzleILi4EEC1ERKS0_>
    80006554:	1e40006f          	j	80006738 <_ZNK8N_puzzleILi4EE9tile_leftEv+0x25c>
    80006558:	fb043783          	ld	a5,-80(s0)
    8000655c:	0017c783          	lbu	a5,1(a5)
    80006560:	0007879b          	sext.w	a5,a5
    80006564:	fb043703          	ld	a4,-80(s0)
    80006568:	00274703          	lbu	a4,2(a4)
    8000656c:	0007071b          	sext.w	a4,a4
    80006570:	0017071b          	addiw	a4,a4,1
    80006574:	0007071b          	sext.w	a4,a4
    80006578:	fb043683          	ld	a3,-80(s0)
    8000657c:	00279793          	slli	a5,a5,0x2
    80006580:	00f687b3          	add	a5,a3,a5
    80006584:	00e787b3          	add	a5,a5,a4
    80006588:	00478783          	lb	a5,4(a5)
    8000658c:	0007879b          	sext.w	a5,a5
    80006590:	fff7879b          	addiw	a5,a5,-1
    80006594:	0007879b          	sext.w	a5,a5
    80006598:	00078713          	mv	a4,a5
    8000659c:	41f7579b          	sraiw	a5,a4,0x1f
    800065a0:	01e7d79b          	srliw	a5,a5,0x1e
    800065a4:	00f7073b          	addw	a4,a4,a5
    800065a8:	00377713          	andi	a4,a4,3
    800065ac:	40f707bb          	subw	a5,a4,a5
    800065b0:	0007871b          	sext.w	a4,a5
    800065b4:	fb043783          	ld	a5,-80(s0)
    800065b8:	0027c783          	lbu	a5,2(a5)
    800065bc:	0007879b          	sext.w	a5,a5
    800065c0:	40f707bb          	subw	a5,a4,a5
    800065c4:	0007879b          	sext.w	a5,a5
    800065c8:	00078513          	mv	a0,a5
    800065cc:	185000ef          	jal	ra,80006f50 <_ZN8N_puzzleILi4EE3absEi>
    800065d0:	00050793          	mv	a5,a0
    800065d4:	00078493          	mv	s1,a5
    800065d8:	fb043783          	ld	a5,-80(s0)
    800065dc:	0017c783          	lbu	a5,1(a5)
    800065e0:	0007879b          	sext.w	a5,a5
    800065e4:	fb043703          	ld	a4,-80(s0)
    800065e8:	00274703          	lbu	a4,2(a4)
    800065ec:	0007071b          	sext.w	a4,a4
    800065f0:	0017071b          	addiw	a4,a4,1
    800065f4:	0007071b          	sext.w	a4,a4
    800065f8:	fb043683          	ld	a3,-80(s0)
    800065fc:	00279793          	slli	a5,a5,0x2
    80006600:	00f687b3          	add	a5,a3,a5
    80006604:	00e787b3          	add	a5,a5,a4
    80006608:	00478783          	lb	a5,4(a5)
    8000660c:	0007879b          	sext.w	a5,a5
    80006610:	fff7879b          	addiw	a5,a5,-1
    80006614:	0007879b          	sext.w	a5,a5
    80006618:	00078713          	mv	a4,a5
    8000661c:	41f7579b          	sraiw	a5,a4,0x1f
    80006620:	01e7d79b          	srliw	a5,a5,0x1e
    80006624:	00f7073b          	addw	a4,a4,a5
    80006628:	00377713          	andi	a4,a4,3
    8000662c:	40f707bb          	subw	a5,a4,a5
    80006630:	0007871b          	sext.w	a4,a5
    80006634:	fb043783          	ld	a5,-80(s0)
    80006638:	0027c783          	lbu	a5,2(a5)
    8000663c:	0007879b          	sext.w	a5,a5
    80006640:	0017879b          	addiw	a5,a5,1
    80006644:	0007879b          	sext.w	a5,a5
    80006648:	40f707bb          	subw	a5,a4,a5
    8000664c:	0007879b          	sext.w	a5,a5
    80006650:	00078513          	mv	a0,a5
    80006654:	0fd000ef          	jal	ra,80006f50 <_ZN8N_puzzleILi4EE3absEi>
    80006658:	00050793          	mv	a5,a0
    8000665c:	40f487bb          	subw	a5,s1,a5
    80006660:	0007879b          	sext.w	a5,a5
    80006664:	fcb40703          	lb	a4,-53(s0)
    80006668:	0ff77713          	zext.b	a4,a4
    8000666c:	0ff7f793          	zext.b	a5,a5
    80006670:	00f707bb          	addw	a5,a4,a5
    80006674:	0ff7f793          	zext.b	a5,a5
    80006678:	0187979b          	slliw	a5,a5,0x18
    8000667c:	4187d79b          	sraiw	a5,a5,0x18
    80006680:	fcf405a3          	sb	a5,-53(s0)
    80006684:	fb043783          	ld	a5,-80(s0)
    80006688:	0017c783          	lbu	a5,1(a5)
    8000668c:	0007879b          	sext.w	a5,a5
    80006690:	fb043703          	ld	a4,-80(s0)
    80006694:	00274703          	lbu	a4,2(a4)
    80006698:	0007071b          	sext.w	a4,a4
    8000669c:	0017071b          	addiw	a4,a4,1
    800066a0:	0007071b          	sext.w	a4,a4
    800066a4:	fb043683          	ld	a3,-80(s0)
    800066a8:	0016c683          	lbu	a3,1(a3)
    800066ac:	0006861b          	sext.w	a2,a3
    800066b0:	fb043683          	ld	a3,-80(s0)
    800066b4:	0026c683          	lbu	a3,2(a3)
    800066b8:	0006869b          	sext.w	a3,a3
    800066bc:	fb043583          	ld	a1,-80(s0)
    800066c0:	00279793          	slli	a5,a5,0x2
    800066c4:	00f587b3          	add	a5,a1,a5
    800066c8:	00e787b3          	add	a5,a5,a4
    800066cc:	00478703          	lb	a4,4(a5)
    800066d0:	00261793          	slli	a5,a2,0x2
    800066d4:	fe040613          	addi	a2,s0,-32
    800066d8:	00f607b3          	add	a5,a2,a5
    800066dc:	00d787b3          	add	a5,a5,a3
    800066e0:	fee78623          	sb	a4,-20(a5)
    800066e4:	fca44783          	lbu	a5,-54(s0)
    800066e8:	0017879b          	addiw	a5,a5,1
    800066ec:	0ff7f793          	zext.b	a5,a5
    800066f0:	fcf40523          	sb	a5,-54(s0)
    800066f4:	fb043783          	ld	a5,-80(s0)
    800066f8:	0017c783          	lbu	a5,1(a5)
    800066fc:	0007879b          	sext.w	a5,a5
    80006700:	fca44703          	lbu	a4,-54(s0)
    80006704:	0007071b          	sext.w	a4,a4
    80006708:	00279793          	slli	a5,a5,0x2
    8000670c:	fe040693          	addi	a3,s0,-32
    80006710:	00f687b3          	add	a5,a3,a5
    80006714:	00e787b3          	add	a5,a5,a4
    80006718:	fe078623          	sb	zero,-20(a5)
    8000671c:	fc840793          	addi	a5,s0,-56
    80006720:	00078513          	mv	a0,a5
    80006724:	069000ef          	jal	ra,80006f8c <_ZN8N_puzzleILi4EE14determine_hashEv>
    80006728:	fc840793          	addi	a5,s0,-56
    8000672c:	00078593          	mv	a1,a5
    80006730:	fb843503          	ld	a0,-72(s0)
    80006734:	a55ff0ef          	jal	ra,80006188 <_ZN8N_puzzleILi4EEC1ERKS0_>
    80006738:	fb843503          	ld	a0,-72(s0)
    8000673c:	04813083          	ld	ra,72(sp)
    80006740:	04013403          	ld	s0,64(sp)
    80006744:	03813483          	ld	s1,56(sp)
    80006748:	05010113          	addi	sp,sp,80
    8000674c:	00008067          	ret

Disassembly of section .text._ZNK8N_puzzleILi4EE19tile_right_possibleEv:

0000000080006750 <_ZNK8N_puzzleILi4EE19tile_right_possibleEv>:
    80006750:	fe010113          	addi	sp,sp,-32
    80006754:	00813c23          	sd	s0,24(sp)
    80006758:	02010413          	addi	s0,sp,32
    8000675c:	fea43423          	sd	a0,-24(s0)
    80006760:	fe843783          	ld	a5,-24(s0)
    80006764:	0007c783          	lbu	a5,0(a5)
    80006768:	00078c63          	beqz	a5,80006780 <_ZNK8N_puzzleILi4EE19tile_right_possibleEv+0x30>
    8000676c:	fe843783          	ld	a5,-24(s0)
    80006770:	0027c783          	lbu	a5,2(a5)
    80006774:	00078663          	beqz	a5,80006780 <_ZNK8N_puzzleILi4EE19tile_right_possibleEv+0x30>
    80006778:	00100793          	li	a5,1
    8000677c:	0080006f          	j	80006784 <_ZNK8N_puzzleILi4EE19tile_right_possibleEv+0x34>
    80006780:	00000793          	li	a5,0
    80006784:	00078513          	mv	a0,a5
    80006788:	01813403          	ld	s0,24(sp)
    8000678c:	02010113          	addi	sp,sp,32
    80006790:	00008067          	ret

Disassembly of section .text._ZNK8N_puzzleILi4EE10tile_rightEv:

0000000080006794 <_ZNK8N_puzzleILi4EE10tile_rightEv>:
    80006794:	fb010113          	addi	sp,sp,-80
    80006798:	04113423          	sd	ra,72(sp)
    8000679c:	04813023          	sd	s0,64(sp)
    800067a0:	02913c23          	sd	s1,56(sp)
    800067a4:	05010413          	addi	s0,sp,80
    800067a8:	faa43c23          	sd	a0,-72(s0)
    800067ac:	fab43823          	sd	a1,-80(s0)
    800067b0:	fb043783          	ld	a5,-80(s0)
    800067b4:	0007c783          	lbu	a5,0(a5)
    800067b8:	0017c793          	xori	a5,a5,1
    800067bc:	0ff7f793          	zext.b	a5,a5
    800067c0:	00078a63          	beqz	a5,800067d4 <_ZNK8N_puzzleILi4EE10tile_rightEv+0x40>
    800067c4:	fb043583          	ld	a1,-80(s0)
    800067c8:	fb843503          	ld	a0,-72(s0)
    800067cc:	9bdff0ef          	jal	ra,80006188 <_ZN8N_puzzleILi4EEC1ERKS0_>
    800067d0:	2180006f          	j	800069e8 <_ZNK8N_puzzleILi4EE10tile_rightEv+0x254>
    800067d4:	fc840793          	addi	a5,s0,-56
    800067d8:	fb043583          	ld	a1,-80(s0)
    800067dc:	00078513          	mv	a0,a5
    800067e0:	9a9ff0ef          	jal	ra,80006188 <_ZN8N_puzzleILi4EEC1ERKS0_>
    800067e4:	fb043783          	ld	a5,-80(s0)
    800067e8:	0027c783          	lbu	a5,2(a5)
    800067ec:	00079e63          	bnez	a5,80006808 <_ZNK8N_puzzleILi4EE10tile_rightEv+0x74>
    800067f0:	fc040423          	sb	zero,-56(s0)
    800067f4:	fc840793          	addi	a5,s0,-56
    800067f8:	00078593          	mv	a1,a5
    800067fc:	fb843503          	ld	a0,-72(s0)
    80006800:	989ff0ef          	jal	ra,80006188 <_ZN8N_puzzleILi4EEC1ERKS0_>
    80006804:	1e40006f          	j	800069e8 <_ZNK8N_puzzleILi4EE10tile_rightEv+0x254>
    80006808:	fb043783          	ld	a5,-80(s0)
    8000680c:	0017c783          	lbu	a5,1(a5)
    80006810:	0007879b          	sext.w	a5,a5
    80006814:	fb043703          	ld	a4,-80(s0)
    80006818:	00274703          	lbu	a4,2(a4)
    8000681c:	0007071b          	sext.w	a4,a4
    80006820:	fff7071b          	addiw	a4,a4,-1
    80006824:	0007071b          	sext.w	a4,a4
    80006828:	fb043683          	ld	a3,-80(s0)
    8000682c:	00279793          	slli	a5,a5,0x2
    80006830:	00f687b3          	add	a5,a3,a5
    80006834:	00e787b3          	add	a5,a5,a4
    80006838:	00478783          	lb	a5,4(a5)
    8000683c:	0007879b          	sext.w	a5,a5
    80006840:	fff7879b          	addiw	a5,a5,-1
    80006844:	0007879b          	sext.w	a5,a5
    80006848:	00078713          	mv	a4,a5
    8000684c:	41f7579b          	sraiw	a5,a4,0x1f
    80006850:	01e7d79b          	srliw	a5,a5,0x1e
    80006854:	00f7073b          	addw	a4,a4,a5
    80006858:	00377713          	andi	a4,a4,3
    8000685c:	40f707bb          	subw	a5,a4,a5
    80006860:	0007871b          	sext.w	a4,a5
    80006864:	fb043783          	ld	a5,-80(s0)
    80006868:	0027c783          	lbu	a5,2(a5)
    8000686c:	0007879b          	sext.w	a5,a5
    80006870:	40f707bb          	subw	a5,a4,a5
    80006874:	0007879b          	sext.w	a5,a5
    80006878:	00078513          	mv	a0,a5
    8000687c:	6d4000ef          	jal	ra,80006f50 <_ZN8N_puzzleILi4EE3absEi>
    80006880:	00050793          	mv	a5,a0
    80006884:	00078493          	mv	s1,a5
    80006888:	fb043783          	ld	a5,-80(s0)
    8000688c:	0017c783          	lbu	a5,1(a5)
    80006890:	0007879b          	sext.w	a5,a5
    80006894:	fb043703          	ld	a4,-80(s0)
    80006898:	00274703          	lbu	a4,2(a4)
    8000689c:	0007071b          	sext.w	a4,a4
    800068a0:	fff7071b          	addiw	a4,a4,-1
    800068a4:	0007071b          	sext.w	a4,a4
    800068a8:	fb043683          	ld	a3,-80(s0)
    800068ac:	00279793          	slli	a5,a5,0x2
    800068b0:	00f687b3          	add	a5,a3,a5
    800068b4:	00e787b3          	add	a5,a5,a4
    800068b8:	00478783          	lb	a5,4(a5)
    800068bc:	0007879b          	sext.w	a5,a5
    800068c0:	fff7879b          	addiw	a5,a5,-1
    800068c4:	0007879b          	sext.w	a5,a5
    800068c8:	00078713          	mv	a4,a5
    800068cc:	41f7579b          	sraiw	a5,a4,0x1f
    800068d0:	01e7d79b          	srliw	a5,a5,0x1e
    800068d4:	00f7073b          	addw	a4,a4,a5
    800068d8:	00377713          	andi	a4,a4,3
    800068dc:	40f707bb          	subw	a5,a4,a5
    800068e0:	0007871b          	sext.w	a4,a5
    800068e4:	fb043783          	ld	a5,-80(s0)
    800068e8:	0027c783          	lbu	a5,2(a5)
    800068ec:	0007879b          	sext.w	a5,a5
    800068f0:	fff7879b          	addiw	a5,a5,-1
    800068f4:	0007879b          	sext.w	a5,a5
    800068f8:	40f707bb          	subw	a5,a4,a5
    800068fc:	0007879b          	sext.w	a5,a5
    80006900:	00078513          	mv	a0,a5
    80006904:	64c000ef          	jal	ra,80006f50 <_ZN8N_puzzleILi4EE3absEi>
    80006908:	00050793          	mv	a5,a0
    8000690c:	40f487bb          	subw	a5,s1,a5
    80006910:	0007879b          	sext.w	a5,a5
    80006914:	fcb40703          	lb	a4,-53(s0)
    80006918:	0ff77713          	zext.b	a4,a4
    8000691c:	0ff7f793          	zext.b	a5,a5
    80006920:	00f707bb          	addw	a5,a4,a5
    80006924:	0ff7f793          	zext.b	a5,a5
    80006928:	0187979b          	slliw	a5,a5,0x18
    8000692c:	4187d79b          	sraiw	a5,a5,0x18
    80006930:	fcf405a3          	sb	a5,-53(s0)
    80006934:	fb043783          	ld	a5,-80(s0)
    80006938:	0017c783          	lbu	a5,1(a5)
    8000693c:	0007879b          	sext.w	a5,a5
    80006940:	fb043703          	ld	a4,-80(s0)
    80006944:	00274703          	lbu	a4,2(a4)
    80006948:	0007071b          	sext.w	a4,a4
    8000694c:	fff7071b          	addiw	a4,a4,-1
    80006950:	0007071b          	sext.w	a4,a4
    80006954:	fb043683          	ld	a3,-80(s0)
    80006958:	0016c683          	lbu	a3,1(a3)
    8000695c:	0006861b          	sext.w	a2,a3
    80006960:	fb043683          	ld	a3,-80(s0)
    80006964:	0026c683          	lbu	a3,2(a3)
    80006968:	0006869b          	sext.w	a3,a3
    8000696c:	fb043583          	ld	a1,-80(s0)
    80006970:	00279793          	slli	a5,a5,0x2
    80006974:	00f587b3          	add	a5,a1,a5
    80006978:	00e787b3          	add	a5,a5,a4
    8000697c:	00478703          	lb	a4,4(a5)
    80006980:	00261793          	slli	a5,a2,0x2
    80006984:	fe040613          	addi	a2,s0,-32
    80006988:	00f607b3          	add	a5,a2,a5
    8000698c:	00d787b3          	add	a5,a5,a3
    80006990:	fee78623          	sb	a4,-20(a5)
    80006994:	fca44783          	lbu	a5,-54(s0)
    80006998:	fff7879b          	addiw	a5,a5,-1
    8000699c:	0ff7f793          	zext.b	a5,a5
    800069a0:	fcf40523          	sb	a5,-54(s0)
    800069a4:	fb043783          	ld	a5,-80(s0)
    800069a8:	0017c783          	lbu	a5,1(a5)
    800069ac:	0007879b          	sext.w	a5,a5
    800069b0:	fca44703          	lbu	a4,-54(s0)
    800069b4:	0007071b          	sext.w	a4,a4
    800069b8:	00279793          	slli	a5,a5,0x2
    800069bc:	fe040693          	addi	a3,s0,-32
    800069c0:	00f687b3          	add	a5,a3,a5
    800069c4:	00e787b3          	add	a5,a5,a4
    800069c8:	fe078623          	sb	zero,-20(a5)
    800069cc:	fc840793          	addi	a5,s0,-56
    800069d0:	00078513          	mv	a0,a5
    800069d4:	5b8000ef          	jal	ra,80006f8c <_ZN8N_puzzleILi4EE14determine_hashEv>
    800069d8:	fc840793          	addi	a5,s0,-56
    800069dc:	00078593          	mv	a1,a5
    800069e0:	fb843503          	ld	a0,-72(s0)
    800069e4:	fa4ff0ef          	jal	ra,80006188 <_ZN8N_puzzleILi4EEC1ERKS0_>
    800069e8:	fb843503          	ld	a0,-72(s0)
    800069ec:	04813083          	ld	ra,72(sp)
    800069f0:	04013403          	ld	s0,64(sp)
    800069f4:	03813483          	ld	s1,56(sp)
    800069f8:	05010113          	addi	sp,sp,80
    800069fc:	00008067          	ret

Disassembly of section .text._ZNK8N_puzzleILi4EE16tile_up_possibleEv:

0000000080006a00 <_ZNK8N_puzzleILi4EE16tile_up_possibleEv>:
    80006a00:	fe010113          	addi	sp,sp,-32
    80006a04:	00813c23          	sd	s0,24(sp)
    80006a08:	02010413          	addi	s0,sp,32
    80006a0c:	fea43423          	sd	a0,-24(s0)
    80006a10:	fe843783          	ld	a5,-24(s0)
    80006a14:	0007c783          	lbu	a5,0(a5)
    80006a18:	02078063          	beqz	a5,80006a38 <_ZNK8N_puzzleILi4EE16tile_up_possibleEv+0x38>
    80006a1c:	fe843783          	ld	a5,-24(s0)
    80006a20:	0017c783          	lbu	a5,1(a5)
    80006a24:	00078713          	mv	a4,a5
    80006a28:	00300793          	li	a5,3
    80006a2c:	00f70663          	beq	a4,a5,80006a38 <_ZNK8N_puzzleILi4EE16tile_up_possibleEv+0x38>
    80006a30:	00100793          	li	a5,1
    80006a34:	0080006f          	j	80006a3c <_ZNK8N_puzzleILi4EE16tile_up_possibleEv+0x3c>
    80006a38:	00000793          	li	a5,0
    80006a3c:	00078513          	mv	a0,a5
    80006a40:	01813403          	ld	s0,24(sp)
    80006a44:	02010113          	addi	sp,sp,32
    80006a48:	00008067          	ret

Disassembly of section .text._ZNK8N_puzzleILi4EE7tile_upEv:

0000000080006a4c <_ZNK8N_puzzleILi4EE7tile_upEv>:
    80006a4c:	fb010113          	addi	sp,sp,-80
    80006a50:	04113423          	sd	ra,72(sp)
    80006a54:	04813023          	sd	s0,64(sp)
    80006a58:	02913c23          	sd	s1,56(sp)
    80006a5c:	05010413          	addi	s0,sp,80
    80006a60:	faa43c23          	sd	a0,-72(s0)
    80006a64:	fab43823          	sd	a1,-80(s0)
    80006a68:	fb043783          	ld	a5,-80(s0)
    80006a6c:	0007c783          	lbu	a5,0(a5)
    80006a70:	0017c793          	xori	a5,a5,1
    80006a74:	0ff7f793          	zext.b	a5,a5
    80006a78:	00078a63          	beqz	a5,80006a8c <_ZNK8N_puzzleILi4EE7tile_upEv+0x40>
    80006a7c:	fb043583          	ld	a1,-80(s0)
    80006a80:	fb843503          	ld	a0,-72(s0)
    80006a84:	f04ff0ef          	jal	ra,80006188 <_ZN8N_puzzleILi4EEC1ERKS0_>
    80006a88:	2100006f          	j	80006c98 <_ZNK8N_puzzleILi4EE7tile_upEv+0x24c>
    80006a8c:	fc840793          	addi	a5,s0,-56
    80006a90:	fb043583          	ld	a1,-80(s0)
    80006a94:	00078513          	mv	a0,a5
    80006a98:	ef0ff0ef          	jal	ra,80006188 <_ZN8N_puzzleILi4EEC1ERKS0_>
    80006a9c:	fb043783          	ld	a5,-80(s0)
    80006aa0:	0017c783          	lbu	a5,1(a5)
    80006aa4:	00078713          	mv	a4,a5
    80006aa8:	00300793          	li	a5,3
    80006aac:	00f71e63          	bne	a4,a5,80006ac8 <_ZNK8N_puzzleILi4EE7tile_upEv+0x7c>
    80006ab0:	fc040423          	sb	zero,-56(s0)
    80006ab4:	fc840793          	addi	a5,s0,-56
    80006ab8:	00078593          	mv	a1,a5
    80006abc:	fb843503          	ld	a0,-72(s0)
    80006ac0:	ec8ff0ef          	jal	ra,80006188 <_ZN8N_puzzleILi4EEC1ERKS0_>
    80006ac4:	1d40006f          	j	80006c98 <_ZNK8N_puzzleILi4EE7tile_upEv+0x24c>
    80006ac8:	fb043783          	ld	a5,-80(s0)
    80006acc:	0017c783          	lbu	a5,1(a5)
    80006ad0:	0007879b          	sext.w	a5,a5
    80006ad4:	0017879b          	addiw	a5,a5,1
    80006ad8:	0007879b          	sext.w	a5,a5
    80006adc:	fb043703          	ld	a4,-80(s0)
    80006ae0:	00274703          	lbu	a4,2(a4)
    80006ae4:	0007071b          	sext.w	a4,a4
    80006ae8:	fb043683          	ld	a3,-80(s0)
    80006aec:	00279793          	slli	a5,a5,0x2
    80006af0:	00f687b3          	add	a5,a3,a5
    80006af4:	00e787b3          	add	a5,a5,a4
    80006af8:	00478783          	lb	a5,4(a5)
    80006afc:	0007879b          	sext.w	a5,a5
    80006b00:	fff7879b          	addiw	a5,a5,-1
    80006b04:	0007879b          	sext.w	a5,a5
    80006b08:	41f7d71b          	sraiw	a4,a5,0x1f
    80006b0c:	01e7571b          	srliw	a4,a4,0x1e
    80006b10:	00f707bb          	addw	a5,a4,a5
    80006b14:	4027d79b          	sraiw	a5,a5,0x2
    80006b18:	0007871b          	sext.w	a4,a5
    80006b1c:	fb043783          	ld	a5,-80(s0)
    80006b20:	0017c783          	lbu	a5,1(a5)
    80006b24:	0007879b          	sext.w	a5,a5
    80006b28:	40f707bb          	subw	a5,a4,a5
    80006b2c:	0007879b          	sext.w	a5,a5
    80006b30:	00078513          	mv	a0,a5
    80006b34:	41c000ef          	jal	ra,80006f50 <_ZN8N_puzzleILi4EE3absEi>
    80006b38:	00050793          	mv	a5,a0
    80006b3c:	00078493          	mv	s1,a5
    80006b40:	fb043783          	ld	a5,-80(s0)
    80006b44:	0017c783          	lbu	a5,1(a5)
    80006b48:	0007879b          	sext.w	a5,a5
    80006b4c:	0017879b          	addiw	a5,a5,1
    80006b50:	0007879b          	sext.w	a5,a5
    80006b54:	fb043703          	ld	a4,-80(s0)
    80006b58:	00274703          	lbu	a4,2(a4)
    80006b5c:	0007071b          	sext.w	a4,a4
    80006b60:	fb043683          	ld	a3,-80(s0)
    80006b64:	00279793          	slli	a5,a5,0x2
    80006b68:	00f687b3          	add	a5,a3,a5
    80006b6c:	00e787b3          	add	a5,a5,a4
    80006b70:	00478783          	lb	a5,4(a5)
    80006b74:	0007879b          	sext.w	a5,a5
    80006b78:	fff7879b          	addiw	a5,a5,-1
    80006b7c:	0007879b          	sext.w	a5,a5
    80006b80:	41f7d71b          	sraiw	a4,a5,0x1f
    80006b84:	01e7571b          	srliw	a4,a4,0x1e
    80006b88:	00f707bb          	addw	a5,a4,a5
    80006b8c:	4027d79b          	sraiw	a5,a5,0x2
    80006b90:	0007871b          	sext.w	a4,a5
    80006b94:	fb043783          	ld	a5,-80(s0)
    80006b98:	0017c783          	lbu	a5,1(a5)
    80006b9c:	0007879b          	sext.w	a5,a5
    80006ba0:	0017879b          	addiw	a5,a5,1
    80006ba4:	0007879b          	sext.w	a5,a5
    80006ba8:	40f707bb          	subw	a5,a4,a5
    80006bac:	0007879b          	sext.w	a5,a5
    80006bb0:	00078513          	mv	a0,a5
    80006bb4:	39c000ef          	jal	ra,80006f50 <_ZN8N_puzzleILi4EE3absEi>
    80006bb8:	00050793          	mv	a5,a0
    80006bbc:	40f487bb          	subw	a5,s1,a5
    80006bc0:	0007879b          	sext.w	a5,a5
    80006bc4:	fcb40703          	lb	a4,-53(s0)
    80006bc8:	0ff77713          	zext.b	a4,a4
    80006bcc:	0ff7f793          	zext.b	a5,a5
    80006bd0:	00f707bb          	addw	a5,a4,a5
    80006bd4:	0ff7f793          	zext.b	a5,a5
    80006bd8:	0187979b          	slliw	a5,a5,0x18
    80006bdc:	4187d79b          	sraiw	a5,a5,0x18
    80006be0:	fcf405a3          	sb	a5,-53(s0)
    80006be4:	fb043783          	ld	a5,-80(s0)
    80006be8:	0017c783          	lbu	a5,1(a5)
    80006bec:	0007879b          	sext.w	a5,a5
    80006bf0:	0017879b          	addiw	a5,a5,1
    80006bf4:	0007879b          	sext.w	a5,a5
    80006bf8:	fb043703          	ld	a4,-80(s0)
    80006bfc:	00274703          	lbu	a4,2(a4)
    80006c00:	0007071b          	sext.w	a4,a4
    80006c04:	fb043683          	ld	a3,-80(s0)
    80006c08:	0016c683          	lbu	a3,1(a3)
    80006c0c:	0006861b          	sext.w	a2,a3
    80006c10:	fb043683          	ld	a3,-80(s0)
    80006c14:	0026c683          	lbu	a3,2(a3)
    80006c18:	0006869b          	sext.w	a3,a3
    80006c1c:	fb043583          	ld	a1,-80(s0)
    80006c20:	00279793          	slli	a5,a5,0x2
    80006c24:	00f587b3          	add	a5,a1,a5
    80006c28:	00e787b3          	add	a5,a5,a4
    80006c2c:	00478703          	lb	a4,4(a5)
    80006c30:	00261793          	slli	a5,a2,0x2
    80006c34:	fe040613          	addi	a2,s0,-32
    80006c38:	00f607b3          	add	a5,a2,a5
    80006c3c:	00d787b3          	add	a5,a5,a3
    80006c40:	fee78623          	sb	a4,-20(a5)
    80006c44:	fc944783          	lbu	a5,-55(s0)
    80006c48:	0017879b          	addiw	a5,a5,1
    80006c4c:	0ff7f793          	zext.b	a5,a5
    80006c50:	fcf404a3          	sb	a5,-55(s0)
    80006c54:	fc944783          	lbu	a5,-55(s0)
    80006c58:	0007879b          	sext.w	a5,a5
    80006c5c:	fb043703          	ld	a4,-80(s0)
    80006c60:	00274703          	lbu	a4,2(a4)
    80006c64:	0007071b          	sext.w	a4,a4
    80006c68:	00279793          	slli	a5,a5,0x2
    80006c6c:	fe040693          	addi	a3,s0,-32
    80006c70:	00f687b3          	add	a5,a3,a5
    80006c74:	00e787b3          	add	a5,a5,a4
    80006c78:	fe078623          	sb	zero,-20(a5)
    80006c7c:	fc840793          	addi	a5,s0,-56
    80006c80:	00078513          	mv	a0,a5
    80006c84:	308000ef          	jal	ra,80006f8c <_ZN8N_puzzleILi4EE14determine_hashEv>
    80006c88:	fc840793          	addi	a5,s0,-56
    80006c8c:	00078593          	mv	a1,a5
    80006c90:	fb843503          	ld	a0,-72(s0)
    80006c94:	cf4ff0ef          	jal	ra,80006188 <_ZN8N_puzzleILi4EEC1ERKS0_>
    80006c98:	fb843503          	ld	a0,-72(s0)
    80006c9c:	04813083          	ld	ra,72(sp)
    80006ca0:	04013403          	ld	s0,64(sp)
    80006ca4:	03813483          	ld	s1,56(sp)
    80006ca8:	05010113          	addi	sp,sp,80
    80006cac:	00008067          	ret

Disassembly of section .text._ZNK8N_puzzleILi4EE18tile_down_possibleEv:

0000000080006cb0 <_ZNK8N_puzzleILi4EE18tile_down_possibleEv>:
    80006cb0:	fe010113          	addi	sp,sp,-32
    80006cb4:	00813c23          	sd	s0,24(sp)
    80006cb8:	02010413          	addi	s0,sp,32
    80006cbc:	fea43423          	sd	a0,-24(s0)
    80006cc0:	fe843783          	ld	a5,-24(s0)
    80006cc4:	0007c783          	lbu	a5,0(a5)
    80006cc8:	00078c63          	beqz	a5,80006ce0 <_ZNK8N_puzzleILi4EE18tile_down_possibleEv+0x30>
    80006ccc:	fe843783          	ld	a5,-24(s0)
    80006cd0:	0017c783          	lbu	a5,1(a5)
    80006cd4:	00078663          	beqz	a5,80006ce0 <_ZNK8N_puzzleILi4EE18tile_down_possibleEv+0x30>
    80006cd8:	00100793          	li	a5,1
    80006cdc:	0080006f          	j	80006ce4 <_ZNK8N_puzzleILi4EE18tile_down_possibleEv+0x34>
    80006ce0:	00000793          	li	a5,0
    80006ce4:	00078513          	mv	a0,a5
    80006ce8:	01813403          	ld	s0,24(sp)
    80006cec:	02010113          	addi	sp,sp,32
    80006cf0:	00008067          	ret

Disassembly of section .text._ZNK8N_puzzleILi4EE9tile_downEv:

0000000080006cf4 <_ZNK8N_puzzleILi4EE9tile_downEv>:
    80006cf4:	fb010113          	addi	sp,sp,-80
    80006cf8:	04113423          	sd	ra,72(sp)
    80006cfc:	04813023          	sd	s0,64(sp)
    80006d00:	02913c23          	sd	s1,56(sp)
    80006d04:	05010413          	addi	s0,sp,80
    80006d08:	faa43c23          	sd	a0,-72(s0)
    80006d0c:	fab43823          	sd	a1,-80(s0)
    80006d10:	fb043783          	ld	a5,-80(s0)
    80006d14:	0007c783          	lbu	a5,0(a5)
    80006d18:	0017c793          	xori	a5,a5,1
    80006d1c:	0ff7f793          	zext.b	a5,a5
    80006d20:	00078a63          	beqz	a5,80006d34 <_ZNK8N_puzzleILi4EE9tile_downEv+0x40>
    80006d24:	fb043583          	ld	a1,-80(s0)
    80006d28:	fb843503          	ld	a0,-72(s0)
    80006d2c:	c5cff0ef          	jal	ra,80006188 <_ZN8N_puzzleILi4EEC1ERKS0_>
    80006d30:	2080006f          	j	80006f38 <_ZNK8N_puzzleILi4EE9tile_downEv+0x244>
    80006d34:	fc840793          	addi	a5,s0,-56
    80006d38:	fb043583          	ld	a1,-80(s0)
    80006d3c:	00078513          	mv	a0,a5
    80006d40:	c48ff0ef          	jal	ra,80006188 <_ZN8N_puzzleILi4EEC1ERKS0_>
    80006d44:	fb043783          	ld	a5,-80(s0)
    80006d48:	0017c783          	lbu	a5,1(a5)
    80006d4c:	00079e63          	bnez	a5,80006d68 <_ZNK8N_puzzleILi4EE9tile_downEv+0x74>
    80006d50:	fc040423          	sb	zero,-56(s0)
    80006d54:	fc840793          	addi	a5,s0,-56
    80006d58:	00078593          	mv	a1,a5
    80006d5c:	fb843503          	ld	a0,-72(s0)
    80006d60:	c28ff0ef          	jal	ra,80006188 <_ZN8N_puzzleILi4EEC1ERKS0_>
    80006d64:	1d40006f          	j	80006f38 <_ZNK8N_puzzleILi4EE9tile_downEv+0x244>
    80006d68:	fb043783          	ld	a5,-80(s0)
    80006d6c:	0017c783          	lbu	a5,1(a5)
    80006d70:	0007879b          	sext.w	a5,a5
    80006d74:	fff7879b          	addiw	a5,a5,-1
    80006d78:	0007879b          	sext.w	a5,a5
    80006d7c:	fb043703          	ld	a4,-80(s0)
    80006d80:	00274703          	lbu	a4,2(a4)
    80006d84:	0007071b          	sext.w	a4,a4
    80006d88:	fb043683          	ld	a3,-80(s0)
    80006d8c:	00279793          	slli	a5,a5,0x2
    80006d90:	00f687b3          	add	a5,a3,a5
    80006d94:	00e787b3          	add	a5,a5,a4
    80006d98:	00478783          	lb	a5,4(a5)
    80006d9c:	0007879b          	sext.w	a5,a5
    80006da0:	fff7879b          	addiw	a5,a5,-1
    80006da4:	0007879b          	sext.w	a5,a5
    80006da8:	41f7d71b          	sraiw	a4,a5,0x1f
    80006dac:	01e7571b          	srliw	a4,a4,0x1e
    80006db0:	00f707bb          	addw	a5,a4,a5
    80006db4:	4027d79b          	sraiw	a5,a5,0x2
    80006db8:	0007871b          	sext.w	a4,a5
    80006dbc:	fb043783          	ld	a5,-80(s0)
    80006dc0:	0017c783          	lbu	a5,1(a5)
    80006dc4:	0007879b          	sext.w	a5,a5
    80006dc8:	40f707bb          	subw	a5,a4,a5
    80006dcc:	0007879b          	sext.w	a5,a5
    80006dd0:	00078513          	mv	a0,a5
    80006dd4:	17c000ef          	jal	ra,80006f50 <_ZN8N_puzzleILi4EE3absEi>
    80006dd8:	00050793          	mv	a5,a0
    80006ddc:	00078493          	mv	s1,a5
    80006de0:	fb043783          	ld	a5,-80(s0)
    80006de4:	0017c783          	lbu	a5,1(a5)
    80006de8:	0007879b          	sext.w	a5,a5
    80006dec:	fff7879b          	addiw	a5,a5,-1
    80006df0:	0007879b          	sext.w	a5,a5
    80006df4:	fb043703          	ld	a4,-80(s0)
    80006df8:	00274703          	lbu	a4,2(a4)
    80006dfc:	0007071b          	sext.w	a4,a4
    80006e00:	fb043683          	ld	a3,-80(s0)
    80006e04:	00279793          	slli	a5,a5,0x2
    80006e08:	00f687b3          	add	a5,a3,a5
    80006e0c:	00e787b3          	add	a5,a5,a4
    80006e10:	00478783          	lb	a5,4(a5)
    80006e14:	0007879b          	sext.w	a5,a5
    80006e18:	fff7879b          	addiw	a5,a5,-1
    80006e1c:	0007879b          	sext.w	a5,a5
    80006e20:	41f7d71b          	sraiw	a4,a5,0x1f
    80006e24:	01e7571b          	srliw	a4,a4,0x1e
    80006e28:	00f707bb          	addw	a5,a4,a5
    80006e2c:	4027d79b          	sraiw	a5,a5,0x2
    80006e30:	0007871b          	sext.w	a4,a5
    80006e34:	fb043783          	ld	a5,-80(s0)
    80006e38:	0017c783          	lbu	a5,1(a5)
    80006e3c:	0007879b          	sext.w	a5,a5
    80006e40:	fff7879b          	addiw	a5,a5,-1
    80006e44:	0007879b          	sext.w	a5,a5
    80006e48:	40f707bb          	subw	a5,a4,a5
    80006e4c:	0007879b          	sext.w	a5,a5
    80006e50:	00078513          	mv	a0,a5
    80006e54:	0fc000ef          	jal	ra,80006f50 <_ZN8N_puzzleILi4EE3absEi>
    80006e58:	00050793          	mv	a5,a0
    80006e5c:	40f487bb          	subw	a5,s1,a5
    80006e60:	0007879b          	sext.w	a5,a5
    80006e64:	fcb40703          	lb	a4,-53(s0)
    80006e68:	0ff77713          	zext.b	a4,a4
    80006e6c:	0ff7f793          	zext.b	a5,a5
    80006e70:	00f707bb          	addw	a5,a4,a5
    80006e74:	0ff7f793          	zext.b	a5,a5
    80006e78:	0187979b          	slliw	a5,a5,0x18
    80006e7c:	4187d79b          	sraiw	a5,a5,0x18
    80006e80:	fcf405a3          	sb	a5,-53(s0)
    80006e84:	fb043783          	ld	a5,-80(s0)
    80006e88:	0017c783          	lbu	a5,1(a5)
    80006e8c:	0007879b          	sext.w	a5,a5
    80006e90:	fff7879b          	addiw	a5,a5,-1
    80006e94:	0007879b          	sext.w	a5,a5
    80006e98:	fb043703          	ld	a4,-80(s0)
    80006e9c:	00274703          	lbu	a4,2(a4)
    80006ea0:	0007071b          	sext.w	a4,a4
    80006ea4:	fb043683          	ld	a3,-80(s0)
    80006ea8:	0016c683          	lbu	a3,1(a3)
    80006eac:	0006861b          	sext.w	a2,a3
    80006eb0:	fb043683          	ld	a3,-80(s0)
    80006eb4:	0026c683          	lbu	a3,2(a3)
    80006eb8:	0006869b          	sext.w	a3,a3
    80006ebc:	fb043583          	ld	a1,-80(s0)
    80006ec0:	00279793          	slli	a5,a5,0x2
    80006ec4:	00f587b3          	add	a5,a1,a5
    80006ec8:	00e787b3          	add	a5,a5,a4
    80006ecc:	00478703          	lb	a4,4(a5)
    80006ed0:	00261793          	slli	a5,a2,0x2
    80006ed4:	fe040613          	addi	a2,s0,-32
    80006ed8:	00f607b3          	add	a5,a2,a5
    80006edc:	00d787b3          	add	a5,a5,a3
    80006ee0:	fee78623          	sb	a4,-20(a5)
    80006ee4:	fc944783          	lbu	a5,-55(s0)
    80006ee8:	fff7879b          	addiw	a5,a5,-1
    80006eec:	0ff7f793          	zext.b	a5,a5
    80006ef0:	fcf404a3          	sb	a5,-55(s0)
    80006ef4:	fc944783          	lbu	a5,-55(s0)
    80006ef8:	0007879b          	sext.w	a5,a5
    80006efc:	fb043703          	ld	a4,-80(s0)
    80006f00:	00274703          	lbu	a4,2(a4)
    80006f04:	0007071b          	sext.w	a4,a4
    80006f08:	00279793          	slli	a5,a5,0x2
    80006f0c:	fe040693          	addi	a3,s0,-32
    80006f10:	00f687b3          	add	a5,a3,a5
    80006f14:	00e787b3          	add	a5,a5,a4
    80006f18:	fe078623          	sb	zero,-20(a5)
    80006f1c:	fc840793          	addi	a5,s0,-56
    80006f20:	00078513          	mv	a0,a5
    80006f24:	068000ef          	jal	ra,80006f8c <_ZN8N_puzzleILi4EE14determine_hashEv>
    80006f28:	fc840793          	addi	a5,s0,-56
    80006f2c:	00078593          	mv	a1,a5
    80006f30:	fb843503          	ld	a0,-72(s0)
    80006f34:	a54ff0ef          	jal	ra,80006188 <_ZN8N_puzzleILi4EEC1ERKS0_>
    80006f38:	fb843503          	ld	a0,-72(s0)
    80006f3c:	04813083          	ld	ra,72(sp)
    80006f40:	04013403          	ld	s0,64(sp)
    80006f44:	03813483          	ld	s1,56(sp)
    80006f48:	05010113          	addi	sp,sp,80
    80006f4c:	00008067          	ret

Disassembly of section .text._ZN8N_puzzleILi4EE3absEi:

0000000080006f50 <_ZN8N_puzzleILi4EE3absEi>:
    80006f50:	fe010113          	addi	sp,sp,-32
    80006f54:	00813c23          	sd	s0,24(sp)
    80006f58:	02010413          	addi	s0,sp,32
    80006f5c:	00050793          	mv	a5,a0
    80006f60:	fef42623          	sw	a5,-20(s0)
    80006f64:	fec42783          	lw	a5,-20(s0)
    80006f68:	41f7d79b          	sraiw	a5,a5,0x1f
    80006f6c:	fec42703          	lw	a4,-20(s0)
    80006f70:	00e7c733          	xor	a4,a5,a4
    80006f74:	40f707bb          	subw	a5,a4,a5
    80006f78:	0007879b          	sext.w	a5,a5
    80006f7c:	00078513          	mv	a0,a5
    80006f80:	01813403          	ld	s0,24(sp)
    80006f84:	02010113          	addi	sp,sp,32
    80006f88:	00008067          	ret

Disassembly of section .text._ZN8N_puzzleILi4EE14determine_hashEv:

0000000080006f8c <_ZN8N_puzzleILi4EE14determine_hashEv>:
    80006f8c:	fd010113          	addi	sp,sp,-48
    80006f90:	02813423          	sd	s0,40(sp)
    80006f94:	03010413          	addi	s0,sp,48
    80006f98:	fca43c23          	sd	a0,-40(s0)
    80006f9c:	fd843783          	ld	a5,-40(s0)
    80006fa0:	0007aa23          	sw	zero,20(a5)
    80006fa4:	fe042623          	sw	zero,-20(s0)
    80006fa8:	fec42783          	lw	a5,-20(s0)
    80006fac:	0007871b          	sext.w	a4,a5
    80006fb0:	00300793          	li	a5,3
    80006fb4:	06e7ce63          	blt	a5,a4,80007030 <_ZN8N_puzzleILi4EE14determine_hashEv+0xa4>
    80006fb8:	fe042423          	sw	zero,-24(s0)
    80006fbc:	fe842783          	lw	a5,-24(s0)
    80006fc0:	0007871b          	sext.w	a4,a5
    80006fc4:	00300793          	li	a5,3
    80006fc8:	04e7cc63          	blt	a5,a4,80007020 <_ZN8N_puzzleILi4EE14determine_hashEv+0x94>
    80006fcc:	fd843783          	ld	a5,-40(s0)
    80006fd0:	0147a703          	lw	a4,20(a5)
    80006fd4:	7b500793          	li	a5,1973
    80006fd8:	02f707bb          	mulw	a5,a4,a5
    80006fdc:	0007871b          	sext.w	a4,a5
    80006fe0:	fd843603          	ld	a2,-40(s0)
    80006fe4:	fe842683          	lw	a3,-24(s0)
    80006fe8:	fec42783          	lw	a5,-20(s0)
    80006fec:	00279793          	slli	a5,a5,0x2
    80006ff0:	00f607b3          	add	a5,a2,a5
    80006ff4:	00d787b3          	add	a5,a5,a3
    80006ff8:	00478783          	lb	a5,4(a5)
    80006ffc:	0007879b          	sext.w	a5,a5
    80007000:	00f707bb          	addw	a5,a4,a5
    80007004:	0007871b          	sext.w	a4,a5
    80007008:	fd843783          	ld	a5,-40(s0)
    8000700c:	00e7aa23          	sw	a4,20(a5)
    80007010:	fe842783          	lw	a5,-24(s0)
    80007014:	0017879b          	addiw	a5,a5,1
    80007018:	fef42423          	sw	a5,-24(s0)
    8000701c:	fa1ff06f          	j	80006fbc <_ZN8N_puzzleILi4EE14determine_hashEv+0x30>
    80007020:	fec42783          	lw	a5,-20(s0)
    80007024:	0017879b          	addiw	a5,a5,1
    80007028:	fef42623          	sw	a5,-20(s0)
    8000702c:	f7dff06f          	j	80006fa8 <_ZN8N_puzzleILi4EE14determine_hashEv+0x1c>
    80007030:	00000013          	nop
    80007034:	02813403          	ld	s0,40(sp)
    80007038:	03010113          	addi	sp,sp,48
    8000703c:	00008067          	ret

Disassembly of section .text._ZNK8N_puzzleILi4EE5validEv:

0000000080007040 <_ZNK8N_puzzleILi4EE5validEv>:
    80007040:	fe010113          	addi	sp,sp,-32
    80007044:	00813c23          	sd	s0,24(sp)
    80007048:	02010413          	addi	s0,sp,32
    8000704c:	fea43423          	sd	a0,-24(s0)
    80007050:	fe843783          	ld	a5,-24(s0)
    80007054:	0007c783          	lbu	a5,0(a5)
    80007058:	00078513          	mv	a0,a5
    8000705c:	01813403          	ld	s0,24(sp)
    80007060:	02010113          	addi	sp,sp,32
    80007064:	00008067          	ret

Disassembly of section .text._ZNK14Updatable_heapI8N_puzzleILi4EEE7pointerERKS1_:

0000000080007068 <_ZNK14Updatable_heapI8N_puzzleILi4EEE7pointerERKS1_>:
    80007068:	fc010113          	addi	sp,sp,-64
    8000706c:	02113c23          	sd	ra,56(sp)
    80007070:	02813823          	sd	s0,48(sp)
    80007074:	02913423          	sd	s1,40(sp)
    80007078:	04010413          	addi	s0,sp,64
    8000707c:	fca43423          	sd	a0,-56(s0)
    80007080:	fcb43023          	sd	a1,-64(s0)
    80007084:	fc843783          	ld	a5,-56(s0)
    80007088:	0087b483          	ld	s1,8(a5)
    8000708c:	fc043503          	ld	a0,-64(s0)
    80007090:	094000ef          	jal	ra,80007124 <_ZNK8N_puzzleILi4EE4hashEv>
    80007094:	00050793          	mv	a5,a0
    80007098:	0007871b          	sext.w	a4,a5
    8000709c:	fc843783          	ld	a5,-56(s0)
    800070a0:	0007a783          	lw	a5,0(a5)
    800070a4:	fff7879b          	addiw	a5,a5,-1
    800070a8:	0007879b          	sext.w	a5,a5
    800070ac:	0007879b          	sext.w	a5,a5
    800070b0:	00f777b3          	and	a5,a4,a5
    800070b4:	0007879b          	sext.w	a5,a5
    800070b8:	02079793          	slli	a5,a5,0x20
    800070bc:	0207d793          	srli	a5,a5,0x20
    800070c0:	00379793          	slli	a5,a5,0x3
    800070c4:	00f487b3          	add	a5,s1,a5
    800070c8:	0007b783          	ld	a5,0(a5)
    800070cc:	fcf43c23          	sd	a5,-40(s0)
    800070d0:	fd843783          	ld	a5,-40(s0)
    800070d4:	02078a63          	beqz	a5,80007108 <_ZNK14Updatable_heapI8N_puzzleILi4EEE7pointerERKS1_+0xa0>
    800070d8:	fd843783          	ld	a5,-40(s0)
    800070dc:	fc043583          	ld	a1,-64(s0)
    800070e0:	00078513          	mv	a0,a5
    800070e4:	a18ff0ef          	jal	ra,800062fc <_ZNK8N_puzzleILi4EEeqERKS0_>
    800070e8:	00050793          	mv	a5,a0
    800070ec:	00078663          	beqz	a5,800070f8 <_ZNK14Updatable_heapI8N_puzzleILi4EEE7pointerERKS1_+0x90>
    800070f0:	fd843783          	ld	a5,-40(s0)
    800070f4:	0180006f          	j	8000710c <_ZNK14Updatable_heapI8N_puzzleILi4EEE7pointerERKS1_+0xa4>
    800070f8:	fd843783          	ld	a5,-40(s0)
    800070fc:	0187b783          	ld	a5,24(a5)
    80007100:	fcf43c23          	sd	a5,-40(s0)
    80007104:	fcdff06f          	j	800070d0 <_ZNK14Updatable_heapI8N_puzzleILi4EEE7pointerERKS1_+0x68>
    80007108:	00000793          	li	a5,0
    8000710c:	00078513          	mv	a0,a5
    80007110:	03813083          	ld	ra,56(sp)
    80007114:	03013403          	ld	s0,48(sp)
    80007118:	02813483          	ld	s1,40(sp)
    8000711c:	04010113          	addi	sp,sp,64
    80007120:	00008067          	ret

Disassembly of section .text._ZNK8N_puzzleILi4EE4hashEv:

0000000080007124 <_ZNK8N_puzzleILi4EE4hashEv>:
    80007124:	fe010113          	addi	sp,sp,-32
    80007128:	00113c23          	sd	ra,24(sp)
    8000712c:	00813823          	sd	s0,16(sp)
    80007130:	02010413          	addi	s0,sp,32
    80007134:	fea43423          	sd	a0,-24(s0)
    80007138:	fe843503          	ld	a0,-24(s0)
    8000713c:	f05ff0ef          	jal	ra,80007040 <_ZNK8N_puzzleILi4EE5validEv>
    80007140:	00050793          	mv	a5,a0
    80007144:	00078a63          	beqz	a5,80007158 <_ZNK8N_puzzleILi4EE4hashEv+0x34>
    80007148:	fe843783          	ld	a5,-24(s0)
    8000714c:	0147a783          	lw	a5,20(a5)
    80007150:	0007879b          	sext.w	a5,a5
    80007154:	0080006f          	j	8000715c <_ZNK8N_puzzleILi4EE4hashEv+0x38>
    80007158:	00000793          	li	a5,0
    8000715c:	0007879b          	sext.w	a5,a5
    80007160:	00078513          	mv	a0,a5
    80007164:	01813083          	ld	ra,24(sp)
    80007168:	01013403          	ld	s0,16(sp)
    8000716c:	02010113          	addi	sp,sp,32
    80007170:	00008067          	ret

Disassembly of section .text._ZN14Updatable_heapI8N_puzzleILi4EEE4Step4initERKS1_PS3_ii:

0000000080007174 <_ZN14Updatable_heapI8N_puzzleILi4EEE4Step4initERKS1_PS3_ii>:
    80007174:	fd010113          	addi	sp,sp,-48
    80007178:	02113423          	sd	ra,40(sp)
    8000717c:	02813023          	sd	s0,32(sp)
    80007180:	03010413          	addi	s0,sp,48
    80007184:	fea43423          	sd	a0,-24(s0)
    80007188:	feb43023          	sd	a1,-32(s0)
    8000718c:	fcc43c23          	sd	a2,-40(s0)
    80007190:	00068793          	mv	a5,a3
    80007194:	fcf42a23          	sw	a5,-44(s0)
    80007198:	00070793          	mv	a5,a4
    8000719c:	fcf42823          	sw	a5,-48(s0)
    800071a0:	fe843783          	ld	a5,-24(s0)
    800071a4:	fe043583          	ld	a1,-32(s0)
    800071a8:	00078513          	mv	a0,a5
    800071ac:	81dfe0ef          	jal	ra,800059c8 <_ZN8N_puzzleILi4EEaSERKS0_>
    800071b0:	fe843783          	ld	a5,-24(s0)
    800071b4:	fd843703          	ld	a4,-40(s0)
    800071b8:	00e7bc23          	sd	a4,24(a5)
    800071bc:	fe843783          	ld	a5,-24(s0)
    800071c0:	fd442703          	lw	a4,-44(s0)
    800071c4:	02e7a023          	sw	a4,32(a5)
    800071c8:	fe843783          	ld	a5,-24(s0)
    800071cc:	fd042703          	lw	a4,-48(s0)
    800071d0:	02e7a223          	sw	a4,36(a5)
    800071d4:	fe843783          	ld	a5,-24(s0)
    800071d8:	00078513          	mv	a0,a5
    800071dc:	170000ef          	jal	ra,8000734c <_ZNK8N_puzzleILi4EE11lower_boundEv>
    800071e0:	00050793          	mv	a5,a0
    800071e4:	00078713          	mv	a4,a5
    800071e8:	fd042783          	lw	a5,-48(s0)
    800071ec:	00e787bb          	addw	a5,a5,a4
    800071f0:	0007871b          	sext.w	a4,a5
    800071f4:	fe843783          	ld	a5,-24(s0)
    800071f8:	02e7a423          	sw	a4,40(a5)
    800071fc:	fe843783          	ld	a5,-24(s0)
    80007200:	02078623          	sb	zero,44(a5)
    80007204:	fe843783          	ld	a5,-24(s0)
    80007208:	0207b823          	sd	zero,48(a5)
    8000720c:	00000013          	nop
    80007210:	02813083          	ld	ra,40(sp)
    80007214:	02013403          	ld	s0,32(sp)
    80007218:	03010113          	addi	sp,sp,48
    8000721c:	00008067          	ret

Disassembly of section .text._ZN14Updatable_heapI8N_puzzleILi4EEE12percolate_upEi:

0000000080007220 <_ZN14Updatable_heapI8N_puzzleILi4EEE12percolate_upEi>:
    80007220:	fc010113          	addi	sp,sp,-64
    80007224:	02113c23          	sd	ra,56(sp)
    80007228:	02813823          	sd	s0,48(sp)
    8000722c:	02913423          	sd	s1,40(sp)
    80007230:	04010413          	addi	s0,sp,64
    80007234:	fca43423          	sd	a0,-56(s0)
    80007238:	00058793          	mv	a5,a1
    8000723c:	fcf42223          	sw	a5,-60(s0)
    80007240:	fc442783          	lw	a5,-60(s0)
    80007244:	0007871b          	sext.w	a4,a5
    80007248:	00100793          	li	a5,1
    8000724c:	08f70e63          	beq	a4,a5,800072e8 <_ZN14Updatable_heapI8N_puzzleILi4EEE12percolate_upEi+0xc8>
    80007250:	fc442783          	lw	a5,-60(s0)
    80007254:	01f7d71b          	srliw	a4,a5,0x1f
    80007258:	00f707bb          	addw	a5,a4,a5
    8000725c:	4017d79b          	sraiw	a5,a5,0x1
    80007260:	fcf42e23          	sw	a5,-36(s0)
    80007264:	fc843783          	ld	a5,-56(s0)
    80007268:	0107b703          	ld	a4,16(a5)
    8000726c:	fdc42783          	lw	a5,-36(s0)
    80007270:	00379793          	slli	a5,a5,0x3
    80007274:	00f707b3          	add	a5,a4,a5
    80007278:	0007b783          	ld	a5,0(a5)
    8000727c:	00078513          	mv	a0,a5
    80007280:	118000ef          	jal	ra,80007398 <_ZNK14Updatable_heapI8N_puzzleILi4EEE4Step6weightEv>
    80007284:	00050793          	mv	a5,a0
    80007288:	00078493          	mv	s1,a5
    8000728c:	fc843783          	ld	a5,-56(s0)
    80007290:	0107b703          	ld	a4,16(a5)
    80007294:	fc442783          	lw	a5,-60(s0)
    80007298:	00379793          	slli	a5,a5,0x3
    8000729c:	00f707b3          	add	a5,a4,a5
    800072a0:	0007b783          	ld	a5,0(a5)
    800072a4:	00078513          	mv	a0,a5
    800072a8:	0f0000ef          	jal	ra,80007398 <_ZNK14Updatable_heapI8N_puzzleILi4EEE4Step6weightEv>
    800072ac:	00050793          	mv	a5,a0
    800072b0:	00048713          	mv	a4,s1
    800072b4:	00e7a7b3          	slt	a5,a5,a4
    800072b8:	0ff7f793          	zext.b	a5,a5
    800072bc:	02078463          	beqz	a5,800072e4 <_ZN14Updatable_heapI8N_puzzleILi4EEE12percolate_upEi+0xc4>
    800072c0:	fc442703          	lw	a4,-60(s0)
    800072c4:	fdc42783          	lw	a5,-36(s0)
    800072c8:	00070613          	mv	a2,a4
    800072cc:	00078593          	mv	a1,a5
    800072d0:	fc843503          	ld	a0,-56(s0)
    800072d4:	460000ef          	jal	ra,80007734 <_ZN14Updatable_heapI8N_puzzleILi4EEE4swapEii>
    800072d8:	fdc42783          	lw	a5,-36(s0)
    800072dc:	fcf42223          	sw	a5,-60(s0)
    800072e0:	f61ff06f          	j	80007240 <_ZN14Updatable_heapI8N_puzzleILi4EEE12percolate_upEi+0x20>
    800072e4:	00000013          	nop
    800072e8:	03813083          	ld	ra,56(sp)
    800072ec:	03013403          	ld	s0,48(sp)
    800072f0:	02813483          	ld	s1,40(sp)
    800072f4:	04010113          	addi	sp,sp,64
    800072f8:	00008067          	ret

Disassembly of section .text._Z3maxIiET_S0_S0_:

00000000800072fc <_Z3maxIiET_S0_S0_>:
    800072fc:	fe010113          	addi	sp,sp,-32
    80007300:	00813c23          	sd	s0,24(sp)
    80007304:	02010413          	addi	s0,sp,32
    80007308:	00050793          	mv	a5,a0
    8000730c:	00058713          	mv	a4,a1
    80007310:	fef42623          	sw	a5,-20(s0)
    80007314:	00070793          	mv	a5,a4
    80007318:	fef42423          	sw	a5,-24(s0)
    8000731c:	fec42703          	lw	a4,-20(s0)
    80007320:	fe842783          	lw	a5,-24(s0)
    80007324:	0007071b          	sext.w	a4,a4
    80007328:	0007879b          	sext.w	a5,a5
    8000732c:	00e7d663          	bge	a5,a4,80007338 <_Z3maxIiET_S0_S0_+0x3c>
    80007330:	fec42783          	lw	a5,-20(s0)
    80007334:	0080006f          	j	8000733c <_Z3maxIiET_S0_S0_+0x40>
    80007338:	fe842783          	lw	a5,-24(s0)
    8000733c:	00078513          	mv	a0,a5
    80007340:	01813403          	ld	s0,24(sp)
    80007344:	02010113          	addi	sp,sp,32
    80007348:	00008067          	ret

Disassembly of section .text._ZNK8N_puzzleILi4EE11lower_boundEv:

000000008000734c <_ZNK8N_puzzleILi4EE11lower_boundEv>:
    8000734c:	fe010113          	addi	sp,sp,-32
    80007350:	00113c23          	sd	ra,24(sp)
    80007354:	00813823          	sd	s0,16(sp)
    80007358:	02010413          	addi	s0,sp,32
    8000735c:	fea43423          	sd	a0,-24(s0)
    80007360:	fe843503          	ld	a0,-24(s0)
    80007364:	cddff0ef          	jal	ra,80007040 <_ZNK8N_puzzleILi4EE5validEv>
    80007368:	00050793          	mv	a5,a0
    8000736c:	00078a63          	beqz	a5,80007380 <_ZNK8N_puzzleILi4EE11lower_boundEv+0x34>
    80007370:	fe843783          	ld	a5,-24(s0)
    80007374:	00378783          	lb	a5,3(a5)
    80007378:	0007879b          	sext.w	a5,a5
    8000737c:	0080006f          	j	80007384 <_ZNK8N_puzzleILi4EE11lower_boundEv+0x38>
    80007380:	04000793          	li	a5,64
    80007384:	00078513          	mv	a0,a5
    80007388:	01813083          	ld	ra,24(sp)
    8000738c:	01013403          	ld	s0,16(sp)
    80007390:	02010113          	addi	sp,sp,32
    80007394:	00008067          	ret

Disassembly of section .text._ZNK14Updatable_heapI8N_puzzleILi4EEE4Step6weightEv:

0000000080007398 <_ZNK14Updatable_heapI8N_puzzleILi4EEE4Step6weightEv>:
    80007398:	fe010113          	addi	sp,sp,-32
    8000739c:	00813c23          	sd	s0,24(sp)
    800073a0:	02010413          	addi	s0,sp,32
    800073a4:	fea43423          	sd	a0,-24(s0)
    800073a8:	fe843783          	ld	a5,-24(s0)
    800073ac:	0287a783          	lw	a5,40(a5)
    800073b0:	00078513          	mv	a0,a5
    800073b4:	01813403          	ld	s0,24(sp)
    800073b8:	02010113          	addi	sp,sp,32
    800073bc:	00008067          	ret

Disassembly of section .text._ZN14Updatable_heapI8N_puzzleILi4EEE14percolate_downEv:

00000000800073c0 <_ZN14Updatable_heapI8N_puzzleILi4EEE14percolate_downEv>:
    800073c0:	fc010113          	addi	sp,sp,-64
    800073c4:	02113c23          	sd	ra,56(sp)
    800073c8:	02813823          	sd	s0,48(sp)
    800073cc:	02913423          	sd	s1,40(sp)
    800073d0:	04010413          	addi	s0,sp,64
    800073d4:	fca43423          	sd	a0,-56(s0)
    800073d8:	00100793          	li	a5,1
    800073dc:	fcf42e23          	sw	a5,-36(s0)
    800073e0:	fdc42783          	lw	a5,-36(s0)
    800073e4:	0017979b          	slliw	a5,a5,0x1
    800073e8:	0007849b          	sext.w	s1,a5
    800073ec:	fc843503          	ld	a0,-56(s0)
    800073f0:	c09fe0ef          	jal	ra,80005ff8 <_ZNK14Updatable_heapI8N_puzzleILi4EEE4sizeEv>
    800073f4:	00050793          	mv	a5,a0
    800073f8:	00048713          	mv	a4,s1
    800073fc:	00f727b3          	slt	a5,a4,a5
    80007400:	0ff7f793          	zext.b	a5,a5
    80007404:	24078063          	beqz	a5,80007644 <_ZN14Updatable_heapI8N_puzzleILi4EEE14percolate_downEv+0x284>
    80007408:	fc843783          	ld	a5,-56(s0)
    8000740c:	0107b703          	ld	a4,16(a5)
    80007410:	fdc42783          	lw	a5,-36(s0)
    80007414:	00379793          	slli	a5,a5,0x3
    80007418:	00f707b3          	add	a5,a4,a5
    8000741c:	0007b783          	ld	a5,0(a5)
    80007420:	00078513          	mv	a0,a5
    80007424:	f75ff0ef          	jal	ra,80007398 <_ZNK14Updatable_heapI8N_puzzleILi4EEE4Step6weightEv>
    80007428:	00050793          	mv	a5,a0
    8000742c:	00078493          	mv	s1,a5
    80007430:	fc843783          	ld	a5,-56(s0)
    80007434:	0107b703          	ld	a4,16(a5)
    80007438:	fdc42783          	lw	a5,-36(s0)
    8000743c:	0017979b          	slliw	a5,a5,0x1
    80007440:	0007879b          	sext.w	a5,a5
    80007444:	00379793          	slli	a5,a5,0x3
    80007448:	00f707b3          	add	a5,a4,a5
    8000744c:	0007b783          	ld	a5,0(a5)
    80007450:	00078513          	mv	a0,a5
    80007454:	f45ff0ef          	jal	ra,80007398 <_ZNK14Updatable_heapI8N_puzzleILi4EEE4Step6weightEv>
    80007458:	00050793          	mv	a5,a0
    8000745c:	00048713          	mv	a4,s1
    80007460:	06f75663          	bge	a4,a5,800074cc <_ZN14Updatable_heapI8N_puzzleILi4EEE14percolate_downEv+0x10c>
    80007464:	fc843783          	ld	a5,-56(s0)
    80007468:	0107b703          	ld	a4,16(a5)
    8000746c:	fdc42783          	lw	a5,-36(s0)
    80007470:	00379793          	slli	a5,a5,0x3
    80007474:	00f707b3          	add	a5,a4,a5
    80007478:	0007b783          	ld	a5,0(a5)
    8000747c:	00078513          	mv	a0,a5
    80007480:	f19ff0ef          	jal	ra,80007398 <_ZNK14Updatable_heapI8N_puzzleILi4EEE4Step6weightEv>
    80007484:	00050793          	mv	a5,a0
    80007488:	00078493          	mv	s1,a5
    8000748c:	fc843783          	ld	a5,-56(s0)
    80007490:	0107b703          	ld	a4,16(a5)
    80007494:	fdc42783          	lw	a5,-36(s0)
    80007498:	0017979b          	slliw	a5,a5,0x1
    8000749c:	0007879b          	sext.w	a5,a5
    800074a0:	00178793          	addi	a5,a5,1
    800074a4:	00379793          	slli	a5,a5,0x3
    800074a8:	00f707b3          	add	a5,a4,a5
    800074ac:	0007b783          	ld	a5,0(a5)
    800074b0:	00078513          	mv	a0,a5
    800074b4:	ee5ff0ef          	jal	ra,80007398 <_ZNK14Updatable_heapI8N_puzzleILi4EEE4Step6weightEv>
    800074b8:	00050793          	mv	a5,a0
    800074bc:	00048713          	mv	a4,s1
    800074c0:	00f75663          	bge	a4,a5,800074cc <_ZN14Updatable_heapI8N_puzzleILi4EEE14percolate_downEv+0x10c>
    800074c4:	00100793          	li	a5,1
    800074c8:	0080006f          	j	800074d0 <_ZN14Updatable_heapI8N_puzzleILi4EEE14percolate_downEv+0x110>
    800074cc:	00000793          	li	a5,0
    800074d0:	22079263          	bnez	a5,800076f4 <_ZN14Updatable_heapI8N_puzzleILi4EEE14percolate_downEv+0x334>
    800074d4:	fc843783          	ld	a5,-56(s0)
    800074d8:	0107b703          	ld	a4,16(a5)
    800074dc:	fdc42783          	lw	a5,-36(s0)
    800074e0:	0017979b          	slliw	a5,a5,0x1
    800074e4:	0007879b          	sext.w	a5,a5
    800074e8:	00379793          	slli	a5,a5,0x3
    800074ec:	00f707b3          	add	a5,a4,a5
    800074f0:	0007b783          	ld	a5,0(a5)
    800074f4:	00078513          	mv	a0,a5
    800074f8:	ea1ff0ef          	jal	ra,80007398 <_ZNK14Updatable_heapI8N_puzzleILi4EEE4Step6weightEv>
    800074fc:	00050793          	mv	a5,a0
    80007500:	00078493          	mv	s1,a5
    80007504:	fc843783          	ld	a5,-56(s0)
    80007508:	0107b703          	ld	a4,16(a5)
    8000750c:	fdc42783          	lw	a5,-36(s0)
    80007510:	0017979b          	slliw	a5,a5,0x1
    80007514:	0007879b          	sext.w	a5,a5
    80007518:	00178793          	addi	a5,a5,1
    8000751c:	00379793          	slli	a5,a5,0x3
    80007520:	00f707b3          	add	a5,a4,a5
    80007524:	0007b783          	ld	a5,0(a5)
    80007528:	00078513          	mv	a0,a5
    8000752c:	e6dff0ef          	jal	ra,80007398 <_ZNK14Updatable_heapI8N_puzzleILi4EEE4Step6weightEv>
    80007530:	00050793          	mv	a5,a0
    80007534:	00048713          	mv	a4,s1
    80007538:	00f727b3          	slt	a5,a4,a5
    8000753c:	0ff7f793          	zext.b	a5,a5
    80007540:	02078a63          	beqz	a5,80007574 <_ZN14Updatable_heapI8N_puzzleILi4EEE14percolate_downEv+0x1b4>
    80007544:	fdc42783          	lw	a5,-36(s0)
    80007548:	0017979b          	slliw	a5,a5,0x1
    8000754c:	0007871b          	sext.w	a4,a5
    80007550:	fdc42783          	lw	a5,-36(s0)
    80007554:	00070613          	mv	a2,a4
    80007558:	00078593          	mv	a1,a5
    8000755c:	fc843503          	ld	a0,-56(s0)
    80007560:	1d4000ef          	jal	ra,80007734 <_ZN14Updatable_heapI8N_puzzleILi4EEE4swapEii>
    80007564:	fdc42783          	lw	a5,-36(s0)
    80007568:	0017979b          	slliw	a5,a5,0x1
    8000756c:	fcf42e23          	sw	a5,-36(s0)
    80007570:	e71ff06f          	j	800073e0 <_ZN14Updatable_heapI8N_puzzleILi4EEE14percolate_downEv+0x20>
    80007574:	fc843783          	ld	a5,-56(s0)
    80007578:	0107b703          	ld	a4,16(a5)
    8000757c:	fdc42783          	lw	a5,-36(s0)
    80007580:	0017979b          	slliw	a5,a5,0x1
    80007584:	0007879b          	sext.w	a5,a5
    80007588:	00379793          	slli	a5,a5,0x3
    8000758c:	00f707b3          	add	a5,a4,a5
    80007590:	0007b783          	ld	a5,0(a5)
    80007594:	00078513          	mv	a0,a5
    80007598:	e01ff0ef          	jal	ra,80007398 <_ZNK14Updatable_heapI8N_puzzleILi4EEE4Step6weightEv>
    8000759c:	00050793          	mv	a5,a0
    800075a0:	00078493          	mv	s1,a5
    800075a4:	fc843783          	ld	a5,-56(s0)
    800075a8:	0107b703          	ld	a4,16(a5)
    800075ac:	fdc42783          	lw	a5,-36(s0)
    800075b0:	0017979b          	slliw	a5,a5,0x1
    800075b4:	0007879b          	sext.w	a5,a5
    800075b8:	00178793          	addi	a5,a5,1
    800075bc:	00379793          	slli	a5,a5,0x3
    800075c0:	00f707b3          	add	a5,a4,a5
    800075c4:	0007b783          	ld	a5,0(a5)
    800075c8:	00078513          	mv	a0,a5
    800075cc:	dcdff0ef          	jal	ra,80007398 <_ZNK14Updatable_heapI8N_puzzleILi4EEE4Step6weightEv>
    800075d0:	00050793          	mv	a5,a0
    800075d4:	00048713          	mv	a4,s1
    800075d8:	00f727b3          	slt	a5,a4,a5
    800075dc:	0ff7f793          	zext.b	a5,a5
    800075e0:	02078263          	beqz	a5,80007604 <_ZN14Updatable_heapI8N_puzzleILi4EEE14percolate_downEv+0x244>
    800075e4:	07900613          	li	a2,121
    800075e8:	00004597          	auipc	a1,0x4
    800075ec:	fc858593          	addi	a1,a1,-56 # 8000b5b0 <uptime+0x624>
    800075f0:	00004517          	auipc	a0,0x4
    800075f4:	fa050513          	addi	a0,a0,-96 # 8000b590 <uptime+0x604>
    800075f8:	091030ef          	jal	ra,8000ae88 <printf_>
    800075fc:	00100513          	li	a0,1
    80007600:	4e5000ef          	jal	ra,800082e4 <_halt>
    80007604:	fdc42783          	lw	a5,-36(s0)
    80007608:	0017979b          	slliw	a5,a5,0x1
    8000760c:	0007879b          	sext.w	a5,a5
    80007610:	0017879b          	addiw	a5,a5,1
    80007614:	0007871b          	sext.w	a4,a5
    80007618:	fdc42783          	lw	a5,-36(s0)
    8000761c:	00070613          	mv	a2,a4
    80007620:	00078593          	mv	a1,a5
    80007624:	fc843503          	ld	a0,-56(s0)
    80007628:	10c000ef          	jal	ra,80007734 <_ZN14Updatable_heapI8N_puzzleILi4EEE4swapEii>
    8000762c:	fdc42783          	lw	a5,-36(s0)
    80007630:	0017979b          	slliw	a5,a5,0x1
    80007634:	0007879b          	sext.w	a5,a5
    80007638:	0017879b          	addiw	a5,a5,1
    8000763c:	fcf42e23          	sw	a5,-36(s0)
    80007640:	da1ff06f          	j	800073e0 <_ZN14Updatable_heapI8N_puzzleILi4EEE14percolate_downEv+0x20>
    80007644:	fdc42783          	lw	a5,-36(s0)
    80007648:	0017979b          	slliw	a5,a5,0x1
    8000764c:	0007849b          	sext.w	s1,a5
    80007650:	fc843503          	ld	a0,-56(s0)
    80007654:	9a5fe0ef          	jal	ra,80005ff8 <_ZNK14Updatable_heapI8N_puzzleILi4EEE4sizeEv>
    80007658:	00050793          	mv	a5,a0
    8000765c:	00048713          	mv	a4,s1
    80007660:	06f71463          	bne	a4,a5,800076c8 <_ZN14Updatable_heapI8N_puzzleILi4EEE14percolate_downEv+0x308>
    80007664:	fc843783          	ld	a5,-56(s0)
    80007668:	0107b703          	ld	a4,16(a5)
    8000766c:	fdc42783          	lw	a5,-36(s0)
    80007670:	0017979b          	slliw	a5,a5,0x1
    80007674:	0007879b          	sext.w	a5,a5
    80007678:	00379793          	slli	a5,a5,0x3
    8000767c:	00f707b3          	add	a5,a4,a5
    80007680:	0007b783          	ld	a5,0(a5)
    80007684:	00078513          	mv	a0,a5
    80007688:	d11ff0ef          	jal	ra,80007398 <_ZNK14Updatable_heapI8N_puzzleILi4EEE4Step6weightEv>
    8000768c:	00050793          	mv	a5,a0
    80007690:	00078493          	mv	s1,a5
    80007694:	fc843783          	ld	a5,-56(s0)
    80007698:	0107b703          	ld	a4,16(a5)
    8000769c:	fdc42783          	lw	a5,-36(s0)
    800076a0:	00379793          	slli	a5,a5,0x3
    800076a4:	00f707b3          	add	a5,a4,a5
    800076a8:	0007b783          	ld	a5,0(a5)
    800076ac:	00078513          	mv	a0,a5
    800076b0:	ce9ff0ef          	jal	ra,80007398 <_ZNK14Updatable_heapI8N_puzzleILi4EEE4Step6weightEv>
    800076b4:	00050793          	mv	a5,a0
    800076b8:	00048713          	mv	a4,s1
    800076bc:	00f75663          	bge	a4,a5,800076c8 <_ZN14Updatable_heapI8N_puzzleILi4EEE14percolate_downEv+0x308>
    800076c0:	00100793          	li	a5,1
    800076c4:	0080006f          	j	800076cc <_ZN14Updatable_heapI8N_puzzleILi4EEE14percolate_downEv+0x30c>
    800076c8:	00000793          	li	a5,0
    800076cc:	02078663          	beqz	a5,800076f8 <_ZN14Updatable_heapI8N_puzzleILi4EEE14percolate_downEv+0x338>
    800076d0:	fdc42783          	lw	a5,-36(s0)
    800076d4:	0017979b          	slliw	a5,a5,0x1
    800076d8:	0007871b          	sext.w	a4,a5
    800076dc:	fdc42783          	lw	a5,-36(s0)
    800076e0:	00070613          	mv	a2,a4
    800076e4:	00078593          	mv	a1,a5
    800076e8:	fc843503          	ld	a0,-56(s0)
    800076ec:	048000ef          	jal	ra,80007734 <_ZN14Updatable_heapI8N_puzzleILi4EEE4swapEii>
    800076f0:	0080006f          	j	800076f8 <_ZN14Updatable_heapI8N_puzzleILi4EEE14percolate_downEv+0x338>
    800076f4:	00000013          	nop
    800076f8:	03813083          	ld	ra,56(sp)
    800076fc:	03013403          	ld	s0,48(sp)
    80007700:	02813483          	ld	s1,40(sp)
    80007704:	04010113          	addi	sp,sp,64
    80007708:	00008067          	ret

Disassembly of section .text._ZNK14Updatable_heapI8N_puzzleILi4EEE4Step6lengthEv:

000000008000770c <_ZNK14Updatable_heapI8N_puzzleILi4EEE4Step6lengthEv>:
    8000770c:	fe010113          	addi	sp,sp,-32
    80007710:	00813c23          	sd	s0,24(sp)
    80007714:	02010413          	addi	s0,sp,32
    80007718:	fea43423          	sd	a0,-24(s0)
    8000771c:	fe843783          	ld	a5,-24(s0)
    80007720:	0247a783          	lw	a5,36(a5)
    80007724:	00078513          	mv	a0,a5
    80007728:	01813403          	ld	s0,24(sp)
    8000772c:	02010113          	addi	sp,sp,32
    80007730:	00008067          	ret

Disassembly of section .text._ZN14Updatable_heapI8N_puzzleILi4EEE4swapEii:

0000000080007734 <_ZN14Updatable_heapI8N_puzzleILi4EEE4swapEii>:
    80007734:	fd010113          	addi	sp,sp,-48
    80007738:	02813423          	sd	s0,40(sp)
    8000773c:	03010413          	addi	s0,sp,48
    80007740:	fca43c23          	sd	a0,-40(s0)
    80007744:	00058793          	mv	a5,a1
    80007748:	00060713          	mv	a4,a2
    8000774c:	fcf42a23          	sw	a5,-44(s0)
    80007750:	00070793          	mv	a5,a4
    80007754:	fcf42823          	sw	a5,-48(s0)
    80007758:	fd843783          	ld	a5,-40(s0)
    8000775c:	0107b703          	ld	a4,16(a5)
    80007760:	fd042783          	lw	a5,-48(s0)
    80007764:	00379793          	slli	a5,a5,0x3
    80007768:	00f707b3          	add	a5,a4,a5
    8000776c:	0007b783          	ld	a5,0(a5)
    80007770:	fef43423          	sd	a5,-24(s0)
    80007774:	fd843783          	ld	a5,-40(s0)
    80007778:	0107b703          	ld	a4,16(a5)
    8000777c:	fd442783          	lw	a5,-44(s0)
    80007780:	00379793          	slli	a5,a5,0x3
    80007784:	00f70733          	add	a4,a4,a5
    80007788:	fd843783          	ld	a5,-40(s0)
    8000778c:	0107b683          	ld	a3,16(a5)
    80007790:	fd042783          	lw	a5,-48(s0)
    80007794:	00379793          	slli	a5,a5,0x3
    80007798:	00f687b3          	add	a5,a3,a5
    8000779c:	00073703          	ld	a4,0(a4)
    800077a0:	00e7b023          	sd	a4,0(a5)
    800077a4:	fd843783          	ld	a5,-40(s0)
    800077a8:	0107b703          	ld	a4,16(a5)
    800077ac:	fd442783          	lw	a5,-44(s0)
    800077b0:	00379793          	slli	a5,a5,0x3
    800077b4:	00f707b3          	add	a5,a4,a5
    800077b8:	fe843703          	ld	a4,-24(s0)
    800077bc:	00e7b023          	sd	a4,0(a5)
    800077c0:	fd843783          	ld	a5,-40(s0)
    800077c4:	0107b703          	ld	a4,16(a5)
    800077c8:	fd442783          	lw	a5,-44(s0)
    800077cc:	00379793          	slli	a5,a5,0x3
    800077d0:	00f707b3          	add	a5,a4,a5
    800077d4:	0007b783          	ld	a5,0(a5)
    800077d8:	fd442703          	lw	a4,-44(s0)
    800077dc:	02e7a023          	sw	a4,32(a5)
    800077e0:	fd843783          	ld	a5,-40(s0)
    800077e4:	0107b703          	ld	a4,16(a5)
    800077e8:	fd042783          	lw	a5,-48(s0)
    800077ec:	00379793          	slli	a5,a5,0x3
    800077f0:	00f707b3          	add	a5,a4,a5
    800077f4:	0007b783          	ld	a5,0(a5)
    800077f8:	fd042703          	lw	a4,-48(s0)
    800077fc:	02e7a023          	sw	a4,32(a5)
    80007800:	00000013          	nop
    80007804:	02813403          	ld	s0,40(sp)
    80007808:	03010113          	addi	sp,sp,48
    8000780c:	00008067          	ret

Disassembly of section .text._Z3leqiiii:

0000000080007810 <_Z3leqiiii>:
    80007810:	fe010113          	addi	sp,sp,-32
    80007814:	00813c23          	sd	s0,24(sp)
    80007818:	02010413          	addi	s0,sp,32
    8000781c:	00050793          	mv	a5,a0
    80007820:	00068713          	mv	a4,a3
    80007824:	fef42623          	sw	a5,-20(s0)
    80007828:	00058793          	mv	a5,a1
    8000782c:	fef42423          	sw	a5,-24(s0)
    80007830:	00060793          	mv	a5,a2
    80007834:	fef42223          	sw	a5,-28(s0)
    80007838:	00070793          	mv	a5,a4
    8000783c:	fef42023          	sw	a5,-32(s0)
    80007840:	fec42703          	lw	a4,-20(s0)
    80007844:	fe442783          	lw	a5,-28(s0)
    80007848:	0007071b          	sext.w	a4,a4
    8000784c:	0007879b          	sext.w	a5,a5
    80007850:	02f74663          	blt	a4,a5,8000787c <_Z3leqiiii+0x6c>
    80007854:	fec42703          	lw	a4,-20(s0)
    80007858:	fe442783          	lw	a5,-28(s0)
    8000785c:	0007071b          	sext.w	a4,a4
    80007860:	0007879b          	sext.w	a5,a5
    80007864:	02f71063          	bne	a4,a5,80007884 <_Z3leqiiii+0x74>
    80007868:	fe842703          	lw	a4,-24(s0)
    8000786c:	fe042783          	lw	a5,-32(s0)
    80007870:	0007071b          	sext.w	a4,a4
    80007874:	0007879b          	sext.w	a5,a5
    80007878:	00e7c663          	blt	a5,a4,80007884 <_Z3leqiiii+0x74>
    8000787c:	00100793          	li	a5,1
    80007880:	0080006f          	j	80007888 <_Z3leqiiii+0x78>
    80007884:	00000793          	li	a5,0
    80007888:	00078513          	mv	a0,a5
    8000788c:	01813403          	ld	s0,24(sp)
    80007890:	02010113          	addi	sp,sp,32
    80007894:	00008067          	ret

Disassembly of section .text._Z3leqiiiiii:

0000000080007898 <_Z3leqiiiiii>:
    80007898:	fd010113          	addi	sp,sp,-48
    8000789c:	02113423          	sd	ra,40(sp)
    800078a0:	02813023          	sd	s0,32(sp)
    800078a4:	03010413          	addi	s0,sp,48
    800078a8:	00050813          	mv	a6,a0
    800078ac:	00058513          	mv	a0,a1
    800078b0:	00060593          	mv	a1,a2
    800078b4:	00068613          	mv	a2,a3
    800078b8:	00070693          	mv	a3,a4
    800078bc:	00078713          	mv	a4,a5
    800078c0:	00080793          	mv	a5,a6
    800078c4:	fef42623          	sw	a5,-20(s0)
    800078c8:	00050793          	mv	a5,a0
    800078cc:	fef42423          	sw	a5,-24(s0)
    800078d0:	00058793          	mv	a5,a1
    800078d4:	fef42223          	sw	a5,-28(s0)
    800078d8:	00060793          	mv	a5,a2
    800078dc:	fef42023          	sw	a5,-32(s0)
    800078e0:	00068793          	mv	a5,a3
    800078e4:	fcf42e23          	sw	a5,-36(s0)
    800078e8:	00070793          	mv	a5,a4
    800078ec:	fcf42c23          	sw	a5,-40(s0)
    800078f0:	fec42703          	lw	a4,-20(s0)
    800078f4:	fe042783          	lw	a5,-32(s0)
    800078f8:	0007071b          	sext.w	a4,a4
    800078fc:	0007879b          	sext.w	a5,a5
    80007900:	02f74e63          	blt	a4,a5,8000793c <_Z3leqiiiiii+0xa4>
    80007904:	fec42703          	lw	a4,-20(s0)
    80007908:	fe042783          	lw	a5,-32(s0)
    8000790c:	0007071b          	sext.w	a4,a4
    80007910:	0007879b          	sext.w	a5,a5
    80007914:	02f71863          	bne	a4,a5,80007944 <_Z3leqiiiiii+0xac>
    80007918:	fd842683          	lw	a3,-40(s0)
    8000791c:	fdc42603          	lw	a2,-36(s0)
    80007920:	fe442703          	lw	a4,-28(s0)
    80007924:	fe842783          	lw	a5,-24(s0)
    80007928:	00070593          	mv	a1,a4
    8000792c:	00078513          	mv	a0,a5
    80007930:	ee1ff0ef          	jal	ra,80007810 <_Z3leqiiii>
    80007934:	00050793          	mv	a5,a0
    80007938:	00078663          	beqz	a5,80007944 <_Z3leqiiiiii+0xac>
    8000793c:	00100793          	li	a5,1
    80007940:	0080006f          	j	80007948 <_Z3leqiiiiii+0xb0>
    80007944:	00000793          	li	a5,0
    80007948:	00078513          	mv	a0,a5
    8000794c:	02813083          	ld	ra,40(sp)
    80007950:	02013403          	ld	s0,32(sp)
    80007954:	03010113          	addi	sp,sp,48
    80007958:	00008067          	ret

Disassembly of section .text._ZN4EdgeC2Eiiii:

000000008000795c <_ZN4EdgeC1Eiiii>:
    8000795c:	fd010113          	addi	sp,sp,-48
    80007960:	02813423          	sd	s0,40(sp)
    80007964:	03010413          	addi	s0,sp,48
    80007968:	fea43423          	sd	a0,-24(s0)
    8000796c:	00058793          	mv	a5,a1
    80007970:	fef42223          	sw	a5,-28(s0)
    80007974:	00060793          	mv	a5,a2
    80007978:	fef42023          	sw	a5,-32(s0)
    8000797c:	00068793          	mv	a5,a3
    80007980:	fcf42e23          	sw	a5,-36(s0)
    80007984:	00070793          	mv	a5,a4
    80007988:	fcf42c23          	sw	a5,-40(s0)
    8000798c:	fe843783          	ld	a5,-24(s0)
    80007990:	fe442703          	lw	a4,-28(s0)
    80007994:	00e7a023          	sw	a4,0(a5)
    80007998:	fe843783          	ld	a5,-24(s0)
    8000799c:	fe042703          	lw	a4,-32(s0)
    800079a0:	00e7a223          	sw	a4,4(a5)
    800079a4:	fe843783          	ld	a5,-24(s0)
    800079a8:	fdc42703          	lw	a4,-36(s0)
    800079ac:	00e7a423          	sw	a4,8(a5)
    800079b0:	fe843783          	ld	a5,-24(s0)
    800079b4:	fd842703          	lw	a4,-40(s0)
    800079b8:	00e7a623          	sw	a4,12(a5)
    800079bc:	00000013          	nop
    800079c0:	02813403          	ld	s0,40(sp)
    800079c4:	03010113          	addi	sp,sp,48
    800079c8:	00008067          	ret

Disassembly of section .text._ZN5Dinic4initEi:

00000000800079cc <_ZN5Dinic4initEi>:
    800079cc:	fd010113          	addi	sp,sp,-48
    800079d0:	02113423          	sd	ra,40(sp)
    800079d4:	02813023          	sd	s0,32(sp)
    800079d8:	03010413          	addi	s0,sp,48
    800079dc:	fca43c23          	sd	a0,-40(s0)
    800079e0:	00058793          	mv	a5,a1
    800079e4:	fcf42a23          	sw	a5,-44(s0)
    800079e8:	fd442783          	lw	a5,-44(s0)
    800079ec:	ffe7879b          	addiw	a5,a5,-2
    800079f0:	0007879b          	sext.w	a5,a5
    800079f4:	01f7d71b          	srliw	a4,a5,0x1f
    800079f8:	00f707bb          	addw	a5,a4,a5
    800079fc:	4017d79b          	sraiw	a5,a5,0x1
    80007a00:	fef42423          	sw	a5,-24(s0)
    80007a04:	fe842783          	lw	a5,-24(s0)
    80007a08:	02f787bb          	mulw	a5,a5,a5
    80007a0c:	0007871b          	sext.w	a4,a5
    80007a10:	fe842783          	lw	a5,-24(s0)
    80007a14:	0017979b          	slliw	a5,a5,0x1
    80007a18:	0007879b          	sext.w	a5,a5
    80007a1c:	00f707bb          	addw	a5,a4,a5
    80007a20:	0007879b          	sext.w	a5,a5
    80007a24:	0017979b          	slliw	a5,a5,0x1
    80007a28:	fef42223          	sw	a5,-28(s0)
    80007a2c:	fe442783          	lw	a5,-28(s0)
    80007a30:	00479793          	slli	a5,a5,0x4
    80007a34:	00078513          	mv	a0,a5
    80007a38:	be1f80ef          	jal	ra,80000618 <bench_alloc>
    80007a3c:	00050713          	mv	a4,a0
    80007a40:	fd843783          	ld	a5,-40(s0)
    80007a44:	00e7b823          	sd	a4,16(a5)
    80007a48:	fd442783          	lw	a5,-44(s0)
    80007a4c:	00279793          	slli	a5,a5,0x2
    80007a50:	00078513          	mv	a0,a5
    80007a54:	bc5f80ef          	jal	ra,80000618 <bench_alloc>
    80007a58:	00050713          	mv	a4,a0
    80007a5c:	fd843783          	ld	a5,-40(s0)
    80007a60:	00e7bc23          	sd	a4,24(a5)
    80007a64:	fe442783          	lw	a5,-28(s0)
    80007a68:	00279793          	slli	a5,a5,0x2
    80007a6c:	00078513          	mv	a0,a5
    80007a70:	ba9f80ef          	jal	ra,80000618 <bench_alloc>
    80007a74:	00050713          	mv	a4,a0
    80007a78:	fd843783          	ld	a5,-40(s0)
    80007a7c:	02e7b023          	sd	a4,32(a5)
    80007a80:	fd442783          	lw	a5,-44(s0)
    80007a84:	00078513          	mv	a0,a5
    80007a88:	b91f80ef          	jal	ra,80000618 <bench_alloc>
    80007a8c:	00050713          	mv	a4,a0
    80007a90:	fd843783          	ld	a5,-40(s0)
    80007a94:	04e7b023          	sd	a4,64(a5)
    80007a98:	fd442783          	lw	a5,-44(s0)
    80007a9c:	00279793          	slli	a5,a5,0x2
    80007aa0:	00078513          	mv	a0,a5
    80007aa4:	b75f80ef          	jal	ra,80000618 <bench_alloc>
    80007aa8:	00050713          	mv	a4,a0
    80007aac:	fd843783          	ld	a5,-40(s0)
    80007ab0:	02e7b423          	sd	a4,40(a5)
    80007ab4:	fd442783          	lw	a5,-44(s0)
    80007ab8:	00279793          	slli	a5,a5,0x2
    80007abc:	00078513          	mv	a0,a5
    80007ac0:	b59f80ef          	jal	ra,80000618 <bench_alloc>
    80007ac4:	00050713          	mv	a4,a0
    80007ac8:	fd843783          	ld	a5,-40(s0)
    80007acc:	02e7b823          	sd	a4,48(a5)
    80007ad0:	fd442783          	lw	a5,-44(s0)
    80007ad4:	00279793          	slli	a5,a5,0x2
    80007ad8:	00078513          	mv	a0,a5
    80007adc:	b3df80ef          	jal	ra,80000618 <bench_alloc>
    80007ae0:	00050713          	mv	a4,a0
    80007ae4:	fd843783          	ld	a5,-40(s0)
    80007ae8:	02e7bc23          	sd	a4,56(a5)
    80007aec:	fd843783          	ld	a5,-40(s0)
    80007af0:	fd442703          	lw	a4,-44(s0)
    80007af4:	00e7a023          	sw	a4,0(a5)
    80007af8:	fe042623          	sw	zero,-20(s0)
    80007afc:	fec42703          	lw	a4,-20(s0)
    80007b00:	fd442783          	lw	a5,-44(s0)
    80007b04:	0007071b          	sext.w	a4,a4
    80007b08:	0007879b          	sext.w	a5,a5
    80007b0c:	02f75863          	bge	a4,a5,80007b3c <_ZN5Dinic4initEi+0x170>
    80007b10:	fd843783          	ld	a5,-40(s0)
    80007b14:	0187b703          	ld	a4,24(a5)
    80007b18:	fec42783          	lw	a5,-20(s0)
    80007b1c:	00279793          	slli	a5,a5,0x2
    80007b20:	00f707b3          	add	a5,a4,a5
    80007b24:	fff00713          	li	a4,-1
    80007b28:	00e7a023          	sw	a4,0(a5)
    80007b2c:	fec42783          	lw	a5,-20(s0)
    80007b30:	0017879b          	addiw	a5,a5,1
    80007b34:	fef42623          	sw	a5,-20(s0)
    80007b38:	fc5ff06f          	j	80007afc <_ZN5Dinic4initEi+0x130>
    80007b3c:	fd843783          	ld	a5,-40(s0)
    80007b40:	0007a223          	sw	zero,4(a5)
    80007b44:	00000013          	nop
    80007b48:	02813083          	ld	ra,40(sp)
    80007b4c:	02013403          	ld	s0,32(sp)
    80007b50:	03010113          	addi	sp,sp,48
    80007b54:	00008067          	ret

Disassembly of section .text._ZN5Dinic7AddEdgeEiii:

0000000080007b58 <_ZN5Dinic7AddEdgeEiii>:
    80007b58:	fb010113          	addi	sp,sp,-80
    80007b5c:	04113423          	sd	ra,72(sp)
    80007b60:	04813023          	sd	s0,64(sp)
    80007b64:	05010413          	addi	s0,sp,80
    80007b68:	fca43423          	sd	a0,-56(s0)
    80007b6c:	00058793          	mv	a5,a1
    80007b70:	00068713          	mv	a4,a3
    80007b74:	fcf42223          	sw	a5,-60(s0)
    80007b78:	00060793          	mv	a5,a2
    80007b7c:	fcf42023          	sw	a5,-64(s0)
    80007b80:	00070793          	mv	a5,a4
    80007b84:	faf42e23          	sw	a5,-68(s0)
    80007b88:	fbc42783          	lw	a5,-68(s0)
    80007b8c:	0007879b          	sext.w	a5,a5
    80007b90:	16078c63          	beqz	a5,80007d08 <_ZN5Dinic7AddEdgeEiii+0x1b0>
    80007b94:	fbc42683          	lw	a3,-68(s0)
    80007b98:	fc042603          	lw	a2,-64(s0)
    80007b9c:	fc442583          	lw	a1,-60(s0)
    80007ba0:	fd040793          	addi	a5,s0,-48
    80007ba4:	00000713          	li	a4,0
    80007ba8:	00078513          	mv	a0,a5
    80007bac:	db1ff0ef          	jal	ra,8000795c <_ZN4EdgeC1Eiiii>
    80007bb0:	fc843783          	ld	a5,-56(s0)
    80007bb4:	0107b703          	ld	a4,16(a5)
    80007bb8:	fc843783          	ld	a5,-56(s0)
    80007bbc:	0047a783          	lw	a5,4(a5)
    80007bc0:	00479793          	slli	a5,a5,0x4
    80007bc4:	00f707b3          	add	a5,a4,a5
    80007bc8:	fd042583          	lw	a1,-48(s0)
    80007bcc:	fd442603          	lw	a2,-44(s0)
    80007bd0:	fd842683          	lw	a3,-40(s0)
    80007bd4:	fdc42703          	lw	a4,-36(s0)
    80007bd8:	00b7a023          	sw	a1,0(a5)
    80007bdc:	00c7a223          	sw	a2,4(a5)
    80007be0:	00d7a423          	sw	a3,8(a5)
    80007be4:	00e7a623          	sw	a4,12(a5)
    80007be8:	fc843783          	ld	a5,-56(s0)
    80007bec:	0187b703          	ld	a4,24(a5)
    80007bf0:	fc442783          	lw	a5,-60(s0)
    80007bf4:	00279793          	slli	a5,a5,0x2
    80007bf8:	00f70733          	add	a4,a4,a5
    80007bfc:	fc843783          	ld	a5,-56(s0)
    80007c00:	0207b683          	ld	a3,32(a5)
    80007c04:	fc843783          	ld	a5,-56(s0)
    80007c08:	0047a783          	lw	a5,4(a5)
    80007c0c:	00279793          	slli	a5,a5,0x2
    80007c10:	00f687b3          	add	a5,a3,a5
    80007c14:	00072703          	lw	a4,0(a4)
    80007c18:	00e7a023          	sw	a4,0(a5)
    80007c1c:	fc843783          	ld	a5,-56(s0)
    80007c20:	0047a783          	lw	a5,4(a5)
    80007c24:	0017871b          	addiw	a4,a5,1
    80007c28:	0007069b          	sext.w	a3,a4
    80007c2c:	fc843703          	ld	a4,-56(s0)
    80007c30:	00d72223          	sw	a3,4(a4)
    80007c34:	fc843703          	ld	a4,-56(s0)
    80007c38:	01873683          	ld	a3,24(a4)
    80007c3c:	fc442703          	lw	a4,-60(s0)
    80007c40:	00271713          	slli	a4,a4,0x2
    80007c44:	00e68733          	add	a4,a3,a4
    80007c48:	00f72023          	sw	a5,0(a4)
    80007c4c:	fc442603          	lw	a2,-60(s0)
    80007c50:	fc042583          	lw	a1,-64(s0)
    80007c54:	fe040793          	addi	a5,s0,-32
    80007c58:	00000713          	li	a4,0
    80007c5c:	00000693          	li	a3,0
    80007c60:	00078513          	mv	a0,a5
    80007c64:	cf9ff0ef          	jal	ra,8000795c <_ZN4EdgeC1Eiiii>
    80007c68:	fc843783          	ld	a5,-56(s0)
    80007c6c:	0107b703          	ld	a4,16(a5)
    80007c70:	fc843783          	ld	a5,-56(s0)
    80007c74:	0047a783          	lw	a5,4(a5)
    80007c78:	00479793          	slli	a5,a5,0x4
    80007c7c:	00f707b3          	add	a5,a4,a5
    80007c80:	fe042583          	lw	a1,-32(s0)
    80007c84:	fe442603          	lw	a2,-28(s0)
    80007c88:	fe842683          	lw	a3,-24(s0)
    80007c8c:	fec42703          	lw	a4,-20(s0)
    80007c90:	00b7a023          	sw	a1,0(a5)
    80007c94:	00c7a223          	sw	a2,4(a5)
    80007c98:	00d7a423          	sw	a3,8(a5)
    80007c9c:	00e7a623          	sw	a4,12(a5)
    80007ca0:	fc843783          	ld	a5,-56(s0)
    80007ca4:	0187b703          	ld	a4,24(a5)
    80007ca8:	fc042783          	lw	a5,-64(s0)
    80007cac:	00279793          	slli	a5,a5,0x2
    80007cb0:	00f70733          	add	a4,a4,a5
    80007cb4:	fc843783          	ld	a5,-56(s0)
    80007cb8:	0207b683          	ld	a3,32(a5)
    80007cbc:	fc843783          	ld	a5,-56(s0)
    80007cc0:	0047a783          	lw	a5,4(a5)
    80007cc4:	00279793          	slli	a5,a5,0x2
    80007cc8:	00f687b3          	add	a5,a3,a5
    80007ccc:	00072703          	lw	a4,0(a4)
    80007cd0:	00e7a023          	sw	a4,0(a5)
    80007cd4:	fc843783          	ld	a5,-56(s0)
    80007cd8:	0047a783          	lw	a5,4(a5)
    80007cdc:	0017871b          	addiw	a4,a5,1
    80007ce0:	0007069b          	sext.w	a3,a4
    80007ce4:	fc843703          	ld	a4,-56(s0)
    80007ce8:	00d72223          	sw	a3,4(a4)
    80007cec:	fc843703          	ld	a4,-56(s0)
    80007cf0:	01873683          	ld	a3,24(a4)
    80007cf4:	fc042703          	lw	a4,-64(s0)
    80007cf8:	00271713          	slli	a4,a4,0x2
    80007cfc:	00e68733          	add	a4,a3,a4
    80007d00:	00f72023          	sw	a5,0(a4)
    80007d04:	0080006f          	j	80007d0c <_ZN5Dinic7AddEdgeEiii+0x1b4>
    80007d08:	00000013          	nop
    80007d0c:	04813083          	ld	ra,72(sp)
    80007d10:	04013403          	ld	s0,64(sp)
    80007d14:	05010113          	addi	sp,sp,80
    80007d18:	00008067          	ret

Disassembly of section .text._ZN5Dinic3BFSEv:

0000000080007d1c <_ZN5Dinic3BFSEv>:
    80007d1c:	fc010113          	addi	sp,sp,-64
    80007d20:	02813c23          	sd	s0,56(sp)
    80007d24:	04010413          	addi	s0,sp,64
    80007d28:	fca43423          	sd	a0,-56(s0)
    80007d2c:	fe042623          	sw	zero,-20(s0)
    80007d30:	fc843783          	ld	a5,-56(s0)
    80007d34:	0007a703          	lw	a4,0(a5)
    80007d38:	fec42783          	lw	a5,-20(s0)
    80007d3c:	0007879b          	sext.w	a5,a5
    80007d40:	02e7d463          	bge	a5,a4,80007d68 <_ZN5Dinic3BFSEv+0x4c>
    80007d44:	fc843783          	ld	a5,-56(s0)
    80007d48:	0407b703          	ld	a4,64(a5)
    80007d4c:	fec42783          	lw	a5,-20(s0)
    80007d50:	00f707b3          	add	a5,a4,a5
    80007d54:	00078023          	sb	zero,0(a5)
    80007d58:	fec42783          	lw	a5,-20(s0)
    80007d5c:	0017879b          	addiw	a5,a5,1
    80007d60:	fef42623          	sw	a5,-20(s0)
    80007d64:	fcdff06f          	j	80007d30 <_ZN5Dinic3BFSEv+0x14>
    80007d68:	fe042423          	sw	zero,-24(s0)
    80007d6c:	fe042223          	sw	zero,-28(s0)
    80007d70:	fc843783          	ld	a5,-56(s0)
    80007d74:	0387b703          	ld	a4,56(a5)
    80007d78:	fe442783          	lw	a5,-28(s0)
    80007d7c:	0017869b          	addiw	a3,a5,1
    80007d80:	fed42223          	sw	a3,-28(s0)
    80007d84:	00279793          	slli	a5,a5,0x2
    80007d88:	00f707b3          	add	a5,a4,a5
    80007d8c:	fc843703          	ld	a4,-56(s0)
    80007d90:	00872703          	lw	a4,8(a4)
    80007d94:	00e7a023          	sw	a4,0(a5)
    80007d98:	fc843783          	ld	a5,-56(s0)
    80007d9c:	0287b703          	ld	a4,40(a5)
    80007da0:	fc843783          	ld	a5,-56(s0)
    80007da4:	0087a783          	lw	a5,8(a5)
    80007da8:	00279793          	slli	a5,a5,0x2
    80007dac:	00f707b3          	add	a5,a4,a5
    80007db0:	0007a023          	sw	zero,0(a5)
    80007db4:	fc843783          	ld	a5,-56(s0)
    80007db8:	0407b783          	ld	a5,64(a5)
    80007dbc:	fc843703          	ld	a4,-56(s0)
    80007dc0:	00872703          	lw	a4,8(a4)
    80007dc4:	00e787b3          	add	a5,a5,a4
    80007dc8:	00100713          	li	a4,1
    80007dcc:	00e78023          	sb	a4,0(a5)
    80007dd0:	fe842703          	lw	a4,-24(s0)
    80007dd4:	fe442783          	lw	a5,-28(s0)
    80007dd8:	0007071b          	sext.w	a4,a4
    80007ddc:	0007879b          	sext.w	a5,a5
    80007de0:	14f70263          	beq	a4,a5,80007f24 <_ZN5Dinic3BFSEv+0x208>
    80007de4:	fc843783          	ld	a5,-56(s0)
    80007de8:	0387b703          	ld	a4,56(a5)
    80007dec:	fe842783          	lw	a5,-24(s0)
    80007df0:	0017869b          	addiw	a3,a5,1
    80007df4:	fed42423          	sw	a3,-24(s0)
    80007df8:	00279793          	slli	a5,a5,0x2
    80007dfc:	00f707b3          	add	a5,a4,a5
    80007e00:	0007a783          	lw	a5,0(a5)
    80007e04:	fcf42e23          	sw	a5,-36(s0)
    80007e08:	fc843783          	ld	a5,-56(s0)
    80007e0c:	0187b703          	ld	a4,24(a5)
    80007e10:	fdc42783          	lw	a5,-36(s0)
    80007e14:	00279793          	slli	a5,a5,0x2
    80007e18:	00f707b3          	add	a5,a4,a5
    80007e1c:	0007a783          	lw	a5,0(a5)
    80007e20:	fef42023          	sw	a5,-32(s0)
    80007e24:	fe042783          	lw	a5,-32(s0)
    80007e28:	0007871b          	sext.w	a4,a5
    80007e2c:	fff00793          	li	a5,-1
    80007e30:	faf700e3          	beq	a4,a5,80007dd0 <_ZN5Dinic3BFSEv+0xb4>
    80007e34:	fc843783          	ld	a5,-56(s0)
    80007e38:	0107b703          	ld	a4,16(a5)
    80007e3c:	fe042783          	lw	a5,-32(s0)
    80007e40:	00479793          	slli	a5,a5,0x4
    80007e44:	00f707b3          	add	a5,a4,a5
    80007e48:	fcf43823          	sd	a5,-48(s0)
    80007e4c:	fc843783          	ld	a5,-56(s0)
    80007e50:	0407b783          	ld	a5,64(a5)
    80007e54:	fd043703          	ld	a4,-48(s0)
    80007e58:	00472703          	lw	a4,4(a4)
    80007e5c:	00e787b3          	add	a5,a5,a4
    80007e60:	0007c783          	lbu	a5,0(a5)
    80007e64:	0017c793          	xori	a5,a5,1
    80007e68:	0ff7f793          	zext.b	a5,a5
    80007e6c:	08078c63          	beqz	a5,80007f04 <_ZN5Dinic3BFSEv+0x1e8>
    80007e70:	fd043783          	ld	a5,-48(s0)
    80007e74:	0087a703          	lw	a4,8(a5)
    80007e78:	fd043783          	ld	a5,-48(s0)
    80007e7c:	00c7a783          	lw	a5,12(a5)
    80007e80:	08e7d263          	bge	a5,a4,80007f04 <_ZN5Dinic3BFSEv+0x1e8>
    80007e84:	fc843783          	ld	a5,-56(s0)
    80007e88:	0407b783          	ld	a5,64(a5)
    80007e8c:	fd043703          	ld	a4,-48(s0)
    80007e90:	00472703          	lw	a4,4(a4)
    80007e94:	00e787b3          	add	a5,a5,a4
    80007e98:	00100713          	li	a4,1
    80007e9c:	00e78023          	sb	a4,0(a5)
    80007ea0:	fc843783          	ld	a5,-56(s0)
    80007ea4:	0287b703          	ld	a4,40(a5)
    80007ea8:	fdc42783          	lw	a5,-36(s0)
    80007eac:	00279793          	slli	a5,a5,0x2
    80007eb0:	00f707b3          	add	a5,a4,a5
    80007eb4:	0007a703          	lw	a4,0(a5)
    80007eb8:	fc843783          	ld	a5,-56(s0)
    80007ebc:	0287b683          	ld	a3,40(a5)
    80007ec0:	fd043783          	ld	a5,-48(s0)
    80007ec4:	0047a783          	lw	a5,4(a5)
    80007ec8:	00279793          	slli	a5,a5,0x2
    80007ecc:	00f687b3          	add	a5,a3,a5
    80007ed0:	0017071b          	addiw	a4,a4,1
    80007ed4:	0007071b          	sext.w	a4,a4
    80007ed8:	00e7a023          	sw	a4,0(a5)
    80007edc:	fc843783          	ld	a5,-56(s0)
    80007ee0:	0387b703          	ld	a4,56(a5)
    80007ee4:	fe442783          	lw	a5,-28(s0)
    80007ee8:	0017869b          	addiw	a3,a5,1
    80007eec:	fed42223          	sw	a3,-28(s0)
    80007ef0:	00279793          	slli	a5,a5,0x2
    80007ef4:	00f707b3          	add	a5,a4,a5
    80007ef8:	fd043703          	ld	a4,-48(s0)
    80007efc:	00472703          	lw	a4,4(a4)
    80007f00:	00e7a023          	sw	a4,0(a5)
    80007f04:	fc843783          	ld	a5,-56(s0)
    80007f08:	0207b703          	ld	a4,32(a5)
    80007f0c:	fe042783          	lw	a5,-32(s0)
    80007f10:	00279793          	slli	a5,a5,0x2
    80007f14:	00f707b3          	add	a5,a4,a5
    80007f18:	0007a783          	lw	a5,0(a5)
    80007f1c:	fef42023          	sw	a5,-32(s0)
    80007f20:	f05ff06f          	j	80007e24 <_ZN5Dinic3BFSEv+0x108>
    80007f24:	fc843783          	ld	a5,-56(s0)
    80007f28:	0407b783          	ld	a5,64(a5)
    80007f2c:	fc843703          	ld	a4,-56(s0)
    80007f30:	00c72703          	lw	a4,12(a4)
    80007f34:	00e787b3          	add	a5,a5,a4
    80007f38:	0007c783          	lbu	a5,0(a5)
    80007f3c:	00078513          	mv	a0,a5
    80007f40:	03813403          	ld	s0,56(sp)
    80007f44:	04010113          	addi	sp,sp,64
    80007f48:	00008067          	ret

Disassembly of section .text._ZN5Dinic3DFSEii:

0000000080007f4c <_ZN5Dinic3DFSEii>:
    80007f4c:	fb010113          	addi	sp,sp,-80
    80007f50:	04113423          	sd	ra,72(sp)
    80007f54:	04813023          	sd	s0,64(sp)
    80007f58:	02913c23          	sd	s1,56(sp)
    80007f5c:	05010413          	addi	s0,sp,80
    80007f60:	faa43c23          	sd	a0,-72(s0)
    80007f64:	00058793          	mv	a5,a1
    80007f68:	00060713          	mv	a4,a2
    80007f6c:	faf42a23          	sw	a5,-76(s0)
    80007f70:	00070793          	mv	a5,a4
    80007f74:	faf42823          	sw	a5,-80(s0)
    80007f78:	fb843783          	ld	a5,-72(s0)
    80007f7c:	00c7a703          	lw	a4,12(a5)
    80007f80:	fb442783          	lw	a5,-76(s0)
    80007f84:	0007879b          	sext.w	a5,a5
    80007f88:	00e78863          	beq	a5,a4,80007f98 <_ZN5Dinic3DFSEii+0x4c>
    80007f8c:	fb042783          	lw	a5,-80(s0)
    80007f90:	0007879b          	sext.w	a5,a5
    80007f94:	00079663          	bnez	a5,80007fa0 <_ZN5Dinic3DFSEii+0x54>
    80007f98:	fb042783          	lw	a5,-80(s0)
    80007f9c:	1b40006f          	j	80008150 <_ZN5Dinic3DFSEii+0x204>
    80007fa0:	fc042e23          	sw	zero,-36(s0)
    80007fa4:	fb843783          	ld	a5,-72(s0)
    80007fa8:	0307b703          	ld	a4,48(a5)
    80007fac:	fb442783          	lw	a5,-76(s0)
    80007fb0:	00279793          	slli	a5,a5,0x2
    80007fb4:	00f707b3          	add	a5,a4,a5
    80007fb8:	0007a783          	lw	a5,0(a5)
    80007fbc:	fcf42a23          	sw	a5,-44(s0)
    80007fc0:	fd442783          	lw	a5,-44(s0)
    80007fc4:	0007871b          	sext.w	a4,a5
    80007fc8:	fff00793          	li	a5,-1
    80007fcc:	18f70063          	beq	a4,a5,8000814c <_ZN5Dinic3DFSEii+0x200>
    80007fd0:	fb843783          	ld	a5,-72(s0)
    80007fd4:	0107b703          	ld	a4,16(a5)
    80007fd8:	fd442783          	lw	a5,-44(s0)
    80007fdc:	00479793          	slli	a5,a5,0x4
    80007fe0:	00f707b3          	add	a5,a4,a5
    80007fe4:	fcf43423          	sd	a5,-56(s0)
    80007fe8:	fb843783          	ld	a5,-72(s0)
    80007fec:	0287b703          	ld	a4,40(a5)
    80007ff0:	fb442783          	lw	a5,-76(s0)
    80007ff4:	00279793          	slli	a5,a5,0x2
    80007ff8:	00f707b3          	add	a5,a4,a5
    80007ffc:	0007a783          	lw	a5,0(a5)
    80008000:	0017879b          	addiw	a5,a5,1
    80008004:	0007869b          	sext.w	a3,a5
    80008008:	fb843783          	ld	a5,-72(s0)
    8000800c:	0287b703          	ld	a4,40(a5)
    80008010:	fc843783          	ld	a5,-56(s0)
    80008014:	0047a783          	lw	a5,4(a5)
    80008018:	00279793          	slli	a5,a5,0x2
    8000801c:	00f707b3          	add	a5,a4,a5
    80008020:	0007a783          	lw	a5,0(a5)
    80008024:	00068713          	mv	a4,a3
    80008028:	06f71263          	bne	a4,a5,8000808c <_ZN5Dinic3DFSEii+0x140>
    8000802c:	fc843783          	ld	a5,-56(s0)
    80008030:	0047a483          	lw	s1,4(a5)
    80008034:	fc843783          	ld	a5,-56(s0)
    80008038:	0087a703          	lw	a4,8(a5)
    8000803c:	fc843783          	ld	a5,-56(s0)
    80008040:	00c7a783          	lw	a5,12(a5)
    80008044:	40f707bb          	subw	a5,a4,a5
    80008048:	0007871b          	sext.w	a4,a5
    8000804c:	fb042783          	lw	a5,-80(s0)
    80008050:	00070593          	mv	a1,a4
    80008054:	00078513          	mv	a0,a5
    80008058:	204000ef          	jal	ra,8000825c <_Z3minIiET_S0_S0_>
    8000805c:	00050793          	mv	a5,a0
    80008060:	00078613          	mv	a2,a5
    80008064:	00048593          	mv	a1,s1
    80008068:	fb843503          	ld	a0,-72(s0)
    8000806c:	ee1ff0ef          	jal	ra,80007f4c <_ZN5Dinic3DFSEii>
    80008070:	00050793          	mv	a5,a0
    80008074:	fcf42c23          	sw	a5,-40(s0)
    80008078:	fd842783          	lw	a5,-40(s0)
    8000807c:	0007879b          	sext.w	a5,a5
    80008080:	00f05663          	blez	a5,8000808c <_ZN5Dinic3DFSEii+0x140>
    80008084:	00100793          	li	a5,1
    80008088:	0080006f          	j	80008090 <_ZN5Dinic3DFSEii+0x144>
    8000808c:	00000793          	li	a5,0
    80008090:	08078c63          	beqz	a5,80008128 <_ZN5Dinic3DFSEii+0x1dc>
    80008094:	fc843783          	ld	a5,-56(s0)
    80008098:	00c7a783          	lw	a5,12(a5)
    8000809c:	fd842703          	lw	a4,-40(s0)
    800080a0:	00f707bb          	addw	a5,a4,a5
    800080a4:	0007871b          	sext.w	a4,a5
    800080a8:	fc843783          	ld	a5,-56(s0)
    800080ac:	00e7a623          	sw	a4,12(a5)
    800080b0:	fb843783          	ld	a5,-72(s0)
    800080b4:	0107b703          	ld	a4,16(a5)
    800080b8:	fd442783          	lw	a5,-44(s0)
    800080bc:	0017c793          	xori	a5,a5,1
    800080c0:	0007879b          	sext.w	a5,a5
    800080c4:	00479793          	slli	a5,a5,0x4
    800080c8:	00f707b3          	add	a5,a4,a5
    800080cc:	00c7a683          	lw	a3,12(a5)
    800080d0:	fb843783          	ld	a5,-72(s0)
    800080d4:	0107b703          	ld	a4,16(a5)
    800080d8:	fd442783          	lw	a5,-44(s0)
    800080dc:	0017c793          	xori	a5,a5,1
    800080e0:	0007879b          	sext.w	a5,a5
    800080e4:	00479793          	slli	a5,a5,0x4
    800080e8:	00f707b3          	add	a5,a4,a5
    800080ec:	fd842703          	lw	a4,-40(s0)
    800080f0:	40e6873b          	subw	a4,a3,a4
    800080f4:	0007071b          	sext.w	a4,a4
    800080f8:	00e7a623          	sw	a4,12(a5)
    800080fc:	fdc42703          	lw	a4,-36(s0)
    80008100:	fd842783          	lw	a5,-40(s0)
    80008104:	00f707bb          	addw	a5,a4,a5
    80008108:	fcf42e23          	sw	a5,-36(s0)
    8000810c:	fb042703          	lw	a4,-80(s0)
    80008110:	fd842783          	lw	a5,-40(s0)
    80008114:	40f707bb          	subw	a5,a4,a5
    80008118:	faf42823          	sw	a5,-80(s0)
    8000811c:	fb042783          	lw	a5,-80(s0)
    80008120:	0007879b          	sext.w	a5,a5
    80008124:	02078263          	beqz	a5,80008148 <_ZN5Dinic3DFSEii+0x1fc>
    80008128:	fb843783          	ld	a5,-72(s0)
    8000812c:	0207b703          	ld	a4,32(a5)
    80008130:	fd442783          	lw	a5,-44(s0)
    80008134:	00279793          	slli	a5,a5,0x2
    80008138:	00f707b3          	add	a5,a4,a5
    8000813c:	0007a783          	lw	a5,0(a5)
    80008140:	fcf42a23          	sw	a5,-44(s0)
    80008144:	e7dff06f          	j	80007fc0 <_ZN5Dinic3DFSEii+0x74>
    80008148:	00000013          	nop
    8000814c:	fdc42783          	lw	a5,-36(s0)
    80008150:	00078513          	mv	a0,a5
    80008154:	04813083          	ld	ra,72(sp)
    80008158:	04013403          	ld	s0,64(sp)
    8000815c:	03813483          	ld	s1,56(sp)
    80008160:	05010113          	addi	sp,sp,80
    80008164:	00008067          	ret

Disassembly of section .text._ZN5Dinic7MaxflowEii:

0000000080008168 <_ZN5Dinic7MaxflowEii>:
    80008168:	fd010113          	addi	sp,sp,-48
    8000816c:	02113423          	sd	ra,40(sp)
    80008170:	02813023          	sd	s0,32(sp)
    80008174:	03010413          	addi	s0,sp,48
    80008178:	fca43c23          	sd	a0,-40(s0)
    8000817c:	00058793          	mv	a5,a1
    80008180:	00060713          	mv	a4,a2
    80008184:	fcf42a23          	sw	a5,-44(s0)
    80008188:	00070793          	mv	a5,a4
    8000818c:	fcf42823          	sw	a5,-48(s0)
    80008190:	fd843783          	ld	a5,-40(s0)
    80008194:	fd442703          	lw	a4,-44(s0)
    80008198:	00e7a423          	sw	a4,8(a5)
    8000819c:	fd843783          	ld	a5,-40(s0)
    800081a0:	fd042703          	lw	a4,-48(s0)
    800081a4:	00e7a623          	sw	a4,12(a5)
    800081a8:	fe042623          	sw	zero,-20(s0)
    800081ac:	fd843503          	ld	a0,-40(s0)
    800081b0:	b6dff0ef          	jal	ra,80007d1c <_ZN5Dinic3BFSEv>
    800081b4:	00050793          	mv	a5,a0
    800081b8:	08078663          	beqz	a5,80008244 <_ZN5Dinic7MaxflowEii+0xdc>
    800081bc:	fe042423          	sw	zero,-24(s0)
    800081c0:	fd843783          	ld	a5,-40(s0)
    800081c4:	0007a703          	lw	a4,0(a5)
    800081c8:	fe842783          	lw	a5,-24(s0)
    800081cc:	0007879b          	sext.w	a5,a5
    800081d0:	04e7d263          	bge	a5,a4,80008214 <_ZN5Dinic7MaxflowEii+0xac>
    800081d4:	fd843783          	ld	a5,-40(s0)
    800081d8:	0187b703          	ld	a4,24(a5)
    800081dc:	fe842783          	lw	a5,-24(s0)
    800081e0:	00279793          	slli	a5,a5,0x2
    800081e4:	00f70733          	add	a4,a4,a5
    800081e8:	fd843783          	ld	a5,-40(s0)
    800081ec:	0307b683          	ld	a3,48(a5)
    800081f0:	fe842783          	lw	a5,-24(s0)
    800081f4:	00279793          	slli	a5,a5,0x2
    800081f8:	00f687b3          	add	a5,a3,a5
    800081fc:	00072703          	lw	a4,0(a4)
    80008200:	00e7a023          	sw	a4,0(a5)
    80008204:	fe842783          	lw	a5,-24(s0)
    80008208:	0017879b          	addiw	a5,a5,1
    8000820c:	fef42423          	sw	a5,-24(s0)
    80008210:	fb1ff06f          	j	800081c0 <_ZN5Dinic7MaxflowEii+0x58>
    80008214:	fd442703          	lw	a4,-44(s0)
    80008218:	003f47b7          	lui	a5,0x3f4
    8000821c:	f3f78613          	addi	a2,a5,-193 # 3f3f3f <_start-0x7fc0c0c1>
    80008220:	00070593          	mv	a1,a4
    80008224:	fd843503          	ld	a0,-40(s0)
    80008228:	d25ff0ef          	jal	ra,80007f4c <_ZN5Dinic3DFSEii>
    8000822c:	00050793          	mv	a5,a0
    80008230:	00078713          	mv	a4,a5
    80008234:	fec42783          	lw	a5,-20(s0)
    80008238:	00e787bb          	addw	a5,a5,a4
    8000823c:	fef42623          	sw	a5,-20(s0)
    80008240:	f6dff06f          	j	800081ac <_ZN5Dinic7MaxflowEii+0x44>
    80008244:	fec42783          	lw	a5,-20(s0)
    80008248:	00078513          	mv	a0,a5
    8000824c:	02813083          	ld	ra,40(sp)
    80008250:	02013403          	ld	s0,32(sp)
    80008254:	03010113          	addi	sp,sp,48
    80008258:	00008067          	ret

Disassembly of section .text._Z3minIiET_S0_S0_:

000000008000825c <_Z3minIiET_S0_S0_>:
    8000825c:	fe010113          	addi	sp,sp,-32
    80008260:	00813c23          	sd	s0,24(sp)
    80008264:	02010413          	addi	s0,sp,32
    80008268:	00050793          	mv	a5,a0
    8000826c:	00058713          	mv	a4,a1
    80008270:	fef42623          	sw	a5,-20(s0)
    80008274:	00070793          	mv	a5,a4
    80008278:	fef42423          	sw	a5,-24(s0)
    8000827c:	fec42703          	lw	a4,-20(s0)
    80008280:	fe842783          	lw	a5,-24(s0)
    80008284:	0007071b          	sext.w	a4,a4
    80008288:	0007879b          	sext.w	a5,a5
    8000828c:	00f75663          	bge	a4,a5,80008298 <_Z3minIiET_S0_S0_+0x3c>
    80008290:	fec42783          	lw	a5,-20(s0)
    80008294:	0080006f          	j	8000829c <_Z3minIiET_S0_S0_+0x40>
    80008298:	fe842783          	lw	a5,-24(s0)
    8000829c:	00078513          	mv	a0,a5
    800082a0:	01813403          	ld	s0,24(sp)
    800082a4:	02010113          	addi	sp,sp,32
    800082a8:	00008067          	ret

Disassembly of section .text._putc:

00000000800082ac <_putc>:
    800082ac:	fe010113          	addi	sp,sp,-32
    800082b0:	00113c23          	sd	ra,24(sp)
    800082b4:	00813823          	sd	s0,16(sp)
    800082b8:	02010413          	addi	s0,sp,32
    800082bc:	00050793          	mv	a5,a0
    800082c0:	fef407a3          	sb	a5,-17(s0)
    800082c4:	fef44783          	lbu	a5,-17(s0)
    800082c8:	00078513          	mv	a0,a5
    800082cc:	11c000ef          	jal	ra,800083e8 <__am_uartlite_putchar>
    800082d0:	00000013          	nop
    800082d4:	01813083          	ld	ra,24(sp)
    800082d8:	01013403          	ld	s0,16(sp)
    800082dc:	02010113          	addi	sp,sp,32
    800082e0:	00008067          	ret

Disassembly of section .text._halt:

00000000800082e4 <_halt>:
    800082e4:	fe010113          	addi	sp,sp,-32
    800082e8:	00113c23          	sd	ra,24(sp)
    800082ec:	00813823          	sd	s0,16(sp)
    800082f0:	02010413          	addi	s0,sp,32
    800082f4:	00050793          	mv	a5,a0
    800082f8:	fef42623          	sw	a5,-20(s0)
    800082fc:	fec42783          	lw	a5,-20(s0)
    80008300:	00078513          	mv	a0,a5
    80008304:	0005006b          	.word	0x0005006b
    80008308:	fec42783          	lw	a5,-20(s0)
    8000830c:	00078593          	mv	a1,a5
    80008310:	00003517          	auipc	a0,0x3
    80008314:	60050513          	addi	a0,a0,1536 # 8000b910 <r+0x100>
    80008318:	371020ef          	jal	ra,8000ae88 <printf_>
    8000831c:	0000006f          	j	8000831c <_halt+0x38>

Disassembly of section .text._trm_init:

0000000080008320 <_trm_init>:
    80008320:	fe010113          	addi	sp,sp,-32
    80008324:	00113c23          	sd	ra,24(sp)
    80008328:	00813823          	sd	s0,16(sp)
    8000832c:	02010413          	addi	s0,sp,32
    80008330:	084000ef          	jal	ra,800083b4 <__am_init_uartlite>
    80008334:	00003517          	auipc	a0,0x3
    80008338:	5f150513          	addi	a0,a0,1521 # 8000b925 <__am_mainargs>
    8000833c:	ef9f70ef          	jal	ra,80000234 <main>
    80008340:	00050793          	mv	a5,a0
    80008344:	fef42623          	sw	a5,-20(s0)
    80008348:	fec42783          	lw	a5,-20(s0)
    8000834c:	00078513          	mv	a0,a5
    80008350:	f95ff0ef          	jal	ra,800082e4 <_halt>

Disassembly of section .text.inb:

0000000080008354 <inb>:
    80008354:	fe010113          	addi	sp,sp,-32
    80008358:	00813c23          	sd	s0,24(sp)
    8000835c:	02010413          	addi	s0,sp,32
    80008360:	fea43423          	sd	a0,-24(s0)
    80008364:	fe843783          	ld	a5,-24(s0)
    80008368:	0007c783          	lbu	a5,0(a5)
    8000836c:	0ff7f793          	zext.b	a5,a5
    80008370:	00078513          	mv	a0,a5
    80008374:	01813403          	ld	s0,24(sp)
    80008378:	02010113          	addi	sp,sp,32
    8000837c:	00008067          	ret

Disassembly of section .text.outb:

0000000080008380 <outb>:
    80008380:	fe010113          	addi	sp,sp,-32
    80008384:	00813c23          	sd	s0,24(sp)
    80008388:	02010413          	addi	s0,sp,32
    8000838c:	fea43423          	sd	a0,-24(s0)
    80008390:	00058793          	mv	a5,a1
    80008394:	fef403a3          	sb	a5,-25(s0)
    80008398:	fe843783          	ld	a5,-24(s0)
    8000839c:	fe744703          	lbu	a4,-25(s0)
    800083a0:	00e78023          	sb	a4,0(a5)
    800083a4:	00000013          	nop
    800083a8:	01813403          	ld	s0,24(sp)
    800083ac:	02010113          	addi	sp,sp,32
    800083b0:	00008067          	ret

Disassembly of section .text.__am_init_uartlite:

00000000800083b4 <__am_init_uartlite>:
    800083b4:	ff010113          	addi	sp,sp,-16
    800083b8:	00113423          	sd	ra,8(sp)
    800083bc:	00813023          	sd	s0,0(sp)
    800083c0:	01010413          	addi	s0,sp,16
    800083c4:	00300593          	li	a1,3
    800083c8:	406007b7          	lui	a5,0x40600
    800083cc:	00c78513          	addi	a0,a5,12 # 4060000c <_start-0x3f9ffff4>
    800083d0:	fb1ff0ef          	jal	ra,80008380 <outb>
    800083d4:	00000013          	nop
    800083d8:	00813083          	ld	ra,8(sp)
    800083dc:	00013403          	ld	s0,0(sp)
    800083e0:	01010113          	addi	sp,sp,16
    800083e4:	00008067          	ret

Disassembly of section .text.__am_uartlite_putchar:

00000000800083e8 <__am_uartlite_putchar>:
    800083e8:	fe010113          	addi	sp,sp,-32
    800083ec:	00113c23          	sd	ra,24(sp)
    800083f0:	00813823          	sd	s0,16(sp)
    800083f4:	02010413          	addi	s0,sp,32
    800083f8:	00050793          	mv	a5,a0
    800083fc:	fef407a3          	sb	a5,-17(s0)
    80008400:	fef44783          	lbu	a5,-17(s0)
    80008404:	0ff7f713          	zext.b	a4,a5
    80008408:	00a00793          	li	a5,10
    8000840c:	00f71663          	bne	a4,a5,80008418 <__am_uartlite_putchar+0x30>
    80008410:	00d00513          	li	a0,13
    80008414:	fd5ff0ef          	jal	ra,800083e8 <__am_uartlite_putchar>
    80008418:	00000013          	nop
    8000841c:	406007b7          	lui	a5,0x40600
    80008420:	00878513          	addi	a0,a5,8 # 40600008 <_start-0x3f9ffff8>
    80008424:	f31ff0ef          	jal	ra,80008354 <inb>
    80008428:	00050793          	mv	a5,a0
    8000842c:	0007879b          	sext.w	a5,a5
    80008430:	0087f793          	andi	a5,a5,8
    80008434:	0007879b          	sext.w	a5,a5
    80008438:	fe0792e3          	bnez	a5,8000841c <__am_uartlite_putchar+0x34>
    8000843c:	fef44783          	lbu	a5,-17(s0)
    80008440:	00078593          	mv	a1,a5
    80008444:	406007b7          	lui	a5,0x40600
    80008448:	00478513          	addi	a0,a5,4 # 40600004 <_start-0x3f9ffffc>
    8000844c:	f35ff0ef          	jal	ra,80008380 <outb>
    80008450:	00000013          	nop
    80008454:	01813083          	ld	ra,24(sp)
    80008458:	01013403          	ld	s0,16(sp)
    8000845c:	02010113          	addi	sp,sp,32
    80008460:	00008067          	ret

Disassembly of section .text._ioe_init:

0000000080008464 <_ioe_init>:
    80008464:	ff010113          	addi	sp,sp,-16
    80008468:	00113423          	sd	ra,8(sp)
    8000846c:	00813023          	sd	s0,0(sp)
    80008470:	01010413          	addi	s0,sp,16
    80008474:	5f8000ef          	jal	ra,80008a6c <__am_vga_init>
    80008478:	444000ef          	jal	ra,800088bc <__am_timer_init>
    8000847c:	60c000ef          	jal	ra,80008a88 <__am_audio_init>
    80008480:	00000793          	li	a5,0
    80008484:	00078513          	mv	a0,a5
    80008488:	00813083          	ld	ra,8(sp)
    8000848c:	00013403          	ld	s0,0(sp)
    80008490:	01010113          	addi	sp,sp,16
    80008494:	00008067          	ret

Disassembly of section .text._io_read:

0000000080008498 <_io_read>:
    80008498:	fd010113          	addi	sp,sp,-48
    8000849c:	02113423          	sd	ra,40(sp)
    800084a0:	02813023          	sd	s0,32(sp)
    800084a4:	03010413          	addi	s0,sp,48
    800084a8:	00050793          	mv	a5,a0
    800084ac:	feb43023          	sd	a1,-32(s0)
    800084b0:	fcc43c23          	sd	a2,-40(s0)
    800084b4:	fcd43823          	sd	a3,-48(s0)
    800084b8:	fef42623          	sw	a5,-20(s0)
    800084bc:	fec42783          	lw	a5,-20(s0)
    800084c0:	0007871b          	sext.w	a4,a5
    800084c4:	0000b7b7          	lui	a5,0xb
    800084c8:	c0778793          	addi	a5,a5,-1017 # ac07 <_start-0x7fff53f9>
    800084cc:	0af70a63          	beq	a4,a5,80008580 <_io_read+0xe8>
    800084d0:	fec42783          	lw	a5,-20(s0)
    800084d4:	0007871b          	sext.w	a4,a5
    800084d8:	0000b7b7          	lui	a5,0xb
    800084dc:	c0778793          	addi	a5,a5,-1017 # ac07 <_start-0x7fff53f9>
    800084e0:	0ae7ec63          	bltu	a5,a4,80008598 <_io_read+0x100>
    800084e4:	fec42783          	lw	a5,-20(s0)
    800084e8:	0007871b          	sext.w	a4,a5
    800084ec:	0000b7b7          	lui	a5,0xb
    800084f0:	c0478793          	addi	a5,a5,-1020 # ac04 <_start-0x7fff53fc>
    800084f4:	06f70a63          	beq	a4,a5,80008568 <_io_read+0xd0>
    800084f8:	fec42783          	lw	a5,-20(s0)
    800084fc:	0007871b          	sext.w	a4,a5
    80008500:	0000b7b7          	lui	a5,0xb
    80008504:	c0478793          	addi	a5,a5,-1020 # ac04 <_start-0x7fff53fc>
    80008508:	08e7e863          	bltu	a5,a4,80008598 <_io_read+0x100>
    8000850c:	fec42783          	lw	a5,-20(s0)
    80008510:	0007871b          	sext.w	a4,a5
    80008514:	0000b7b7          	lui	a5,0xb
    80008518:	c0278793          	addi	a5,a5,-1022 # ac02 <_start-0x7fff53fe>
    8000851c:	00f70e63          	beq	a4,a5,80008538 <_io_read+0xa0>
    80008520:	fec42783          	lw	a5,-20(s0)
    80008524:	0007871b          	sext.w	a4,a5
    80008528:	0000b7b7          	lui	a5,0xb
    8000852c:	c0378793          	addi	a5,a5,-1021 # ac03 <_start-0x7fff53fd>
    80008530:	02f70063          	beq	a4,a5,80008550 <_io_read+0xb8>
    80008534:	0640006f          	j	80008598 <_io_read+0x100>
    80008538:	fd043603          	ld	a2,-48(s0)
    8000853c:	fd843583          	ld	a1,-40(s0)
    80008540:	fe043503          	ld	a0,-32(s0)
    80008544:	3bc000ef          	jal	ra,80008900 <__am_input_read>
    80008548:	00050793          	mv	a5,a0
    8000854c:	0500006f          	j	8000859c <_io_read+0x104>
    80008550:	fd043603          	ld	a2,-48(s0)
    80008554:	fd843583          	ld	a1,-40(s0)
    80008558:	fe043503          	ld	a0,-32(s0)
    8000855c:	0bc000ef          	jal	ra,80008618 <__am_timer_read>
    80008560:	00050793          	mv	a5,a0
    80008564:	0380006f          	j	8000859c <_io_read+0x104>
    80008568:	fd043603          	ld	a2,-48(s0)
    8000856c:	fd843583          	ld	a1,-40(s0)
    80008570:	fe043503          	ld	a0,-32(s0)
    80008574:	43c000ef          	jal	ra,800089b0 <__am_video_read>
    80008578:	00050793          	mv	a5,a0
    8000857c:	0200006f          	j	8000859c <_io_read+0x104>
    80008580:	fd043603          	ld	a2,-48(s0)
    80008584:	fd843583          	ld	a1,-40(s0)
    80008588:	fe043503          	ld	a0,-32(s0)
    8000858c:	518000ef          	jal	ra,80008aa4 <__am_audio_read>
    80008590:	00050793          	mv	a5,a0
    80008594:	0080006f          	j	8000859c <_io_read+0x104>
    80008598:	00000793          	li	a5,0
    8000859c:	00078513          	mv	a0,a5
    800085a0:	02813083          	ld	ra,40(sp)
    800085a4:	02013403          	ld	s0,32(sp)
    800085a8:	03010113          	addi	sp,sp,48
    800085ac:	00008067          	ret

Disassembly of section .text.ind:

00000000800085b0 <ind>:
    800085b0:	fe010113          	addi	sp,sp,-32
    800085b4:	00813c23          	sd	s0,24(sp)
    800085b8:	02010413          	addi	s0,sp,32
    800085bc:	fea43423          	sd	a0,-24(s0)
    800085c0:	fe843783          	ld	a5,-24(s0)
    800085c4:	0007b783          	ld	a5,0(a5)
    800085c8:	00078513          	mv	a0,a5
    800085cc:	01813403          	ld	s0,24(sp)
    800085d0:	02010113          	addi	sp,sp,32
    800085d4:	00008067          	ret

Disassembly of section .text.read_time:

00000000800085d8 <read_time>:
    800085d8:	ff010113          	addi	sp,sp,-16
    800085dc:	00113423          	sd	ra,8(sp)
    800085e0:	00813023          	sd	s0,0(sp)
    800085e4:	01010413          	addi	s0,sp,16
    800085e8:	3800c7b7          	lui	a5,0x3800c
    800085ec:	ff878513          	addi	a0,a5,-8 # 3800bff8 <_start-0x47ff4008>
    800085f0:	fc1ff0ef          	jal	ra,800085b0 <ind>
    800085f4:	00050713          	mv	a4,a0
    800085f8:	3e800793          	li	a5,1000
    800085fc:	02f757b3          	divu	a5,a4,a5
    80008600:	0007879b          	sext.w	a5,a5
    80008604:	00078513          	mv	a0,a5
    80008608:	00813083          	ld	ra,8(sp)
    8000860c:	00013403          	ld	s0,0(sp)
    80008610:	01010113          	addi	sp,sp,16
    80008614:	00008067          	ret

Disassembly of section .text.__am_timer_read:

0000000080008618 <__am_timer_read>:
    80008618:	fc010113          	addi	sp,sp,-64
    8000861c:	02113c23          	sd	ra,56(sp)
    80008620:	02813823          	sd	s0,48(sp)
    80008624:	04010413          	addi	s0,sp,64
    80008628:	fca43c23          	sd	a0,-40(s0)
    8000862c:	fcb43823          	sd	a1,-48(s0)
    80008630:	fcc43423          	sd	a2,-56(s0)
    80008634:	fd843703          	ld	a4,-40(s0)
    80008638:	00100793          	li	a5,1
    8000863c:	00f70a63          	beq	a4,a5,80008650 <__am_timer_read+0x38>
    80008640:	fd843703          	ld	a4,-40(s0)
    80008644:	00200793          	li	a5,2
    80008648:	10f70663          	beq	a4,a5,80008754 <__am_timer_read+0x13c>
    8000864c:	2580006f          	j	800088a4 <__am_timer_read+0x28c>
    80008650:	fd043783          	ld	a5,-48(s0)
    80008654:	fef43023          	sd	a5,-32(s0)
    80008658:	fe043783          	ld	a5,-32(s0)
    8000865c:	0007c703          	lbu	a4,0(a5)
    80008660:	00077713          	andi	a4,a4,0
    80008664:	00e78023          	sb	a4,0(a5)
    80008668:	0017c703          	lbu	a4,1(a5)
    8000866c:	00077713          	andi	a4,a4,0
    80008670:	00e780a3          	sb	a4,1(a5)
    80008674:	0027c703          	lbu	a4,2(a5)
    80008678:	00077713          	andi	a4,a4,0
    8000867c:	00e78123          	sb	a4,2(a5)
    80008680:	0037c703          	lbu	a4,3(a5)
    80008684:	00077713          	andi	a4,a4,0
    80008688:	00e781a3          	sb	a4,3(a5)
    8000868c:	f4dff0ef          	jal	ra,800085d8 <read_time>
    80008690:	00050793          	mv	a5,a0
    80008694:	0007871b          	sext.w	a4,a5
    80008698:	00004797          	auipc	a5,0x4
    8000869c:	cc878793          	addi	a5,a5,-824 # 8000c360 <boot_time>
    800086a0:	0007b783          	ld	a5,0(a5)
    800086a4:	0007879b          	sext.w	a5,a5
    800086a8:	40f707bb          	subw	a5,a4,a5
    800086ac:	0007871b          	sext.w	a4,a5
    800086b0:	fe043783          	ld	a5,-32(s0)
    800086b4:	02071693          	slli	a3,a4,0x20
    800086b8:	0206d693          	srli	a3,a3,0x20
    800086bc:	0ff6f593          	zext.b	a1,a3
    800086c0:	0047c683          	lbu	a3,4(a5)
    800086c4:	0006f693          	andi	a3,a3,0
    800086c8:	00068613          	mv	a2,a3
    800086cc:	00058693          	mv	a3,a1
    800086d0:	00d666b3          	or	a3,a2,a3
    800086d4:	00d78223          	sb	a3,4(a5)
    800086d8:	0087569b          	srliw	a3,a4,0x8
    800086dc:	02069693          	slli	a3,a3,0x20
    800086e0:	0206d693          	srli	a3,a3,0x20
    800086e4:	0ff6f593          	zext.b	a1,a3
    800086e8:	0057c683          	lbu	a3,5(a5)
    800086ec:	0006f693          	andi	a3,a3,0
    800086f0:	00068613          	mv	a2,a3
    800086f4:	00058693          	mv	a3,a1
    800086f8:	00d666b3          	or	a3,a2,a3
    800086fc:	00d782a3          	sb	a3,5(a5)
    80008700:	0107569b          	srliw	a3,a4,0x10
    80008704:	02069693          	slli	a3,a3,0x20
    80008708:	0206d693          	srli	a3,a3,0x20
    8000870c:	0ff6f593          	zext.b	a1,a3
    80008710:	0067c683          	lbu	a3,6(a5)
    80008714:	0006f693          	andi	a3,a3,0
    80008718:	00068613          	mv	a2,a3
    8000871c:	00058693          	mv	a3,a1
    80008720:	00d666b3          	or	a3,a2,a3
    80008724:	00d78323          	sb	a3,6(a5)
    80008728:	0187571b          	srliw	a4,a4,0x18
    8000872c:	02071613          	slli	a2,a4,0x20
    80008730:	02065613          	srli	a2,a2,0x20
    80008734:	0077c703          	lbu	a4,7(a5)
    80008738:	00077713          	andi	a4,a4,0
    8000873c:	00070693          	mv	a3,a4
    80008740:	00060713          	mv	a4,a2
    80008744:	00e6e733          	or	a4,a3,a4
    80008748:	00e783a3          	sb	a4,7(a5)
    8000874c:	00800793          	li	a5,8
    80008750:	1580006f          	j	800088a8 <__am_timer_read+0x290>
    80008754:	fd043783          	ld	a5,-48(s0)
    80008758:	fef43423          	sd	a5,-24(s0)
    8000875c:	fe843783          	ld	a5,-24(s0)
    80008760:	0147c703          	lbu	a4,20(a5)
    80008764:	00077713          	andi	a4,a4,0
    80008768:	00e78a23          	sb	a4,20(a5)
    8000876c:	0157c703          	lbu	a4,21(a5)
    80008770:	00077713          	andi	a4,a4,0
    80008774:	00e78aa3          	sb	a4,21(a5)
    80008778:	0167c703          	lbu	a4,22(a5)
    8000877c:	00077713          	andi	a4,a4,0
    80008780:	00e78b23          	sb	a4,22(a5)
    80008784:	0177c703          	lbu	a4,23(a5)
    80008788:	00077713          	andi	a4,a4,0
    8000878c:	00e78ba3          	sb	a4,23(a5)
    80008790:	fe843783          	ld	a5,-24(s0)
    80008794:	0107c703          	lbu	a4,16(a5)
    80008798:	00077713          	andi	a4,a4,0
    8000879c:	00e78823          	sb	a4,16(a5)
    800087a0:	0117c703          	lbu	a4,17(a5)
    800087a4:	00077713          	andi	a4,a4,0
    800087a8:	00e788a3          	sb	a4,17(a5)
    800087ac:	0127c703          	lbu	a4,18(a5)
    800087b0:	00077713          	andi	a4,a4,0
    800087b4:	00e78923          	sb	a4,18(a5)
    800087b8:	0137c703          	lbu	a4,19(a5)
    800087bc:	00077713          	andi	a4,a4,0
    800087c0:	00e789a3          	sb	a4,19(a5)
    800087c4:	fe843783          	ld	a5,-24(s0)
    800087c8:	00c7c703          	lbu	a4,12(a5)
    800087cc:	00077713          	andi	a4,a4,0
    800087d0:	00e78623          	sb	a4,12(a5)
    800087d4:	00d7c703          	lbu	a4,13(a5)
    800087d8:	00077713          	andi	a4,a4,0
    800087dc:	00e786a3          	sb	a4,13(a5)
    800087e0:	00e7c703          	lbu	a4,14(a5)
    800087e4:	00077713          	andi	a4,a4,0
    800087e8:	00e78723          	sb	a4,14(a5)
    800087ec:	00f7c703          	lbu	a4,15(a5)
    800087f0:	00077713          	andi	a4,a4,0
    800087f4:	00e787a3          	sb	a4,15(a5)
    800087f8:	fe843783          	ld	a5,-24(s0)
    800087fc:	0087c703          	lbu	a4,8(a5)
    80008800:	00077713          	andi	a4,a4,0
    80008804:	00e78423          	sb	a4,8(a5)
    80008808:	0097c703          	lbu	a4,9(a5)
    8000880c:	00077713          	andi	a4,a4,0
    80008810:	00e784a3          	sb	a4,9(a5)
    80008814:	00a7c703          	lbu	a4,10(a5)
    80008818:	00077713          	andi	a4,a4,0
    8000881c:	00e78523          	sb	a4,10(a5)
    80008820:	00b7c703          	lbu	a4,11(a5)
    80008824:	00077713          	andi	a4,a4,0
    80008828:	00e785a3          	sb	a4,11(a5)
    8000882c:	fe843783          	ld	a5,-24(s0)
    80008830:	0047c703          	lbu	a4,4(a5)
    80008834:	00077713          	andi	a4,a4,0
    80008838:	00e78223          	sb	a4,4(a5)
    8000883c:	0057c703          	lbu	a4,5(a5)
    80008840:	00077713          	andi	a4,a4,0
    80008844:	00e782a3          	sb	a4,5(a5)
    80008848:	0067c703          	lbu	a4,6(a5)
    8000884c:	00077713          	andi	a4,a4,0
    80008850:	00e78323          	sb	a4,6(a5)
    80008854:	0077c703          	lbu	a4,7(a5)
    80008858:	00077713          	andi	a4,a4,0
    8000885c:	00e783a3          	sb	a4,7(a5)
    80008860:	fe843783          	ld	a5,-24(s0)
    80008864:	0007c703          	lbu	a4,0(a5)
    80008868:	00077713          	andi	a4,a4,0
    8000886c:	fe276713          	ori	a4,a4,-30
    80008870:	00e78023          	sb	a4,0(a5)
    80008874:	0017c703          	lbu	a4,1(a5)
    80008878:	00077713          	andi	a4,a4,0
    8000887c:	00776713          	ori	a4,a4,7
    80008880:	00e780a3          	sb	a4,1(a5)
    80008884:	0027c703          	lbu	a4,2(a5)
    80008888:	00077713          	andi	a4,a4,0
    8000888c:	00e78123          	sb	a4,2(a5)
    80008890:	0037c703          	lbu	a4,3(a5)
    80008894:	00077713          	andi	a4,a4,0
    80008898:	00e781a3          	sb	a4,3(a5)
    8000889c:	01800793          	li	a5,24
    800088a0:	0080006f          	j	800088a8 <__am_timer_read+0x290>
    800088a4:	00000793          	li	a5,0
    800088a8:	00078513          	mv	a0,a5
    800088ac:	03813083          	ld	ra,56(sp)
    800088b0:	03013403          	ld	s0,48(sp)
    800088b4:	04010113          	addi	sp,sp,64
    800088b8:	00008067          	ret

Disassembly of section .text.__am_timer_init:

00000000800088bc <__am_timer_init>:
    800088bc:	ff010113          	addi	sp,sp,-16
    800088c0:	00113423          	sd	ra,8(sp)
    800088c4:	00813023          	sd	s0,0(sp)
    800088c8:	01010413          	addi	s0,sp,16
    800088cc:	d0dff0ef          	jal	ra,800085d8 <read_time>
    800088d0:	00050793          	mv	a5,a0
    800088d4:	0007879b          	sext.w	a5,a5
    800088d8:	02079713          	slli	a4,a5,0x20
    800088dc:	02075713          	srli	a4,a4,0x20
    800088e0:	00004797          	auipc	a5,0x4
    800088e4:	a8078793          	addi	a5,a5,-1408 # 8000c360 <boot_time>
    800088e8:	00e7b023          	sd	a4,0(a5)
    800088ec:	00000013          	nop
    800088f0:	00813083          	ld	ra,8(sp)
    800088f4:	00013403          	ld	s0,0(sp)
    800088f8:	01010113          	addi	sp,sp,16
    800088fc:	00008067          	ret

Disassembly of section .text.__am_input_read:

0000000080008900 <__am_input_read>:
    80008900:	fc010113          	addi	sp,sp,-64
    80008904:	02813c23          	sd	s0,56(sp)
    80008908:	04010413          	addi	s0,sp,64
    8000890c:	fca43c23          	sd	a0,-40(s0)
    80008910:	fcb43823          	sd	a1,-48(s0)
    80008914:	fcc43423          	sd	a2,-56(s0)
    80008918:	fd843703          	ld	a4,-40(s0)
    8000891c:	00100793          	li	a5,1
    80008920:	06f71e63          	bne	a4,a5,8000899c <__am_input_read+0x9c>
    80008924:	fd043783          	ld	a5,-48(s0)
    80008928:	fef43423          	sd	a5,-24(s0)
    8000892c:	fe843783          	ld	a5,-24(s0)
    80008930:	0007c703          	lbu	a4,0(a5)
    80008934:	00077713          	andi	a4,a4,0
    80008938:	00e78023          	sb	a4,0(a5)
    8000893c:	0017c703          	lbu	a4,1(a5)
    80008940:	00077713          	andi	a4,a4,0
    80008944:	00e780a3          	sb	a4,1(a5)
    80008948:	0027c703          	lbu	a4,2(a5)
    8000894c:	00077713          	andi	a4,a4,0
    80008950:	00e78123          	sb	a4,2(a5)
    80008954:	0037c703          	lbu	a4,3(a5)
    80008958:	00077713          	andi	a4,a4,0
    8000895c:	00e781a3          	sb	a4,3(a5)
    80008960:	fe843783          	ld	a5,-24(s0)
    80008964:	0047c703          	lbu	a4,4(a5)
    80008968:	00077713          	andi	a4,a4,0
    8000896c:	00e78223          	sb	a4,4(a5)
    80008970:	0057c703          	lbu	a4,5(a5)
    80008974:	00077713          	andi	a4,a4,0
    80008978:	00e782a3          	sb	a4,5(a5)
    8000897c:	0067c703          	lbu	a4,6(a5)
    80008980:	00077713          	andi	a4,a4,0
    80008984:	00e78323          	sb	a4,6(a5)
    80008988:	0077c703          	lbu	a4,7(a5)
    8000898c:	00077713          	andi	a4,a4,0
    80008990:	00e783a3          	sb	a4,7(a5)
    80008994:	00800793          	li	a5,8
    80008998:	0080006f          	j	800089a0 <__am_input_read+0xa0>
    8000899c:	00000793          	li	a5,0
    800089a0:	00078513          	mv	a0,a5
    800089a4:	03813403          	ld	s0,56(sp)
    800089a8:	04010113          	addi	sp,sp,64
    800089ac:	00008067          	ret

Disassembly of section .text.__am_video_read:

00000000800089b0 <__am_video_read>:
    800089b0:	fc010113          	addi	sp,sp,-64
    800089b4:	02813c23          	sd	s0,56(sp)
    800089b8:	04010413          	addi	s0,sp,64
    800089bc:	fca43c23          	sd	a0,-40(s0)
    800089c0:	fcb43823          	sd	a1,-48(s0)
    800089c4:	fcc43423          	sd	a2,-56(s0)
    800089c8:	fd843703          	ld	a4,-40(s0)
    800089cc:	00100793          	li	a5,1
    800089d0:	08f71463          	bne	a4,a5,80008a58 <__am_video_read+0xa8>
    800089d4:	fd043783          	ld	a5,-48(s0)
    800089d8:	fef43423          	sd	a5,-24(s0)
    800089dc:	fe843783          	ld	a5,-24(s0)
    800089e0:	0007c703          	lbu	a4,0(a5)
    800089e4:	00077713          	andi	a4,a4,0
    800089e8:	04076713          	ori	a4,a4,64
    800089ec:	00e78023          	sb	a4,0(a5)
    800089f0:	0017c703          	lbu	a4,1(a5)
    800089f4:	00077713          	andi	a4,a4,0
    800089f8:	00176713          	ori	a4,a4,1
    800089fc:	00e780a3          	sb	a4,1(a5)
    80008a00:	0027c703          	lbu	a4,2(a5)
    80008a04:	00077713          	andi	a4,a4,0
    80008a08:	00e78123          	sb	a4,2(a5)
    80008a0c:	0037c703          	lbu	a4,3(a5)
    80008a10:	00077713          	andi	a4,a4,0
    80008a14:	00e781a3          	sb	a4,3(a5)
    80008a18:	fe843783          	ld	a5,-24(s0)
    80008a1c:	0047c703          	lbu	a4,4(a5)
    80008a20:	00077713          	andi	a4,a4,0
    80008a24:	ff076713          	ori	a4,a4,-16
    80008a28:	00e78223          	sb	a4,4(a5)
    80008a2c:	0057c703          	lbu	a4,5(a5)
    80008a30:	00077713          	andi	a4,a4,0
    80008a34:	00e782a3          	sb	a4,5(a5)
    80008a38:	0067c703          	lbu	a4,6(a5)
    80008a3c:	00077713          	andi	a4,a4,0
    80008a40:	00e78323          	sb	a4,6(a5)
    80008a44:	0077c703          	lbu	a4,7(a5)
    80008a48:	00077713          	andi	a4,a4,0
    80008a4c:	00e783a3          	sb	a4,7(a5)
    80008a50:	00800793          	li	a5,8
    80008a54:	0080006f          	j	80008a5c <__am_video_read+0xac>
    80008a58:	00000793          	li	a5,0
    80008a5c:	00078513          	mv	a0,a5
    80008a60:	03813403          	ld	s0,56(sp)
    80008a64:	04010113          	addi	sp,sp,64
    80008a68:	00008067          	ret

Disassembly of section .text.__am_vga_init:

0000000080008a6c <__am_vga_init>:
    80008a6c:	ff010113          	addi	sp,sp,-16
    80008a70:	00813423          	sd	s0,8(sp)
    80008a74:	01010413          	addi	s0,sp,16
    80008a78:	00000013          	nop
    80008a7c:	00813403          	ld	s0,8(sp)
    80008a80:	01010113          	addi	sp,sp,16
    80008a84:	00008067          	ret

Disassembly of section .text.__am_audio_init:

0000000080008a88 <__am_audio_init>:
    80008a88:	ff010113          	addi	sp,sp,-16
    80008a8c:	00813423          	sd	s0,8(sp)
    80008a90:	01010413          	addi	s0,sp,16
    80008a94:	00000013          	nop
    80008a98:	00813403          	ld	s0,8(sp)
    80008a9c:	01010113          	addi	sp,sp,16
    80008aa0:	00008067          	ret

Disassembly of section .text.__am_audio_read:

0000000080008aa4 <__am_audio_read>:
    80008aa4:	fd010113          	addi	sp,sp,-48
    80008aa8:	02813423          	sd	s0,40(sp)
    80008aac:	03010413          	addi	s0,sp,48
    80008ab0:	fea43423          	sd	a0,-24(s0)
    80008ab4:	feb43023          	sd	a1,-32(s0)
    80008ab8:	fcc43c23          	sd	a2,-40(s0)
    80008abc:	00000793          	li	a5,0
    80008ac0:	00078513          	mv	a0,a5
    80008ac4:	02813403          	ld	s0,40(sp)
    80008ac8:	03010113          	addi	sp,sp,48
    80008acc:	00008067          	ret

Disassembly of section .text._out_null:

0000000080008ad0 <_out_null>:
    80008ad0:	fd010113          	addi	sp,sp,-48
    80008ad4:	02813423          	sd	s0,40(sp)
    80008ad8:	03010413          	addi	s0,sp,48
    80008adc:	00050793          	mv	a5,a0
    80008ae0:	feb43023          	sd	a1,-32(s0)
    80008ae4:	fcc43c23          	sd	a2,-40(s0)
    80008ae8:	fcd43823          	sd	a3,-48(s0)
    80008aec:	fef407a3          	sb	a5,-17(s0)
    80008af0:	00000013          	nop
    80008af4:	02813403          	ld	s0,40(sp)
    80008af8:	03010113          	addi	sp,sp,48
    80008afc:	00008067          	ret

Disassembly of section .text._out_char:

0000000080008b00 <_out_char>:
    80008b00:	fd010113          	addi	sp,sp,-48
    80008b04:	02113423          	sd	ra,40(sp)
    80008b08:	02813023          	sd	s0,32(sp)
    80008b0c:	03010413          	addi	s0,sp,48
    80008b10:	00050793          	mv	a5,a0
    80008b14:	feb43023          	sd	a1,-32(s0)
    80008b18:	fcc43c23          	sd	a2,-40(s0)
    80008b1c:	fcd43823          	sd	a3,-48(s0)
    80008b20:	fef407a3          	sb	a5,-17(s0)
    80008b24:	fef44783          	lbu	a5,-17(s0)
    80008b28:	0ff7f793          	zext.b	a5,a5
    80008b2c:	00078863          	beqz	a5,80008b3c <_out_char+0x3c>
    80008b30:	fef44783          	lbu	a5,-17(s0)
    80008b34:	00078513          	mv	a0,a5
    80008b38:	f74ff0ef          	jal	ra,800082ac <_putc>
    80008b3c:	00000013          	nop
    80008b40:	02813083          	ld	ra,40(sp)
    80008b44:	02013403          	ld	s0,32(sp)
    80008b48:	03010113          	addi	sp,sp,48
    80008b4c:	00008067          	ret

Disassembly of section .text._strnlen_s:

0000000080008b50 <_strnlen_s>:
    80008b50:	fd010113          	addi	sp,sp,-48
    80008b54:	02813423          	sd	s0,40(sp)
    80008b58:	03010413          	addi	s0,sp,48
    80008b5c:	fca43c23          	sd	a0,-40(s0)
    80008b60:	fcb43823          	sd	a1,-48(s0)
    80008b64:	fd843783          	ld	a5,-40(s0)
    80008b68:	fef43423          	sd	a5,-24(s0)
    80008b6c:	0100006f          	j	80008b7c <_strnlen_s+0x2c>
    80008b70:	fe843783          	ld	a5,-24(s0)
    80008b74:	00178793          	addi	a5,a5,1
    80008b78:	fef43423          	sd	a5,-24(s0)
    80008b7c:	fe843783          	ld	a5,-24(s0)
    80008b80:	0007c783          	lbu	a5,0(a5)
    80008b84:	00078a63          	beqz	a5,80008b98 <_strnlen_s+0x48>
    80008b88:	fd043783          	ld	a5,-48(s0)
    80008b8c:	fff78713          	addi	a4,a5,-1
    80008b90:	fce43823          	sd	a4,-48(s0)
    80008b94:	fc079ee3          	bnez	a5,80008b70 <_strnlen_s+0x20>
    80008b98:	fe843703          	ld	a4,-24(s0)
    80008b9c:	fd843783          	ld	a5,-40(s0)
    80008ba0:	40f707b3          	sub	a5,a4,a5
    80008ba4:	0007879b          	sext.w	a5,a5
    80008ba8:	00078513          	mv	a0,a5
    80008bac:	02813403          	ld	s0,40(sp)
    80008bb0:	03010113          	addi	sp,sp,48
    80008bb4:	00008067          	ret

Disassembly of section .text._is_digit:

0000000080008bb8 <_is_digit>:
    80008bb8:	fe010113          	addi	sp,sp,-32
    80008bbc:	00813c23          	sd	s0,24(sp)
    80008bc0:	02010413          	addi	s0,sp,32
    80008bc4:	00050793          	mv	a5,a0
    80008bc8:	fef407a3          	sb	a5,-17(s0)
    80008bcc:	fef44783          	lbu	a5,-17(s0)
    80008bd0:	0ff7f713          	zext.b	a4,a5
    80008bd4:	02f00793          	li	a5,47
    80008bd8:	00e7fe63          	bgeu	a5,a4,80008bf4 <_is_digit+0x3c>
    80008bdc:	fef44783          	lbu	a5,-17(s0)
    80008be0:	0ff7f713          	zext.b	a4,a5
    80008be4:	03900793          	li	a5,57
    80008be8:	00e7e663          	bltu	a5,a4,80008bf4 <_is_digit+0x3c>
    80008bec:	00100793          	li	a5,1
    80008bf0:	0080006f          	j	80008bf8 <_is_digit+0x40>
    80008bf4:	00000793          	li	a5,0
    80008bf8:	0017f793          	andi	a5,a5,1
    80008bfc:	0ff7f793          	zext.b	a5,a5
    80008c00:	00078513          	mv	a0,a5
    80008c04:	01813403          	ld	s0,24(sp)
    80008c08:	02010113          	addi	sp,sp,32
    80008c0c:	00008067          	ret

Disassembly of section .text._atoi:

0000000080008c10 <_atoi>:
    80008c10:	fd010113          	addi	sp,sp,-48
    80008c14:	02113423          	sd	ra,40(sp)
    80008c18:	02813023          	sd	s0,32(sp)
    80008c1c:	03010413          	addi	s0,sp,48
    80008c20:	fca43c23          	sd	a0,-40(s0)
    80008c24:	fe042623          	sw	zero,-20(s0)
    80008c28:	0480006f          	j	80008c70 <_atoi+0x60>
    80008c2c:	fec42703          	lw	a4,-20(s0)
    80008c30:	00070793          	mv	a5,a4
    80008c34:	0027979b          	slliw	a5,a5,0x2
    80008c38:	00e787bb          	addw	a5,a5,a4
    80008c3c:	0017979b          	slliw	a5,a5,0x1
    80008c40:	0007871b          	sext.w	a4,a5
    80008c44:	fd843783          	ld	a5,-40(s0)
    80008c48:	0007b783          	ld	a5,0(a5)
    80008c4c:	00178613          	addi	a2,a5,1
    80008c50:	fd843683          	ld	a3,-40(s0)
    80008c54:	00c6b023          	sd	a2,0(a3)
    80008c58:	0007c783          	lbu	a5,0(a5)
    80008c5c:	0007879b          	sext.w	a5,a5
    80008c60:	00f707bb          	addw	a5,a4,a5
    80008c64:	0007879b          	sext.w	a5,a5
    80008c68:	fd07879b          	addiw	a5,a5,-48
    80008c6c:	fef42623          	sw	a5,-20(s0)
    80008c70:	fd843783          	ld	a5,-40(s0)
    80008c74:	0007b783          	ld	a5,0(a5)
    80008c78:	0007c783          	lbu	a5,0(a5)
    80008c7c:	00078513          	mv	a0,a5
    80008c80:	f39ff0ef          	jal	ra,80008bb8 <_is_digit>
    80008c84:	00050793          	mv	a5,a0
    80008c88:	fa0792e3          	bnez	a5,80008c2c <_atoi+0x1c>
    80008c8c:	fec42783          	lw	a5,-20(s0)
    80008c90:	00078513          	mv	a0,a5
    80008c94:	02813083          	ld	ra,40(sp)
    80008c98:	02013403          	ld	s0,32(sp)
    80008c9c:	03010113          	addi	sp,sp,48
    80008ca0:	00008067          	ret

Disassembly of section .text._out_rev:

0000000080008ca4 <_out_rev>:
    80008ca4:	fa010113          	addi	sp,sp,-96
    80008ca8:	04113c23          	sd	ra,88(sp)
    80008cac:	04813823          	sd	s0,80(sp)
    80008cb0:	06010413          	addi	s0,sp,96
    80008cb4:	fca43c23          	sd	a0,-40(s0)
    80008cb8:	fcb43823          	sd	a1,-48(s0)
    80008cbc:	fcc43423          	sd	a2,-56(s0)
    80008cc0:	fcd43023          	sd	a3,-64(s0)
    80008cc4:	fae43c23          	sd	a4,-72(s0)
    80008cc8:	faf43823          	sd	a5,-80(s0)
    80008ccc:	00080793          	mv	a5,a6
    80008cd0:	00088713          	mv	a4,a7
    80008cd4:	faf42623          	sw	a5,-84(s0)
    80008cd8:	00070793          	mv	a5,a4
    80008cdc:	faf42423          	sw	a5,-88(s0)
    80008ce0:	fc843783          	ld	a5,-56(s0)
    80008ce4:	fef43023          	sd	a5,-32(s0)
    80008ce8:	fa842783          	lw	a5,-88(s0)
    80008cec:	0027f793          	andi	a5,a5,2
    80008cf0:	0007879b          	sext.w	a5,a5
    80008cf4:	08079e63          	bnez	a5,80008d90 <_out_rev+0xec>
    80008cf8:	fa842783          	lw	a5,-88(s0)
    80008cfc:	0017f793          	andi	a5,a5,1
    80008d00:	0007879b          	sext.w	a5,a5
    80008d04:	08079663          	bnez	a5,80008d90 <_out_rev+0xec>
    80008d08:	fb043783          	ld	a5,-80(s0)
    80008d0c:	fef43423          	sd	a5,-24(s0)
    80008d10:	0340006f          	j	80008d44 <_out_rev+0xa0>
    80008d14:	fc843783          	ld	a5,-56(s0)
    80008d18:	00178713          	addi	a4,a5,1
    80008d1c:	fce43423          	sd	a4,-56(s0)
    80008d20:	fd843703          	ld	a4,-40(s0)
    80008d24:	fc043683          	ld	a3,-64(s0)
    80008d28:	00078613          	mv	a2,a5
    80008d2c:	fd043583          	ld	a1,-48(s0)
    80008d30:	02000513          	li	a0,32
    80008d34:	000700e7          	jalr	a4
    80008d38:	fe843783          	ld	a5,-24(s0)
    80008d3c:	00178793          	addi	a5,a5,1
    80008d40:	fef43423          	sd	a5,-24(s0)
    80008d44:	fac46783          	lwu	a5,-84(s0)
    80008d48:	fe843703          	ld	a4,-24(s0)
    80008d4c:	fcf764e3          	bltu	a4,a5,80008d14 <_out_rev+0x70>
    80008d50:	0400006f          	j	80008d90 <_out_rev+0xec>
    80008d54:	fb043783          	ld	a5,-80(s0)
    80008d58:	fff78793          	addi	a5,a5,-1
    80008d5c:	faf43823          	sd	a5,-80(s0)
    80008d60:	fb843703          	ld	a4,-72(s0)
    80008d64:	fb043783          	ld	a5,-80(s0)
    80008d68:	00f707b3          	add	a5,a4,a5
    80008d6c:	0007c503          	lbu	a0,0(a5)
    80008d70:	fc843783          	ld	a5,-56(s0)
    80008d74:	00178713          	addi	a4,a5,1
    80008d78:	fce43423          	sd	a4,-56(s0)
    80008d7c:	fd843703          	ld	a4,-40(s0)
    80008d80:	fc043683          	ld	a3,-64(s0)
    80008d84:	00078613          	mv	a2,a5
    80008d88:	fd043583          	ld	a1,-48(s0)
    80008d8c:	000700e7          	jalr	a4
    80008d90:	fb043783          	ld	a5,-80(s0)
    80008d94:	fc0790e3          	bnez	a5,80008d54 <_out_rev+0xb0>
    80008d98:	fa842783          	lw	a5,-88(s0)
    80008d9c:	0027f793          	andi	a5,a5,2
    80008da0:	0007879b          	sext.w	a5,a5
    80008da4:	04078063          	beqz	a5,80008de4 <_out_rev+0x140>
    80008da8:	0280006f          	j	80008dd0 <_out_rev+0x12c>
    80008dac:	fc843783          	ld	a5,-56(s0)
    80008db0:	00178713          	addi	a4,a5,1
    80008db4:	fce43423          	sd	a4,-56(s0)
    80008db8:	fd843703          	ld	a4,-40(s0)
    80008dbc:	fc043683          	ld	a3,-64(s0)
    80008dc0:	00078613          	mv	a2,a5
    80008dc4:	fd043583          	ld	a1,-48(s0)
    80008dc8:	02000513          	li	a0,32
    80008dcc:	000700e7          	jalr	a4
    80008dd0:	fc843703          	ld	a4,-56(s0)
    80008dd4:	fe043783          	ld	a5,-32(s0)
    80008dd8:	40f70733          	sub	a4,a4,a5
    80008ddc:	fac46783          	lwu	a5,-84(s0)
    80008de0:	fcf766e3          	bltu	a4,a5,80008dac <_out_rev+0x108>
    80008de4:	fc843783          	ld	a5,-56(s0)
    80008de8:	00078513          	mv	a0,a5
    80008dec:	05813083          	ld	ra,88(sp)
    80008df0:	05013403          	ld	s0,80(sp)
    80008df4:	06010113          	addi	sp,sp,96
    80008df8:	00008067          	ret

Disassembly of section .text._ntoa_format:

0000000080008dfc <_ntoa_format>:
    80008dfc:	fb010113          	addi	sp,sp,-80
    80008e00:	04113423          	sd	ra,72(sp)
    80008e04:	04813023          	sd	s0,64(sp)
    80008e08:	05010413          	addi	s0,sp,80
    80008e0c:	fea43423          	sd	a0,-24(s0)
    80008e10:	feb43023          	sd	a1,-32(s0)
    80008e14:	fcc43c23          	sd	a2,-40(s0)
    80008e18:	fcd43823          	sd	a3,-48(s0)
    80008e1c:	fce43423          	sd	a4,-56(s0)
    80008e20:	fcf43023          	sd	a5,-64(s0)
    80008e24:	00080793          	mv	a5,a6
    80008e28:	00088713          	mv	a4,a7
    80008e2c:	faf40fa3          	sb	a5,-65(s0)
    80008e30:	00070793          	mv	a5,a4
    80008e34:	faf42c23          	sw	a5,-72(s0)
    80008e38:	01042783          	lw	a5,16(s0)
    80008e3c:	0027f793          	andi	a5,a5,2
    80008e40:	0007879b          	sext.w	a5,a5
    80008e44:	0c079463          	bnez	a5,80008f0c <_ntoa_format+0x110>
    80008e48:	00842783          	lw	a5,8(s0)
    80008e4c:	0007879b          	sext.w	a5,a5
    80008e50:	04078e63          	beqz	a5,80008eac <_ntoa_format+0xb0>
    80008e54:	01042783          	lw	a5,16(s0)
    80008e58:	0017f793          	andi	a5,a5,1
    80008e5c:	0007879b          	sext.w	a5,a5
    80008e60:	04078663          	beqz	a5,80008eac <_ntoa_format+0xb0>
    80008e64:	fbf44783          	lbu	a5,-65(s0)
    80008e68:	0ff7f793          	zext.b	a5,a5
    80008e6c:	00079a63          	bnez	a5,80008e80 <_ntoa_format+0x84>
    80008e70:	01042783          	lw	a5,16(s0)
    80008e74:	00c7f793          	andi	a5,a5,12
    80008e78:	0007879b          	sext.w	a5,a5
    80008e7c:	02078863          	beqz	a5,80008eac <_ntoa_format+0xb0>
    80008e80:	00842783          	lw	a5,8(s0)
    80008e84:	fff7879b          	addiw	a5,a5,-1
    80008e88:	00f42423          	sw	a5,8(s0)
    80008e8c:	0200006f          	j	80008eac <_ntoa_format+0xb0>
    80008e90:	fc043783          	ld	a5,-64(s0)
    80008e94:	00178713          	addi	a4,a5,1
    80008e98:	fce43023          	sd	a4,-64(s0)
    80008e9c:	fc843703          	ld	a4,-56(s0)
    80008ea0:	00f707b3          	add	a5,a4,a5
    80008ea4:	03000713          	li	a4,48
    80008ea8:	00e78023          	sb	a4,0(a5)
    80008eac:	00046783          	lwu	a5,0(s0)
    80008eb0:	fc043703          	ld	a4,-64(s0)
    80008eb4:	02f77863          	bgeu	a4,a5,80008ee4 <_ntoa_format+0xe8>
    80008eb8:	fc043703          	ld	a4,-64(s0)
    80008ebc:	01f00793          	li	a5,31
    80008ec0:	fce7f8e3          	bgeu	a5,a4,80008e90 <_ntoa_format+0x94>
    80008ec4:	0200006f          	j	80008ee4 <_ntoa_format+0xe8>
    80008ec8:	fc043783          	ld	a5,-64(s0)
    80008ecc:	00178713          	addi	a4,a5,1
    80008ed0:	fce43023          	sd	a4,-64(s0)
    80008ed4:	fc843703          	ld	a4,-56(s0)
    80008ed8:	00f707b3          	add	a5,a4,a5
    80008edc:	03000713          	li	a4,48
    80008ee0:	00e78023          	sb	a4,0(a5)
    80008ee4:	01042783          	lw	a5,16(s0)
    80008ee8:	0017f793          	andi	a5,a5,1
    80008eec:	0007879b          	sext.w	a5,a5
    80008ef0:	00078e63          	beqz	a5,80008f0c <_ntoa_format+0x110>
    80008ef4:	00846783          	lwu	a5,8(s0)
    80008ef8:	fc043703          	ld	a4,-64(s0)
    80008efc:	00f77863          	bgeu	a4,a5,80008f0c <_ntoa_format+0x110>
    80008f00:	fc043703          	ld	a4,-64(s0)
    80008f04:	01f00793          	li	a5,31
    80008f08:	fce7f0e3          	bgeu	a5,a4,80008ec8 <_ntoa_format+0xcc>
    80008f0c:	01042783          	lw	a5,16(s0)
    80008f10:	0107f793          	andi	a5,a5,16
    80008f14:	0007879b          	sext.w	a5,a5
    80008f18:	14078e63          	beqz	a5,80009074 <_ntoa_format+0x278>
    80008f1c:	01042783          	lw	a5,16(s0)
    80008f20:	4007f793          	andi	a5,a5,1024
    80008f24:	0007879b          	sext.w	a5,a5
    80008f28:	04079a63          	bnez	a5,80008f7c <_ntoa_format+0x180>
    80008f2c:	fc043783          	ld	a5,-64(s0)
    80008f30:	04078663          	beqz	a5,80008f7c <_ntoa_format+0x180>
    80008f34:	00046783          	lwu	a5,0(s0)
    80008f38:	fc043703          	ld	a4,-64(s0)
    80008f3c:	00f70863          	beq	a4,a5,80008f4c <_ntoa_format+0x150>
    80008f40:	00846783          	lwu	a5,8(s0)
    80008f44:	fc043703          	ld	a4,-64(s0)
    80008f48:	02f71a63          	bne	a4,a5,80008f7c <_ntoa_format+0x180>
    80008f4c:	fc043783          	ld	a5,-64(s0)
    80008f50:	fff78793          	addi	a5,a5,-1
    80008f54:	fcf43023          	sd	a5,-64(s0)
    80008f58:	fc043783          	ld	a5,-64(s0)
    80008f5c:	02078063          	beqz	a5,80008f7c <_ntoa_format+0x180>
    80008f60:	fb842783          	lw	a5,-72(s0)
    80008f64:	0007871b          	sext.w	a4,a5
    80008f68:	01000793          	li	a5,16
    80008f6c:	00f71863          	bne	a4,a5,80008f7c <_ntoa_format+0x180>
    80008f70:	fc043783          	ld	a5,-64(s0)
    80008f74:	fff78793          	addi	a5,a5,-1
    80008f78:	fcf43023          	sd	a5,-64(s0)
    80008f7c:	fb842783          	lw	a5,-72(s0)
    80008f80:	0007871b          	sext.w	a4,a5
    80008f84:	01000793          	li	a5,16
    80008f88:	04f71063          	bne	a4,a5,80008fc8 <_ntoa_format+0x1cc>
    80008f8c:	01042783          	lw	a5,16(s0)
    80008f90:	0207f793          	andi	a5,a5,32
    80008f94:	0007879b          	sext.w	a5,a5
    80008f98:	02079863          	bnez	a5,80008fc8 <_ntoa_format+0x1cc>
    80008f9c:	fc043703          	ld	a4,-64(s0)
    80008fa0:	01f00793          	li	a5,31
    80008fa4:	02e7e263          	bltu	a5,a4,80008fc8 <_ntoa_format+0x1cc>
    80008fa8:	fc043783          	ld	a5,-64(s0)
    80008fac:	00178713          	addi	a4,a5,1
    80008fb0:	fce43023          	sd	a4,-64(s0)
    80008fb4:	fc843703          	ld	a4,-56(s0)
    80008fb8:	00f707b3          	add	a5,a4,a5
    80008fbc:	07800713          	li	a4,120
    80008fc0:	00e78023          	sb	a4,0(a5)
    80008fc4:	0880006f          	j	8000904c <_ntoa_format+0x250>
    80008fc8:	fb842783          	lw	a5,-72(s0)
    80008fcc:	0007871b          	sext.w	a4,a5
    80008fd0:	01000793          	li	a5,16
    80008fd4:	04f71063          	bne	a4,a5,80009014 <_ntoa_format+0x218>
    80008fd8:	01042783          	lw	a5,16(s0)
    80008fdc:	0207f793          	andi	a5,a5,32
    80008fe0:	0007879b          	sext.w	a5,a5
    80008fe4:	02078863          	beqz	a5,80009014 <_ntoa_format+0x218>
    80008fe8:	fc043703          	ld	a4,-64(s0)
    80008fec:	01f00793          	li	a5,31
    80008ff0:	02e7e263          	bltu	a5,a4,80009014 <_ntoa_format+0x218>
    80008ff4:	fc043783          	ld	a5,-64(s0)
    80008ff8:	00178713          	addi	a4,a5,1
    80008ffc:	fce43023          	sd	a4,-64(s0)
    80009000:	fc843703          	ld	a4,-56(s0)
    80009004:	00f707b3          	add	a5,a4,a5
    80009008:	05800713          	li	a4,88
    8000900c:	00e78023          	sb	a4,0(a5)
    80009010:	03c0006f          	j	8000904c <_ntoa_format+0x250>
    80009014:	fb842783          	lw	a5,-72(s0)
    80009018:	0007871b          	sext.w	a4,a5
    8000901c:	00200793          	li	a5,2
    80009020:	02f71663          	bne	a4,a5,8000904c <_ntoa_format+0x250>
    80009024:	fc043703          	ld	a4,-64(s0)
    80009028:	01f00793          	li	a5,31
    8000902c:	02e7e063          	bltu	a5,a4,8000904c <_ntoa_format+0x250>
    80009030:	fc043783          	ld	a5,-64(s0)
    80009034:	00178713          	addi	a4,a5,1
    80009038:	fce43023          	sd	a4,-64(s0)
    8000903c:	fc843703          	ld	a4,-56(s0)
    80009040:	00f707b3          	add	a5,a4,a5
    80009044:	06200713          	li	a4,98
    80009048:	00e78023          	sb	a4,0(a5)
    8000904c:	fc043703          	ld	a4,-64(s0)
    80009050:	01f00793          	li	a5,31
    80009054:	02e7e063          	bltu	a5,a4,80009074 <_ntoa_format+0x278>
    80009058:	fc043783          	ld	a5,-64(s0)
    8000905c:	00178713          	addi	a4,a5,1
    80009060:	fce43023          	sd	a4,-64(s0)
    80009064:	fc843703          	ld	a4,-56(s0)
    80009068:	00f707b3          	add	a5,a4,a5
    8000906c:	03000713          	li	a4,48
    80009070:	00e78023          	sb	a4,0(a5)
    80009074:	fc043703          	ld	a4,-64(s0)
    80009078:	01f00793          	li	a5,31
    8000907c:	08e7e663          	bltu	a5,a4,80009108 <_ntoa_format+0x30c>
    80009080:	fbf44783          	lbu	a5,-65(s0)
    80009084:	0ff7f793          	zext.b	a5,a5
    80009088:	02078263          	beqz	a5,800090ac <_ntoa_format+0x2b0>
    8000908c:	fc043783          	ld	a5,-64(s0)
    80009090:	00178713          	addi	a4,a5,1
    80009094:	fce43023          	sd	a4,-64(s0)
    80009098:	fc843703          	ld	a4,-56(s0)
    8000909c:	00f707b3          	add	a5,a4,a5
    800090a0:	02d00713          	li	a4,45
    800090a4:	00e78023          	sb	a4,0(a5)
    800090a8:	0600006f          	j	80009108 <_ntoa_format+0x30c>
    800090ac:	01042783          	lw	a5,16(s0)
    800090b0:	0047f793          	andi	a5,a5,4
    800090b4:	0007879b          	sext.w	a5,a5
    800090b8:	02078263          	beqz	a5,800090dc <_ntoa_format+0x2e0>
    800090bc:	fc043783          	ld	a5,-64(s0)
    800090c0:	00178713          	addi	a4,a5,1
    800090c4:	fce43023          	sd	a4,-64(s0)
    800090c8:	fc843703          	ld	a4,-56(s0)
    800090cc:	00f707b3          	add	a5,a4,a5
    800090d0:	02b00713          	li	a4,43
    800090d4:	00e78023          	sb	a4,0(a5)
    800090d8:	0300006f          	j	80009108 <_ntoa_format+0x30c>
    800090dc:	01042783          	lw	a5,16(s0)
    800090e0:	0087f793          	andi	a5,a5,8
    800090e4:	0007879b          	sext.w	a5,a5
    800090e8:	02078063          	beqz	a5,80009108 <_ntoa_format+0x30c>
    800090ec:	fc043783          	ld	a5,-64(s0)
    800090f0:	00178713          	addi	a4,a5,1
    800090f4:	fce43023          	sd	a4,-64(s0)
    800090f8:	fc843703          	ld	a4,-56(s0)
    800090fc:	00f707b3          	add	a5,a4,a5
    80009100:	02000713          	li	a4,32
    80009104:	00e78023          	sb	a4,0(a5)
    80009108:	01042703          	lw	a4,16(s0)
    8000910c:	00842783          	lw	a5,8(s0)
    80009110:	00070893          	mv	a7,a4
    80009114:	00078813          	mv	a6,a5
    80009118:	fc043783          	ld	a5,-64(s0)
    8000911c:	fc843703          	ld	a4,-56(s0)
    80009120:	fd043683          	ld	a3,-48(s0)
    80009124:	fd843603          	ld	a2,-40(s0)
    80009128:	fe043583          	ld	a1,-32(s0)
    8000912c:	fe843503          	ld	a0,-24(s0)
    80009130:	b75ff0ef          	jal	ra,80008ca4 <_out_rev>
    80009134:	00050793          	mv	a5,a0
    80009138:	00078513          	mv	a0,a5
    8000913c:	04813083          	ld	ra,72(sp)
    80009140:	04013403          	ld	s0,64(sp)
    80009144:	05010113          	addi	sp,sp,80
    80009148:	00008067          	ret

Disassembly of section .text._ntoa_long:

000000008000914c <_ntoa_long>:
    8000914c:	f6010113          	addi	sp,sp,-160
    80009150:	08113c23          	sd	ra,152(sp)
    80009154:	08813823          	sd	s0,144(sp)
    80009158:	0a010413          	addi	s0,sp,160
    8000915c:	faa43c23          	sd	a0,-72(s0)
    80009160:	fab43823          	sd	a1,-80(s0)
    80009164:	fac43423          	sd	a2,-88(s0)
    80009168:	fad43023          	sd	a3,-96(s0)
    8000916c:	f8e43c23          	sd	a4,-104(s0)
    80009170:	f9043423          	sd	a6,-120(s0)
    80009174:	00088713          	mv	a4,a7
    80009178:	f8f40ba3          	sb	a5,-105(s0)
    8000917c:	00070793          	mv	a5,a4
    80009180:	f8f42823          	sw	a5,-112(s0)
    80009184:	fe043423          	sd	zero,-24(s0)
    80009188:	f9843783          	ld	a5,-104(s0)
    8000918c:	00079863          	bnez	a5,8000919c <_ntoa_long+0x50>
    80009190:	00842783          	lw	a5,8(s0)
    80009194:	fef7f793          	andi	a5,a5,-17
    80009198:	00f42423          	sw	a5,8(s0)
    8000919c:	00842783          	lw	a5,8(s0)
    800091a0:	4007f793          	andi	a5,a5,1024
    800091a4:	0007879b          	sext.w	a5,a5
    800091a8:	00078663          	beqz	a5,800091b4 <_ntoa_long+0x68>
    800091ac:	f9843783          	ld	a5,-104(s0)
    800091b0:	0a078063          	beqz	a5,80009250 <_ntoa_long+0x104>
    800091b4:	f9843703          	ld	a4,-104(s0)
    800091b8:	f8843783          	ld	a5,-120(s0)
    800091bc:	02f777b3          	remu	a5,a4,a5
    800091c0:	fef403a3          	sb	a5,-25(s0)
    800091c4:	fe744783          	lbu	a5,-25(s0)
    800091c8:	0ff7f713          	zext.b	a4,a5
    800091cc:	00900793          	li	a5,9
    800091d0:	00e7ea63          	bltu	a5,a4,800091e4 <_ntoa_long+0x98>
    800091d4:	fe744783          	lbu	a5,-25(s0)
    800091d8:	0307879b          	addiw	a5,a5,48
    800091dc:	0ff7f793          	zext.b	a5,a5
    800091e0:	0340006f          	j	80009214 <_ntoa_long+0xc8>
    800091e4:	00842783          	lw	a5,8(s0)
    800091e8:	0207f793          	andi	a5,a5,32
    800091ec:	0007879b          	sext.w	a5,a5
    800091f0:	00078663          	beqz	a5,800091fc <_ntoa_long+0xb0>
    800091f4:	04100793          	li	a5,65
    800091f8:	0080006f          	j	80009200 <_ntoa_long+0xb4>
    800091fc:	06100793          	li	a5,97
    80009200:	fe744703          	lbu	a4,-25(s0)
    80009204:	00e787bb          	addw	a5,a5,a4
    80009208:	0ff7f793          	zext.b	a5,a5
    8000920c:	ff67879b          	addiw	a5,a5,-10
    80009210:	0ff7f793          	zext.b	a5,a5
    80009214:	fe843703          	ld	a4,-24(s0)
    80009218:	00170693          	addi	a3,a4,1
    8000921c:	fed43423          	sd	a3,-24(s0)
    80009220:	ff040693          	addi	a3,s0,-16
    80009224:	00e68733          	add	a4,a3,a4
    80009228:	fcf70823          	sb	a5,-48(a4)
    8000922c:	f9843703          	ld	a4,-104(s0)
    80009230:	f8843783          	ld	a5,-120(s0)
    80009234:	02f757b3          	divu	a5,a4,a5
    80009238:	f8f43c23          	sd	a5,-104(s0)
    8000923c:	f9843783          	ld	a5,-104(s0)
    80009240:	00078863          	beqz	a5,80009250 <_ntoa_long+0x104>
    80009244:	fe843703          	ld	a4,-24(s0)
    80009248:	01f00793          	li	a5,31
    8000924c:	f6e7f4e3          	bgeu	a5,a4,800091b4 <_ntoa_long+0x68>
    80009250:	f8843783          	ld	a5,-120(s0)
    80009254:	0007861b          	sext.w	a2,a5
    80009258:	f9744683          	lbu	a3,-105(s0)
    8000925c:	fc040713          	addi	a4,s0,-64
    80009260:	00842783          	lw	a5,8(s0)
    80009264:	00f13823          	sd	a5,16(sp)
    80009268:	00042783          	lw	a5,0(s0)
    8000926c:	00f13423          	sd	a5,8(sp)
    80009270:	f9042783          	lw	a5,-112(s0)
    80009274:	00f13023          	sd	a5,0(sp)
    80009278:	00060893          	mv	a7,a2
    8000927c:	00068813          	mv	a6,a3
    80009280:	fe843783          	ld	a5,-24(s0)
    80009284:	fa043683          	ld	a3,-96(s0)
    80009288:	fa843603          	ld	a2,-88(s0)
    8000928c:	fb043583          	ld	a1,-80(s0)
    80009290:	fb843503          	ld	a0,-72(s0)
    80009294:	b69ff0ef          	jal	ra,80008dfc <_ntoa_format>
    80009298:	00050793          	mv	a5,a0
    8000929c:	00078513          	mv	a0,a5
    800092a0:	09813083          	ld	ra,152(sp)
    800092a4:	09013403          	ld	s0,144(sp)
    800092a8:	0a010113          	addi	sp,sp,160
    800092ac:	00008067          	ret

Disassembly of section .text._ntoa_long_long:

00000000800092b0 <_ntoa_long_long>:
    800092b0:	f6010113          	addi	sp,sp,-160
    800092b4:	08113c23          	sd	ra,152(sp)
    800092b8:	08813823          	sd	s0,144(sp)
    800092bc:	0a010413          	addi	s0,sp,160
    800092c0:	faa43c23          	sd	a0,-72(s0)
    800092c4:	fab43823          	sd	a1,-80(s0)
    800092c8:	fac43423          	sd	a2,-88(s0)
    800092cc:	fad43023          	sd	a3,-96(s0)
    800092d0:	f8e43c23          	sd	a4,-104(s0)
    800092d4:	f9043423          	sd	a6,-120(s0)
    800092d8:	00088713          	mv	a4,a7
    800092dc:	f8f40ba3          	sb	a5,-105(s0)
    800092e0:	00070793          	mv	a5,a4
    800092e4:	f8f42823          	sw	a5,-112(s0)
    800092e8:	fe043423          	sd	zero,-24(s0)
    800092ec:	f9843783          	ld	a5,-104(s0)
    800092f0:	00079863          	bnez	a5,80009300 <_ntoa_long_long+0x50>
    800092f4:	00842783          	lw	a5,8(s0)
    800092f8:	fef7f793          	andi	a5,a5,-17
    800092fc:	00f42423          	sw	a5,8(s0)
    80009300:	00842783          	lw	a5,8(s0)
    80009304:	4007f793          	andi	a5,a5,1024
    80009308:	0007879b          	sext.w	a5,a5
    8000930c:	00078663          	beqz	a5,80009318 <_ntoa_long_long+0x68>
    80009310:	f9843783          	ld	a5,-104(s0)
    80009314:	0a078063          	beqz	a5,800093b4 <_ntoa_long_long+0x104>
    80009318:	f9843703          	ld	a4,-104(s0)
    8000931c:	f8843783          	ld	a5,-120(s0)
    80009320:	02f777b3          	remu	a5,a4,a5
    80009324:	fef403a3          	sb	a5,-25(s0)
    80009328:	fe744783          	lbu	a5,-25(s0)
    8000932c:	0ff7f713          	zext.b	a4,a5
    80009330:	00900793          	li	a5,9
    80009334:	00e7ea63          	bltu	a5,a4,80009348 <_ntoa_long_long+0x98>
    80009338:	fe744783          	lbu	a5,-25(s0)
    8000933c:	0307879b          	addiw	a5,a5,48
    80009340:	0ff7f793          	zext.b	a5,a5
    80009344:	0340006f          	j	80009378 <_ntoa_long_long+0xc8>
    80009348:	00842783          	lw	a5,8(s0)
    8000934c:	0207f793          	andi	a5,a5,32
    80009350:	0007879b          	sext.w	a5,a5
    80009354:	00078663          	beqz	a5,80009360 <_ntoa_long_long+0xb0>
    80009358:	04100793          	li	a5,65
    8000935c:	0080006f          	j	80009364 <_ntoa_long_long+0xb4>
    80009360:	06100793          	li	a5,97
    80009364:	fe744703          	lbu	a4,-25(s0)
    80009368:	00e787bb          	addw	a5,a5,a4
    8000936c:	0ff7f793          	zext.b	a5,a5
    80009370:	ff67879b          	addiw	a5,a5,-10
    80009374:	0ff7f793          	zext.b	a5,a5
    80009378:	fe843703          	ld	a4,-24(s0)
    8000937c:	00170693          	addi	a3,a4,1
    80009380:	fed43423          	sd	a3,-24(s0)
    80009384:	ff040693          	addi	a3,s0,-16
    80009388:	00e68733          	add	a4,a3,a4
    8000938c:	fcf70823          	sb	a5,-48(a4)
    80009390:	f9843703          	ld	a4,-104(s0)
    80009394:	f8843783          	ld	a5,-120(s0)
    80009398:	02f757b3          	divu	a5,a4,a5
    8000939c:	f8f43c23          	sd	a5,-104(s0)
    800093a0:	f9843783          	ld	a5,-104(s0)
    800093a4:	00078863          	beqz	a5,800093b4 <_ntoa_long_long+0x104>
    800093a8:	fe843703          	ld	a4,-24(s0)
    800093ac:	01f00793          	li	a5,31
    800093b0:	f6e7f4e3          	bgeu	a5,a4,80009318 <_ntoa_long_long+0x68>
    800093b4:	f8843783          	ld	a5,-120(s0)
    800093b8:	0007861b          	sext.w	a2,a5
    800093bc:	f9744683          	lbu	a3,-105(s0)
    800093c0:	fc040713          	addi	a4,s0,-64
    800093c4:	00842783          	lw	a5,8(s0)
    800093c8:	00f13823          	sd	a5,16(sp)
    800093cc:	00042783          	lw	a5,0(s0)
    800093d0:	00f13423          	sd	a5,8(sp)
    800093d4:	f9042783          	lw	a5,-112(s0)
    800093d8:	00f13023          	sd	a5,0(sp)
    800093dc:	00060893          	mv	a7,a2
    800093e0:	00068813          	mv	a6,a3
    800093e4:	fe843783          	ld	a5,-24(s0)
    800093e8:	fa043683          	ld	a3,-96(s0)
    800093ec:	fa843603          	ld	a2,-88(s0)
    800093f0:	fb043583          	ld	a1,-80(s0)
    800093f4:	fb843503          	ld	a0,-72(s0)
    800093f8:	a05ff0ef          	jal	ra,80008dfc <_ntoa_format>
    800093fc:	00050793          	mv	a5,a0
    80009400:	00078513          	mv	a0,a5
    80009404:	09813083          	ld	ra,152(sp)
    80009408:	09013403          	ld	s0,144(sp)
    8000940c:	0a010113          	addi	sp,sp,160
    80009410:	00008067          	ret

Disassembly of section .text._ftoa:

0000000080009414 <_ftoa>:
    80009414:	f6010113          	addi	sp,sp,-160
    80009418:	08113c23          	sd	ra,152(sp)
    8000941c:	08813823          	sd	s0,144(sp)
    80009420:	0a010413          	addi	s0,sp,160
    80009424:	f8a43c23          	sd	a0,-104(s0)
    80009428:	f8b43823          	sd	a1,-112(s0)
    8000942c:	f8c43423          	sd	a2,-120(s0)
    80009430:	f8d43023          	sd	a3,-128(s0)
    80009434:	f6a43c27          	fsd	fa0,-136(s0)
    80009438:	00070613          	mv	a2,a4
    8000943c:	00078693          	mv	a3,a5
    80009440:	00080713          	mv	a4,a6
    80009444:	00060793          	mv	a5,a2
    80009448:	f6f42a23          	sw	a5,-140(s0)
    8000944c:	00068793          	mv	a5,a3
    80009450:	f6f42823          	sw	a5,-144(s0)
    80009454:	00070793          	mv	a5,a4
    80009458:	f6f42623          	sw	a5,-148(s0)
    8000945c:	fe043423          	sd	zero,-24(s0)
    80009460:	fc043423          	sd	zero,-56(s0)
    80009464:	f7843707          	fld	fa4,-136(s0)
    80009468:	f7843787          	fld	fa5,-136(s0)
    8000946c:	a2f727d3          	feq.d	a5,fa4,fa5
    80009470:	02079e63          	bnez	a5,800094ac <_ftoa+0x98>
    80009474:	f6c42703          	lw	a4,-148(s0)
    80009478:	f7042783          	lw	a5,-144(s0)
    8000947c:	00070893          	mv	a7,a4
    80009480:	00078813          	mv	a6,a5
    80009484:	00300793          	li	a5,3
    80009488:	00002717          	auipc	a4,0x2
    8000948c:	4a070713          	addi	a4,a4,1184 # 8000b928 <__am_mainargs+0x3>
    80009490:	f8043683          	ld	a3,-128(s0)
    80009494:	f8843603          	ld	a2,-120(s0)
    80009498:	f9043583          	ld	a1,-112(s0)
    8000949c:	f9843503          	ld	a0,-104(s0)
    800094a0:	805ff0ef          	jal	ra,80008ca4 <_out_rev>
    800094a4:	00050793          	mv	a5,a0
    800094a8:	5c80006f          	j	80009a70 <_ftoa+0x65c>
    800094ac:	f7843707          	fld	fa4,-136(s0)
    800094b0:	00002797          	auipc	a5,0x2
    800094b4:	49878793          	addi	a5,a5,1176 # 8000b948 <__am_mainargs+0x23>
    800094b8:	0007b787          	fld	fa5,0(a5)
    800094bc:	a2f717d3          	flt.d	a5,fa4,fa5
    800094c0:	02078e63          	beqz	a5,800094fc <_ftoa+0xe8>
    800094c4:	f6c42703          	lw	a4,-148(s0)
    800094c8:	f7042783          	lw	a5,-144(s0)
    800094cc:	00070893          	mv	a7,a4
    800094d0:	00078813          	mv	a6,a5
    800094d4:	00400793          	li	a5,4
    800094d8:	00002717          	auipc	a4,0x2
    800094dc:	45870713          	addi	a4,a4,1112 # 8000b930 <__am_mainargs+0xb>
    800094e0:	f8043683          	ld	a3,-128(s0)
    800094e4:	f8843603          	ld	a2,-120(s0)
    800094e8:	f9043583          	ld	a1,-112(s0)
    800094ec:	f9843503          	ld	a0,-104(s0)
    800094f0:	fb4ff0ef          	jal	ra,80008ca4 <_out_rev>
    800094f4:	00050793          	mv	a5,a0
    800094f8:	5780006f          	j	80009a70 <_ftoa+0x65c>
    800094fc:	f7843707          	fld	fa4,-136(s0)
    80009500:	00002797          	auipc	a5,0x2
    80009504:	45078793          	addi	a5,a5,1104 # 8000b950 <__am_mainargs+0x2b>
    80009508:	0007b787          	fld	fa5,0(a5)
    8000950c:	a2e797d3          	flt.d	a5,fa5,fa4
    80009510:	06078863          	beqz	a5,80009580 <_ftoa+0x16c>
    80009514:	f6c42783          	lw	a5,-148(s0)
    80009518:	0047f793          	andi	a5,a5,4
    8000951c:	0007879b          	sext.w	a5,a5
    80009520:	00078863          	beqz	a5,80009530 <_ftoa+0x11c>
    80009524:	00002717          	auipc	a4,0x2
    80009528:	41470713          	addi	a4,a4,1044 # 8000b938 <__am_mainargs+0x13>
    8000952c:	00c0006f          	j	80009538 <_ftoa+0x124>
    80009530:	00002717          	auipc	a4,0x2
    80009534:	41070713          	addi	a4,a4,1040 # 8000b940 <__am_mainargs+0x1b>
    80009538:	f6c42783          	lw	a5,-148(s0)
    8000953c:	0047f793          	andi	a5,a5,4
    80009540:	0007879b          	sext.w	a5,a5
    80009544:	00078663          	beqz	a5,80009550 <_ftoa+0x13c>
    80009548:	00400793          	li	a5,4
    8000954c:	0080006f          	j	80009554 <_ftoa+0x140>
    80009550:	00300793          	li	a5,3
    80009554:	f6c42603          	lw	a2,-148(s0)
    80009558:	f7042683          	lw	a3,-144(s0)
    8000955c:	00060893          	mv	a7,a2
    80009560:	00068813          	mv	a6,a3
    80009564:	f8043683          	ld	a3,-128(s0)
    80009568:	f8843603          	ld	a2,-120(s0)
    8000956c:	f9043583          	ld	a1,-112(s0)
    80009570:	f9843503          	ld	a0,-104(s0)
    80009574:	f30ff0ef          	jal	ra,80008ca4 <_out_rev>
    80009578:	00050793          	mv	a5,a0
    8000957c:	4f40006f          	j	80009a70 <_ftoa+0x65c>
    80009580:	f7843707          	fld	fa4,-136(s0)
    80009584:	00002797          	auipc	a5,0x2
    80009588:	3d478793          	addi	a5,a5,980 # 8000b958 <__am_mainargs+0x33>
    8000958c:	0007b787          	fld	fa5,0(a5)
    80009590:	a2e797d3          	flt.d	a5,fa5,fa4
    80009594:	00079e63          	bnez	a5,800095b0 <_ftoa+0x19c>
    80009598:	f7843707          	fld	fa4,-136(s0)
    8000959c:	00002797          	auipc	a5,0x2
    800095a0:	3c478793          	addi	a5,a5,964 # 8000b960 <__am_mainargs+0x3b>
    800095a4:	0007b787          	fld	fa5,0(a5)
    800095a8:	a2f717d3          	flt.d	a5,fa4,fa5
    800095ac:	02078a63          	beqz	a5,800095e0 <_ftoa+0x1cc>
    800095b0:	f6c42683          	lw	a3,-148(s0)
    800095b4:	f7042783          	lw	a5,-144(s0)
    800095b8:	f7442703          	lw	a4,-140(s0)
    800095bc:	00068813          	mv	a6,a3
    800095c0:	f7843507          	fld	fa0,-136(s0)
    800095c4:	f8043683          	ld	a3,-128(s0)
    800095c8:	f8843603          	ld	a2,-120(s0)
    800095cc:	f9043583          	ld	a1,-112(s0)
    800095d0:	f9843503          	ld	a0,-104(s0)
    800095d4:	4b0000ef          	jal	ra,80009a84 <_etoa>
    800095d8:	00050793          	mv	a5,a0
    800095dc:	4940006f          	j	80009a70 <_ftoa+0x65c>
    800095e0:	fe0403a3          	sb	zero,-25(s0)
    800095e4:	f7843787          	fld	fa5,-136(s0)
    800095e8:	f2000753          	fmv.d.x	fa4,zero
    800095ec:	a2e797d3          	flt.d	a5,fa5,fa4
    800095f0:	00078e63          	beqz	a5,8000960c <_ftoa+0x1f8>
    800095f4:	00100793          	li	a5,1
    800095f8:	fef403a3          	sb	a5,-25(s0)
    800095fc:	f2000753          	fmv.d.x	fa4,zero
    80009600:	f7843787          	fld	fa5,-136(s0)
    80009604:	0af777d3          	fsub.d	fa5,fa4,fa5
    80009608:	f6f43c27          	fsd	fa5,-136(s0)
    8000960c:	f6c42783          	lw	a5,-148(s0)
    80009610:	4007f793          	andi	a5,a5,1024
    80009614:	0007879b          	sext.w	a5,a5
    80009618:	02079c63          	bnez	a5,80009650 <_ftoa+0x23c>
    8000961c:	00600793          	li	a5,6
    80009620:	f6f42a23          	sw	a5,-140(s0)
    80009624:	02c0006f          	j	80009650 <_ftoa+0x23c>
    80009628:	fe843783          	ld	a5,-24(s0)
    8000962c:	00178713          	addi	a4,a5,1
    80009630:	fee43423          	sd	a4,-24(s0)
    80009634:	ff040713          	addi	a4,s0,-16
    80009638:	00f707b3          	add	a5,a4,a5
    8000963c:	03000713          	li	a4,48
    80009640:	fae78823          	sb	a4,-80(a5)
    80009644:	f7442783          	lw	a5,-140(s0)
    80009648:	fff7879b          	addiw	a5,a5,-1
    8000964c:	f6f42a23          	sw	a5,-140(s0)
    80009650:	fe843703          	ld	a4,-24(s0)
    80009654:	01f00793          	li	a5,31
    80009658:	00e7ea63          	bltu	a5,a4,8000966c <_ftoa+0x258>
    8000965c:	f7442783          	lw	a5,-140(s0)
    80009660:	0007871b          	sext.w	a4,a5
    80009664:	00900793          	li	a5,9
    80009668:	fce7e0e3          	bltu	a5,a4,80009628 <_ftoa+0x214>
    8000966c:	f7843787          	fld	fa5,-136(s0)
    80009670:	c20797d3          	fcvt.w.d	a5,fa5,rtz
    80009674:	fef42023          	sw	a5,-32(s0)
    80009678:	fe042783          	lw	a5,-32(s0)
    8000967c:	d20787d3          	fcvt.d.w	fa5,a5
    80009680:	f7843707          	fld	fa4,-136(s0)
    80009684:	0af77753          	fsub.d	fa4,fa4,fa5
    80009688:	00002717          	auipc	a4,0x2
    8000968c:	53870713          	addi	a4,a4,1336 # 8000bbc0 <pow10.0>
    80009690:	f7446783          	lwu	a5,-140(s0)
    80009694:	00379793          	slli	a5,a5,0x3
    80009698:	00f707b3          	add	a5,a4,a5
    8000969c:	0007b787          	fld	fa5,0(a5)
    800096a0:	12f777d3          	fmul.d	fa5,fa4,fa5
    800096a4:	fcf43027          	fsd	fa5,-64(s0)
    800096a8:	fc043787          	fld	fa5,-64(s0)
    800096ac:	c23797d3          	fcvt.lu.d	a5,fa5,rtz
    800096b0:	fcf43c23          	sd	a5,-40(s0)
    800096b4:	fd843783          	ld	a5,-40(s0)
    800096b8:	d237f7d3          	fcvt.d.lu	fa5,a5
    800096bc:	fc043707          	fld	fa4,-64(s0)
    800096c0:	0af777d3          	fsub.d	fa5,fa4,fa5
    800096c4:	fcf43427          	fsd	fa5,-56(s0)
    800096c8:	fc843707          	fld	fa4,-56(s0)
    800096cc:	00002797          	auipc	a5,0x2
    800096d0:	29c78793          	addi	a5,a5,668 # 8000b968 <__am_mainargs+0x43>
    800096d4:	0007b787          	fld	fa5,0(a5)
    800096d8:	a2e797d3          	flt.d	a5,fa5,fa4
    800096dc:	04078663          	beqz	a5,80009728 <_ftoa+0x314>
    800096e0:	fd843783          	ld	a5,-40(s0)
    800096e4:	00178793          	addi	a5,a5,1
    800096e8:	fcf43c23          	sd	a5,-40(s0)
    800096ec:	fd843783          	ld	a5,-40(s0)
    800096f0:	d237f753          	fcvt.d.lu	fa4,a5
    800096f4:	00002717          	auipc	a4,0x2
    800096f8:	4cc70713          	addi	a4,a4,1228 # 8000bbc0 <pow10.0>
    800096fc:	f7446783          	lwu	a5,-140(s0)
    80009700:	00379793          	slli	a5,a5,0x3
    80009704:	00f707b3          	add	a5,a4,a5
    80009708:	0007b787          	fld	fa5,0(a5)
    8000970c:	a2e787d3          	fle.d	a5,fa5,fa4
    80009710:	04078863          	beqz	a5,80009760 <_ftoa+0x34c>
    80009714:	fc043c23          	sd	zero,-40(s0)
    80009718:	fe042783          	lw	a5,-32(s0)
    8000971c:	0017879b          	addiw	a5,a5,1
    80009720:	fef42023          	sw	a5,-32(s0)
    80009724:	03c0006f          	j	80009760 <_ftoa+0x34c>
    80009728:	fc843707          	fld	fa4,-56(s0)
    8000972c:	00002797          	auipc	a5,0x2
    80009730:	23c78793          	addi	a5,a5,572 # 8000b968 <__am_mainargs+0x43>
    80009734:	0007b787          	fld	fa5,0(a5)
    80009738:	a2f717d3          	flt.d	a5,fa4,fa5
    8000973c:	02079263          	bnez	a5,80009760 <_ftoa+0x34c>
    80009740:	fd843783          	ld	a5,-40(s0)
    80009744:	00078863          	beqz	a5,80009754 <_ftoa+0x340>
    80009748:	fd843783          	ld	a5,-40(s0)
    8000974c:	0017f793          	andi	a5,a5,1
    80009750:	00078863          	beqz	a5,80009760 <_ftoa+0x34c>
    80009754:	fd843783          	ld	a5,-40(s0)
    80009758:	00178793          	addi	a5,a5,1
    8000975c:	fcf43c23          	sd	a5,-40(s0)
    80009760:	f7442783          	lw	a5,-140(s0)
    80009764:	0007879b          	sext.w	a5,a5
    80009768:	06079c63          	bnez	a5,800097e0 <_ftoa+0x3cc>
    8000976c:	fe042783          	lw	a5,-32(s0)
    80009770:	d20787d3          	fcvt.d.w	fa5,a5
    80009774:	f7843707          	fld	fa4,-136(s0)
    80009778:	0af777d3          	fsub.d	fa5,fa4,fa5
    8000977c:	fcf43427          	fsd	fa5,-56(s0)
    80009780:	fc843707          	fld	fa4,-56(s0)
    80009784:	00002797          	auipc	a5,0x2
    80009788:	1e478793          	addi	a5,a5,484 # 8000b968 <__am_mainargs+0x43>
    8000978c:	0007b787          	fld	fa5,0(a5)
    80009790:	a2f717d3          	flt.d	a5,fa4,fa5
    80009794:	00f037b3          	snez	a5,a5
    80009798:	0ff7f793          	zext.b	a5,a5
    8000979c:	0017c793          	xori	a5,a5,1
    800097a0:	0ff7f793          	zext.b	a5,a5
    800097a4:	00079e63          	bnez	a5,800097c0 <_ftoa+0x3ac>
    800097a8:	fc843707          	fld	fa4,-56(s0)
    800097ac:	00002797          	auipc	a5,0x2
    800097b0:	1bc78793          	addi	a5,a5,444 # 8000b968 <__am_mainargs+0x43>
    800097b4:	0007b787          	fld	fa5,0(a5)
    800097b8:	a2e797d3          	flt.d	a5,fa5,fa4
    800097bc:	0e078e63          	beqz	a5,800098b8 <_ftoa+0x4a4>
    800097c0:	fe042783          	lw	a5,-32(s0)
    800097c4:	0017f793          	andi	a5,a5,1
    800097c8:	0007879b          	sext.w	a5,a5
    800097cc:	14078063          	beqz	a5,8000990c <_ftoa+0x4f8>
    800097d0:	fe042783          	lw	a5,-32(s0)
    800097d4:	0017879b          	addiw	a5,a5,1
    800097d8:	fef42023          	sw	a5,-32(s0)
    800097dc:	1300006f          	j	8000990c <_ftoa+0x4f8>
    800097e0:	f7442783          	lw	a5,-140(s0)
    800097e4:	fcf42a23          	sw	a5,-44(s0)
    800097e8:	0580006f          	j	80009840 <_ftoa+0x42c>
    800097ec:	fd442783          	lw	a5,-44(s0)
    800097f0:	fff7879b          	addiw	a5,a5,-1
    800097f4:	fcf42a23          	sw	a5,-44(s0)
    800097f8:	fd843703          	ld	a4,-40(s0)
    800097fc:	00a00793          	li	a5,10
    80009800:	02f777b3          	remu	a5,a4,a5
    80009804:	0ff7f713          	zext.b	a4,a5
    80009808:	fe843783          	ld	a5,-24(s0)
    8000980c:	00178693          	addi	a3,a5,1
    80009810:	fed43423          	sd	a3,-24(s0)
    80009814:	0307071b          	addiw	a4,a4,48
    80009818:	0ff77713          	zext.b	a4,a4
    8000981c:	ff040693          	addi	a3,s0,-16
    80009820:	00f687b3          	add	a5,a3,a5
    80009824:	fae78823          	sb	a4,-80(a5)
    80009828:	fd843703          	ld	a4,-40(s0)
    8000982c:	00a00793          	li	a5,10
    80009830:	02f757b3          	divu	a5,a4,a5
    80009834:	fcf43c23          	sd	a5,-40(s0)
    80009838:	fd843783          	ld	a5,-40(s0)
    8000983c:	00078a63          	beqz	a5,80009850 <_ftoa+0x43c>
    80009840:	fe843703          	ld	a4,-24(s0)
    80009844:	01f00793          	li	a5,31
    80009848:	fae7f2e3          	bgeu	a5,a4,800097ec <_ftoa+0x3d8>
    8000984c:	0280006f          	j	80009874 <_ftoa+0x460>
    80009850:	00000013          	nop
    80009854:	0200006f          	j	80009874 <_ftoa+0x460>
    80009858:	fe843783          	ld	a5,-24(s0)
    8000985c:	00178713          	addi	a4,a5,1
    80009860:	fee43423          	sd	a4,-24(s0)
    80009864:	ff040713          	addi	a4,s0,-16
    80009868:	00f707b3          	add	a5,a4,a5
    8000986c:	03000713          	li	a4,48
    80009870:	fae78823          	sb	a4,-80(a5)
    80009874:	fe843703          	ld	a4,-24(s0)
    80009878:	01f00793          	li	a5,31
    8000987c:	00e7ea63          	bltu	a5,a4,80009890 <_ftoa+0x47c>
    80009880:	fd442783          	lw	a5,-44(s0)
    80009884:	fff7871b          	addiw	a4,a5,-1
    80009888:	fce42a23          	sw	a4,-44(s0)
    8000988c:	fc0796e3          	bnez	a5,80009858 <_ftoa+0x444>
    80009890:	fe843703          	ld	a4,-24(s0)
    80009894:	01f00793          	li	a5,31
    80009898:	06e7ea63          	bltu	a5,a4,8000990c <_ftoa+0x4f8>
    8000989c:	fe843783          	ld	a5,-24(s0)
    800098a0:	00178713          	addi	a4,a5,1
    800098a4:	fee43423          	sd	a4,-24(s0)
    800098a8:	ff040713          	addi	a4,s0,-16
    800098ac:	00f707b3          	add	a5,a4,a5
    800098b0:	02e00713          	li	a4,46
    800098b4:	fae78823          	sb	a4,-80(a5)
    800098b8:	0540006f          	j	8000990c <_ftoa+0x4f8>
    800098bc:	fe042703          	lw	a4,-32(s0)
    800098c0:	00a00793          	li	a5,10
    800098c4:	02f767bb          	remw	a5,a4,a5
    800098c8:	0007879b          	sext.w	a5,a5
    800098cc:	0ff7f713          	zext.b	a4,a5
    800098d0:	fe843783          	ld	a5,-24(s0)
    800098d4:	00178693          	addi	a3,a5,1
    800098d8:	fed43423          	sd	a3,-24(s0)
    800098dc:	0307071b          	addiw	a4,a4,48
    800098e0:	0ff77713          	zext.b	a4,a4
    800098e4:	ff040693          	addi	a3,s0,-16
    800098e8:	00f687b3          	add	a5,a3,a5
    800098ec:	fae78823          	sb	a4,-80(a5)
    800098f0:	fe042703          	lw	a4,-32(s0)
    800098f4:	00a00793          	li	a5,10
    800098f8:	02f747bb          	divw	a5,a4,a5
    800098fc:	fef42023          	sw	a5,-32(s0)
    80009900:	fe042783          	lw	a5,-32(s0)
    80009904:	0007879b          	sext.w	a5,a5
    80009908:	00078a63          	beqz	a5,8000991c <_ftoa+0x508>
    8000990c:	fe843703          	ld	a4,-24(s0)
    80009910:	01f00793          	li	a5,31
    80009914:	fae7f4e3          	bgeu	a5,a4,800098bc <_ftoa+0x4a8>
    80009918:	0080006f          	j	80009920 <_ftoa+0x50c>
    8000991c:	00000013          	nop
    80009920:	f6c42783          	lw	a5,-148(s0)
    80009924:	0027f793          	andi	a5,a5,2
    80009928:	0007879b          	sext.w	a5,a5
    8000992c:	08079063          	bnez	a5,800099ac <_ftoa+0x598>
    80009930:	f6c42783          	lw	a5,-148(s0)
    80009934:	0017f793          	andi	a5,a5,1
    80009938:	0007879b          	sext.w	a5,a5
    8000993c:	06078863          	beqz	a5,800099ac <_ftoa+0x598>
    80009940:	f7042783          	lw	a5,-144(s0)
    80009944:	0007879b          	sext.w	a5,a5
    80009948:	04078663          	beqz	a5,80009994 <_ftoa+0x580>
    8000994c:	fe744783          	lbu	a5,-25(s0)
    80009950:	0ff7f793          	zext.b	a5,a5
    80009954:	00079a63          	bnez	a5,80009968 <_ftoa+0x554>
    80009958:	f6c42783          	lw	a5,-148(s0)
    8000995c:	00c7f793          	andi	a5,a5,12
    80009960:	0007879b          	sext.w	a5,a5
    80009964:	02078863          	beqz	a5,80009994 <_ftoa+0x580>
    80009968:	f7042783          	lw	a5,-144(s0)
    8000996c:	fff7879b          	addiw	a5,a5,-1
    80009970:	f6f42823          	sw	a5,-144(s0)
    80009974:	0200006f          	j	80009994 <_ftoa+0x580>
    80009978:	fe843783          	ld	a5,-24(s0)
    8000997c:	00178713          	addi	a4,a5,1
    80009980:	fee43423          	sd	a4,-24(s0)
    80009984:	ff040713          	addi	a4,s0,-16
    80009988:	00f707b3          	add	a5,a4,a5
    8000998c:	03000713          	li	a4,48
    80009990:	fae78823          	sb	a4,-80(a5)
    80009994:	f7046783          	lwu	a5,-144(s0)
    80009998:	fe843703          	ld	a4,-24(s0)
    8000999c:	00f77863          	bgeu	a4,a5,800099ac <_ftoa+0x598>
    800099a0:	fe843703          	ld	a4,-24(s0)
    800099a4:	01f00793          	li	a5,31
    800099a8:	fce7f8e3          	bgeu	a5,a4,80009978 <_ftoa+0x564>
    800099ac:	fe843703          	ld	a4,-24(s0)
    800099b0:	01f00793          	li	a5,31
    800099b4:	08e7e663          	bltu	a5,a4,80009a40 <_ftoa+0x62c>
    800099b8:	fe744783          	lbu	a5,-25(s0)
    800099bc:	0ff7f793          	zext.b	a5,a5
    800099c0:	02078263          	beqz	a5,800099e4 <_ftoa+0x5d0>
    800099c4:	fe843783          	ld	a5,-24(s0)
    800099c8:	00178713          	addi	a4,a5,1
    800099cc:	fee43423          	sd	a4,-24(s0)
    800099d0:	ff040713          	addi	a4,s0,-16
    800099d4:	00f707b3          	add	a5,a4,a5
    800099d8:	02d00713          	li	a4,45
    800099dc:	fae78823          	sb	a4,-80(a5)
    800099e0:	0600006f          	j	80009a40 <_ftoa+0x62c>
    800099e4:	f6c42783          	lw	a5,-148(s0)
    800099e8:	0047f793          	andi	a5,a5,4
    800099ec:	0007879b          	sext.w	a5,a5
    800099f0:	02078263          	beqz	a5,80009a14 <_ftoa+0x600>
    800099f4:	fe843783          	ld	a5,-24(s0)
    800099f8:	00178713          	addi	a4,a5,1
    800099fc:	fee43423          	sd	a4,-24(s0)
    80009a00:	ff040713          	addi	a4,s0,-16
    80009a04:	00f707b3          	add	a5,a4,a5
    80009a08:	02b00713          	li	a4,43
    80009a0c:	fae78823          	sb	a4,-80(a5)
    80009a10:	0300006f          	j	80009a40 <_ftoa+0x62c>
    80009a14:	f6c42783          	lw	a5,-148(s0)
    80009a18:	0087f793          	andi	a5,a5,8
    80009a1c:	0007879b          	sext.w	a5,a5
    80009a20:	02078063          	beqz	a5,80009a40 <_ftoa+0x62c>
    80009a24:	fe843783          	ld	a5,-24(s0)
    80009a28:	00178713          	addi	a4,a5,1
    80009a2c:	fee43423          	sd	a4,-24(s0)
    80009a30:	ff040713          	addi	a4,s0,-16
    80009a34:	00f707b3          	add	a5,a4,a5
    80009a38:	02000713          	li	a4,32
    80009a3c:	fae78823          	sb	a4,-80(a5)
    80009a40:	f6c42683          	lw	a3,-148(s0)
    80009a44:	f7042783          	lw	a5,-144(s0)
    80009a48:	fa040713          	addi	a4,s0,-96
    80009a4c:	00068893          	mv	a7,a3
    80009a50:	00078813          	mv	a6,a5
    80009a54:	fe843783          	ld	a5,-24(s0)
    80009a58:	f8043683          	ld	a3,-128(s0)
    80009a5c:	f8843603          	ld	a2,-120(s0)
    80009a60:	f9043583          	ld	a1,-112(s0)
    80009a64:	f9843503          	ld	a0,-104(s0)
    80009a68:	a3cff0ef          	jal	ra,80008ca4 <_out_rev>
    80009a6c:	00050793          	mv	a5,a0
    80009a70:	00078513          	mv	a0,a5
    80009a74:	09813083          	ld	ra,152(sp)
    80009a78:	09013403          	ld	s0,144(sp)
    80009a7c:	0a010113          	addi	sp,sp,160
    80009a80:	00008067          	ret

Disassembly of section .text._etoa:

0000000080009a84 <_etoa>:
    80009a84:	f6010113          	addi	sp,sp,-160
    80009a88:	08113c23          	sd	ra,152(sp)
    80009a8c:	08813823          	sd	s0,144(sp)
    80009a90:	0a010413          	addi	s0,sp,160
    80009a94:	faa43423          	sd	a0,-88(s0)
    80009a98:	fab43023          	sd	a1,-96(s0)
    80009a9c:	f8c43c23          	sd	a2,-104(s0)
    80009aa0:	f8d43823          	sd	a3,-112(s0)
    80009aa4:	f8a43427          	fsd	fa0,-120(s0)
    80009aa8:	00070613          	mv	a2,a4
    80009aac:	00078693          	mv	a3,a5
    80009ab0:	00080713          	mv	a4,a6
    80009ab4:	00060793          	mv	a5,a2
    80009ab8:	f8f42223          	sw	a5,-124(s0)
    80009abc:	00068793          	mv	a5,a3
    80009ac0:	f8f42023          	sw	a5,-128(s0)
    80009ac4:	00070793          	mv	a5,a4
    80009ac8:	f6f42e23          	sw	a5,-132(s0)
    80009acc:	f8843707          	fld	fa4,-120(s0)
    80009ad0:	f8843787          	fld	fa5,-120(s0)
    80009ad4:	a2f727d3          	feq.d	a5,fa4,fa5
    80009ad8:	02078a63          	beqz	a5,80009b0c <_etoa+0x88>
    80009adc:	f8843707          	fld	fa4,-120(s0)
    80009ae0:	00002797          	auipc	a5,0x2
    80009ae4:	e7078793          	addi	a5,a5,-400 # 8000b950 <__am_mainargs+0x2b>
    80009ae8:	0007b787          	fld	fa5,0(a5)
    80009aec:	a2e797d3          	flt.d	a5,fa5,fa4
    80009af0:	00079e63          	bnez	a5,80009b0c <_etoa+0x88>
    80009af4:	f8843707          	fld	fa4,-120(s0)
    80009af8:	00002797          	auipc	a5,0x2
    80009afc:	e5078793          	addi	a5,a5,-432 # 8000b948 <__am_mainargs+0x23>
    80009b00:	0007b787          	fld	fa5,0(a5)
    80009b04:	a2f717d3          	flt.d	a5,fa4,fa5
    80009b08:	02078a63          	beqz	a5,80009b3c <_etoa+0xb8>
    80009b0c:	f7c42683          	lw	a3,-132(s0)
    80009b10:	f8042783          	lw	a5,-128(s0)
    80009b14:	f8442703          	lw	a4,-124(s0)
    80009b18:	00068813          	mv	a6,a3
    80009b1c:	f8843507          	fld	fa0,-120(s0)
    80009b20:	f9043683          	ld	a3,-112(s0)
    80009b24:	f9843603          	ld	a2,-104(s0)
    80009b28:	fa043583          	ld	a1,-96(s0)
    80009b2c:	fa843503          	ld	a0,-88(s0)
    80009b30:	8e5ff0ef          	jal	ra,80009414 <_ftoa>
    80009b34:	00050793          	mv	a5,a0
    80009b38:	4e40006f          	j	8000a01c <_etoa+0x598>
    80009b3c:	f8843787          	fld	fa5,-120(s0)
    80009b40:	f2000753          	fmv.d.x	fa4,zero
    80009b44:	a2e797d3          	flt.d	a5,fa5,fa4
    80009b48:	00f037b3          	snez	a5,a5
    80009b4c:	fef401a3          	sb	a5,-29(s0)
    80009b50:	fe344783          	lbu	a5,-29(s0)
    80009b54:	0ff7f793          	zext.b	a5,a5
    80009b58:	00078863          	beqz	a5,80009b68 <_etoa+0xe4>
    80009b5c:	f8843787          	fld	fa5,-120(s0)
    80009b60:	22f797d3          	fneg.d	fa5,fa5
    80009b64:	f8f43427          	fsd	fa5,-120(s0)
    80009b68:	f7c42783          	lw	a5,-132(s0)
    80009b6c:	4007f793          	andi	a5,a5,1024
    80009b70:	0007879b          	sext.w	a5,a5
    80009b74:	00079663          	bnez	a5,80009b80 <_etoa+0xfc>
    80009b78:	00600793          	li	a5,6
    80009b7c:	f8f42223          	sw	a5,-124(s0)
    80009b80:	f8843787          	fld	fa5,-120(s0)
    80009b84:	faf43c27          	fsd	fa5,-72(s0)
    80009b88:	fb843783          	ld	a5,-72(s0)
    80009b8c:	0347d793          	srli	a5,a5,0x34
    80009b90:	0007879b          	sext.w	a5,a5
    80009b94:	7ff7f793          	andi	a5,a5,2047
    80009b98:	0007879b          	sext.w	a5,a5
    80009b9c:	c017879b          	addiw	a5,a5,-1023
    80009ba0:	fcf42e23          	sw	a5,-36(s0)
    80009ba4:	fb843703          	ld	a4,-72(s0)
    80009ba8:	fff00793          	li	a5,-1
    80009bac:	00c7d793          	srli	a5,a5,0xc
    80009bb0:	00f77733          	and	a4,a4,a5
    80009bb4:	3ff00793          	li	a5,1023
    80009bb8:	03479793          	slli	a5,a5,0x34
    80009bbc:	00f767b3          	or	a5,a4,a5
    80009bc0:	faf43c23          	sd	a5,-72(s0)
    80009bc4:	fdc42783          	lw	a5,-36(s0)
    80009bc8:	d2078753          	fcvt.d.w	fa4,a5
    80009bcc:	00002797          	auipc	a5,0x2
    80009bd0:	da478793          	addi	a5,a5,-604 # 8000b970 <__am_mainargs+0x4b>
    80009bd4:	0007b787          	fld	fa5,0(a5)
    80009bd8:	12f77753          	fmul.d	fa4,fa4,fa5
    80009bdc:	00002797          	auipc	a5,0x2
    80009be0:	d9c78793          	addi	a5,a5,-612 # 8000b978 <__am_mainargs+0x53>
    80009be4:	0007b787          	fld	fa5,0(a5)
    80009be8:	02f77753          	fadd.d	fa4,fa4,fa5
    80009bec:	fb843687          	fld	fa3,-72(s0)
    80009bf0:	00002797          	auipc	a5,0x2
    80009bf4:	d9078793          	addi	a5,a5,-624 # 8000b980 <__am_mainargs+0x5b>
    80009bf8:	0007b787          	fld	fa5,0(a5)
    80009bfc:	0af6f6d3          	fsub.d	fa3,fa3,fa5
    80009c00:	00002797          	auipc	a5,0x2
    80009c04:	d8878793          	addi	a5,a5,-632 # 8000b988 <__am_mainargs+0x63>
    80009c08:	0007b787          	fld	fa5,0(a5)
    80009c0c:	12f6f7d3          	fmul.d	fa5,fa3,fa5
    80009c10:	02f777d3          	fadd.d	fa5,fa4,fa5
    80009c14:	c20797d3          	fcvt.w.d	a5,fa5,rtz
    80009c18:	fef42623          	sw	a5,-20(s0)
    80009c1c:	fec42783          	lw	a5,-20(s0)
    80009c20:	d2078753          	fcvt.d.w	fa4,a5
    80009c24:	00002797          	auipc	a5,0x2
    80009c28:	d6c78793          	addi	a5,a5,-660 # 8000b990 <__am_mainargs+0x6b>
    80009c2c:	0007b787          	fld	fa5,0(a5)
    80009c30:	12f77753          	fmul.d	fa4,fa4,fa5
    80009c34:	00002797          	auipc	a5,0x2
    80009c38:	d3478793          	addi	a5,a5,-716 # 8000b968 <__am_mainargs+0x43>
    80009c3c:	0007b787          	fld	fa5,0(a5)
    80009c40:	02f777d3          	fadd.d	fa5,fa4,fa5
    80009c44:	c20797d3          	fcvt.w.d	a5,fa5,rtz
    80009c48:	fcf42e23          	sw	a5,-36(s0)
    80009c4c:	fec42783          	lw	a5,-20(s0)
    80009c50:	d2078753          	fcvt.d.w	fa4,a5
    80009c54:	00002797          	auipc	a5,0x2
    80009c58:	d4478793          	addi	a5,a5,-700 # 8000b998 <__am_mainargs+0x73>
    80009c5c:	0007b787          	fld	fa5,0(a5)
    80009c60:	12f77753          	fmul.d	fa4,fa4,fa5
    80009c64:	fdc42783          	lw	a5,-36(s0)
    80009c68:	d20786d3          	fcvt.d.w	fa3,a5
    80009c6c:	00002797          	auipc	a5,0x2
    80009c70:	d3478793          	addi	a5,a5,-716 # 8000b9a0 <__am_mainargs+0x7b>
    80009c74:	0007b787          	fld	fa5,0(a5)
    80009c78:	12f6f7d3          	fmul.d	fa5,fa3,fa5
    80009c7c:	0af777d3          	fsub.d	fa5,fa4,fa5
    80009c80:	fcf43827          	fsd	fa5,-48(s0)
    80009c84:	fd043787          	fld	fa5,-48(s0)
    80009c88:	12f7f7d3          	fmul.d	fa5,fa5,fa5
    80009c8c:	fcf43427          	fsd	fa5,-56(s0)
    80009c90:	fdc42783          	lw	a5,-36(s0)
    80009c94:	3ff7879b          	addiw	a5,a5,1023
    80009c98:	0007879b          	sext.w	a5,a5
    80009c9c:	03479793          	slli	a5,a5,0x34
    80009ca0:	faf43c23          	sd	a5,-72(s0)
    80009ca4:	fb843707          	fld	fa4,-72(s0)
    80009ca8:	fd043787          	fld	fa5,-48(s0)
    80009cac:	02f7f6d3          	fadd.d	fa3,fa5,fa5
    80009cb0:	00002797          	auipc	a5,0x2
    80009cb4:	cf878793          	addi	a5,a5,-776 # 8000b9a8 <__am_mainargs+0x83>
    80009cb8:	0007b607          	fld	fa2,0(a5)
    80009cbc:	fd043787          	fld	fa5,-48(s0)
    80009cc0:	0af67653          	fsub.d	fa2,fa2,fa5
    80009cc4:	fc843587          	fld	fa1,-56(s0)
    80009cc8:	00002797          	auipc	a5,0x2
    80009ccc:	ce878793          	addi	a5,a5,-792 # 8000b9b0 <__am_mainargs+0x8b>
    80009cd0:	0007b787          	fld	fa5,0(a5)
    80009cd4:	1af5f5d3          	fdiv.d	fa1,fa1,fa5
    80009cd8:	00002797          	auipc	a5,0x2
    80009cdc:	ce078793          	addi	a5,a5,-800 # 8000b9b8 <__am_mainargs+0x93>
    80009ce0:	0007b787          	fld	fa5,0(a5)
    80009ce4:	02f5f7d3          	fadd.d	fa5,fa1,fa5
    80009ce8:	fc843587          	fld	fa1,-56(s0)
    80009cec:	1af5f5d3          	fdiv.d	fa1,fa1,fa5
    80009cf0:	00002797          	auipc	a5,0x2
    80009cf4:	cd078793          	addi	a5,a5,-816 # 8000b9c0 <__am_mainargs+0x9b>
    80009cf8:	0007b787          	fld	fa5,0(a5)
    80009cfc:	02f5f7d3          	fadd.d	fa5,fa1,fa5
    80009d00:	fc843587          	fld	fa1,-56(s0)
    80009d04:	1af5f7d3          	fdiv.d	fa5,fa1,fa5
    80009d08:	02f677d3          	fadd.d	fa5,fa2,fa5
    80009d0c:	1af6f6d3          	fdiv.d	fa3,fa3,fa5
    80009d10:	00002797          	auipc	a5,0x2
    80009d14:	cb878793          	addi	a5,a5,-840 # 8000b9c8 <__am_mainargs+0xa3>
    80009d18:	0007b787          	fld	fa5,0(a5)
    80009d1c:	02f6f7d3          	fadd.d	fa5,fa3,fa5
    80009d20:	12f777d3          	fmul.d	fa5,fa4,fa5
    80009d24:	faf43c27          	fsd	fa5,-72(s0)
    80009d28:	fb843787          	fld	fa5,-72(s0)
    80009d2c:	f8843707          	fld	fa4,-120(s0)
    80009d30:	a2f717d3          	flt.d	a5,fa4,fa5
    80009d34:	02078463          	beqz	a5,80009d5c <_etoa+0x2d8>
    80009d38:	fec42783          	lw	a5,-20(s0)
    80009d3c:	fff7879b          	addiw	a5,a5,-1
    80009d40:	fef42623          	sw	a5,-20(s0)
    80009d44:	fb843707          	fld	fa4,-72(s0)
    80009d48:	00002797          	auipc	a5,0x2
    80009d4c:	c7078793          	addi	a5,a5,-912 # 8000b9b8 <__am_mainargs+0x93>
    80009d50:	0007b787          	fld	fa5,0(a5)
    80009d54:	1af777d3          	fdiv.d	fa5,fa4,fa5
    80009d58:	faf43c27          	fsd	fa5,-72(s0)
    80009d5c:	fec42783          	lw	a5,-20(s0)
    80009d60:	0007871b          	sext.w	a4,a5
    80009d64:	06300793          	li	a5,99
    80009d68:	00e7ce63          	blt	a5,a4,80009d84 <_etoa+0x300>
    80009d6c:	fec42783          	lw	a5,-20(s0)
    80009d70:	0007871b          	sext.w	a4,a5
    80009d74:	f9d00793          	li	a5,-99
    80009d78:	00f74663          	blt	a4,a5,80009d84 <_etoa+0x300>
    80009d7c:	00400793          	li	a5,4
    80009d80:	0080006f          	j	80009d88 <_etoa+0x304>
    80009d84:	00500793          	li	a5,5
    80009d88:	fef42423          	sw	a5,-24(s0)
    80009d8c:	f7c42703          	lw	a4,-132(s0)
    80009d90:	000017b7          	lui	a5,0x1
    80009d94:	80078793          	addi	a5,a5,-2048 # 800 <_start-0x7ffff800>
    80009d98:	00f777b3          	and	a5,a4,a5
    80009d9c:	0007879b          	sext.w	a5,a5
    80009da0:	0a078463          	beqz	a5,80009e48 <_etoa+0x3c4>
    80009da4:	f8843707          	fld	fa4,-120(s0)
    80009da8:	00002797          	auipc	a5,0x2
    80009dac:	c2878793          	addi	a5,a5,-984 # 8000b9d0 <__am_mainargs+0xab>
    80009db0:	0007b787          	fld	fa5,0(a5)
    80009db4:	a2e787d3          	fle.d	a5,fa5,fa4
    80009db8:	06078463          	beqz	a5,80009e20 <_etoa+0x39c>
    80009dbc:	f8843707          	fld	fa4,-120(s0)
    80009dc0:	00002797          	auipc	a5,0x2
    80009dc4:	c1878793          	addi	a5,a5,-1000 # 8000b9d8 <__am_mainargs+0xb3>
    80009dc8:	0007b787          	fld	fa5,0(a5)
    80009dcc:	a2f717d3          	flt.d	a5,fa4,fa5
    80009dd0:	04078863          	beqz	a5,80009e20 <_etoa+0x39c>
    80009dd4:	f8442703          	lw	a4,-124(s0)
    80009dd8:	fec42783          	lw	a5,-20(s0)
    80009ddc:	0007879b          	sext.w	a5,a5
    80009de0:	02e7d263          	bge	a5,a4,80009e04 <_etoa+0x380>
    80009de4:	f8442703          	lw	a4,-124(s0)
    80009de8:	fec42783          	lw	a5,-20(s0)
    80009dec:	40f707bb          	subw	a5,a4,a5
    80009df0:	0007879b          	sext.w	a5,a5
    80009df4:	fff7879b          	addiw	a5,a5,-1
    80009df8:	0007879b          	sext.w	a5,a5
    80009dfc:	f8f42223          	sw	a5,-124(s0)
    80009e00:	0080006f          	j	80009e08 <_etoa+0x384>
    80009e04:	f8042223          	sw	zero,-124(s0)
    80009e08:	f7c42783          	lw	a5,-132(s0)
    80009e0c:	4007e793          	ori	a5,a5,1024
    80009e10:	f6f42e23          	sw	a5,-132(s0)
    80009e14:	fe042423          	sw	zero,-24(s0)
    80009e18:	fe042623          	sw	zero,-20(s0)
    80009e1c:	02c0006f          	j	80009e48 <_etoa+0x3c4>
    80009e20:	f8442783          	lw	a5,-124(s0)
    80009e24:	0007879b          	sext.w	a5,a5
    80009e28:	02078063          	beqz	a5,80009e48 <_etoa+0x3c4>
    80009e2c:	f7c42783          	lw	a5,-132(s0)
    80009e30:	4007f793          	andi	a5,a5,1024
    80009e34:	0007879b          	sext.w	a5,a5
    80009e38:	00078863          	beqz	a5,80009e48 <_etoa+0x3c4>
    80009e3c:	f8442783          	lw	a5,-124(s0)
    80009e40:	fff7879b          	addiw	a5,a5,-1
    80009e44:	f8f42223          	sw	a5,-124(s0)
    80009e48:	f8042783          	lw	a5,-128(s0)
    80009e4c:	fef42223          	sw	a5,-28(s0)
    80009e50:	f8042703          	lw	a4,-128(s0)
    80009e54:	fe842783          	lw	a5,-24(s0)
    80009e58:	0007071b          	sext.w	a4,a4
    80009e5c:	0007879b          	sext.w	a5,a5
    80009e60:	00e7fc63          	bgeu	a5,a4,80009e78 <_etoa+0x3f4>
    80009e64:	fe442703          	lw	a4,-28(s0)
    80009e68:	fe842783          	lw	a5,-24(s0)
    80009e6c:	40f707bb          	subw	a5,a4,a5
    80009e70:	fef42223          	sw	a5,-28(s0)
    80009e74:	0080006f          	j	80009e7c <_etoa+0x3f8>
    80009e78:	fe042223          	sw	zero,-28(s0)
    80009e7c:	f7c42783          	lw	a5,-132(s0)
    80009e80:	0027f793          	andi	a5,a5,2
    80009e84:	0007879b          	sext.w	a5,a5
    80009e88:	00078a63          	beqz	a5,80009e9c <_etoa+0x418>
    80009e8c:	fe842783          	lw	a5,-24(s0)
    80009e90:	0007879b          	sext.w	a5,a5
    80009e94:	00078463          	beqz	a5,80009e9c <_etoa+0x418>
    80009e98:	fe042223          	sw	zero,-28(s0)
    80009e9c:	fec42783          	lw	a5,-20(s0)
    80009ea0:	0007879b          	sext.w	a5,a5
    80009ea4:	00078a63          	beqz	a5,80009eb8 <_etoa+0x434>
    80009ea8:	fb843787          	fld	fa5,-72(s0)
    80009eac:	f8843707          	fld	fa4,-120(s0)
    80009eb0:	1af777d3          	fdiv.d	fa5,fa4,fa5
    80009eb4:	f8f43427          	fsd	fa5,-120(s0)
    80009eb8:	f9843783          	ld	a5,-104(s0)
    80009ebc:	fcf43023          	sd	a5,-64(s0)
    80009ec0:	fe344783          	lbu	a5,-29(s0)
    80009ec4:	0ff7f793          	zext.b	a5,a5
    80009ec8:	00078863          	beqz	a5,80009ed8 <_etoa+0x454>
    80009ecc:	f8843787          	fld	fa5,-120(s0)
    80009ed0:	22f797d3          	fneg.d	fa5,fa5
    80009ed4:	0080006f          	j	80009edc <_etoa+0x458>
    80009ed8:	f8843787          	fld	fa5,-120(s0)
    80009edc:	f7c42703          	lw	a4,-132(s0)
    80009ee0:	fffff7b7          	lui	a5,0xfffff
    80009ee4:	7ff78793          	addi	a5,a5,2047 # fffffffffffff7ff <_pmem_end+0xffffffff77fff7ff>
    80009ee8:	00f777b3          	and	a5,a4,a5
    80009eec:	0007869b          	sext.w	a3,a5
    80009ef0:	fe442783          	lw	a5,-28(s0)
    80009ef4:	f8442703          	lw	a4,-124(s0)
    80009ef8:	00068813          	mv	a6,a3
    80009efc:	22f78553          	fmv.d	fa0,fa5
    80009f00:	f9043683          	ld	a3,-112(s0)
    80009f04:	f9843603          	ld	a2,-104(s0)
    80009f08:	fa043583          	ld	a1,-96(s0)
    80009f0c:	fa843503          	ld	a0,-88(s0)
    80009f10:	d04ff0ef          	jal	ra,80009414 <_ftoa>
    80009f14:	f8a43c23          	sd	a0,-104(s0)
    80009f18:	fe842783          	lw	a5,-24(s0)
    80009f1c:	0007879b          	sext.w	a5,a5
    80009f20:	0e078c63          	beqz	a5,8000a018 <_etoa+0x594>
    80009f24:	f7c42783          	lw	a5,-132(s0)
    80009f28:	0207f793          	andi	a5,a5,32
    80009f2c:	0007879b          	sext.w	a5,a5
    80009f30:	00078663          	beqz	a5,80009f3c <_etoa+0x4b8>
    80009f34:	04500793          	li	a5,69
    80009f38:	0080006f          	j	80009f40 <_etoa+0x4bc>
    80009f3c:	06500793          	li	a5,101
    80009f40:	f9843703          	ld	a4,-104(s0)
    80009f44:	00170693          	addi	a3,a4,1
    80009f48:	f8d43c23          	sd	a3,-104(s0)
    80009f4c:	fa843803          	ld	a6,-88(s0)
    80009f50:	f9043683          	ld	a3,-112(s0)
    80009f54:	00070613          	mv	a2,a4
    80009f58:	fa043583          	ld	a1,-96(s0)
    80009f5c:	00078513          	mv	a0,a5
    80009f60:	000800e7          	jalr	a6
    80009f64:	fec42783          	lw	a5,-20(s0)
    80009f68:	41f7d79b          	sraiw	a5,a5,0x1f
    80009f6c:	fec42703          	lw	a4,-20(s0)
    80009f70:	00e7c733          	xor	a4,a5,a4
    80009f74:	40f707bb          	subw	a5,a4,a5
    80009f78:	0007879b          	sext.w	a5,a5
    80009f7c:	00078613          	mv	a2,a5
    80009f80:	fec42783          	lw	a5,-20(s0)
    80009f84:	01f7d79b          	srliw	a5,a5,0x1f
    80009f88:	0ff7f693          	zext.b	a3,a5
    80009f8c:	fe842783          	lw	a5,-24(s0)
    80009f90:	fff7879b          	addiw	a5,a5,-1
    80009f94:	0007879b          	sext.w	a5,a5
    80009f98:	00500713          	li	a4,5
    80009f9c:	00e13423          	sd	a4,8(sp)
    80009fa0:	00f13023          	sd	a5,0(sp)
    80009fa4:	00000893          	li	a7,0
    80009fa8:	00a00813          	li	a6,10
    80009fac:	00068793          	mv	a5,a3
    80009fb0:	00060713          	mv	a4,a2
    80009fb4:	f9043683          	ld	a3,-112(s0)
    80009fb8:	f9843603          	ld	a2,-104(s0)
    80009fbc:	fa043583          	ld	a1,-96(s0)
    80009fc0:	fa843503          	ld	a0,-88(s0)
    80009fc4:	988ff0ef          	jal	ra,8000914c <_ntoa_long>
    80009fc8:	f8a43c23          	sd	a0,-104(s0)
    80009fcc:	f7c42783          	lw	a5,-132(s0)
    80009fd0:	0027f793          	andi	a5,a5,2
    80009fd4:	0007879b          	sext.w	a5,a5
    80009fd8:	04078063          	beqz	a5,8000a018 <_etoa+0x594>
    80009fdc:	0280006f          	j	8000a004 <_etoa+0x580>
    80009fe0:	f9843783          	ld	a5,-104(s0)
    80009fe4:	00178713          	addi	a4,a5,1
    80009fe8:	f8e43c23          	sd	a4,-104(s0)
    80009fec:	fa843703          	ld	a4,-88(s0)
    80009ff0:	f9043683          	ld	a3,-112(s0)
    80009ff4:	00078613          	mv	a2,a5
    80009ff8:	fa043583          	ld	a1,-96(s0)
    80009ffc:	02000513          	li	a0,32
    8000a000:	000700e7          	jalr	a4
    8000a004:	f9843703          	ld	a4,-104(s0)
    8000a008:	fc043783          	ld	a5,-64(s0)
    8000a00c:	40f70733          	sub	a4,a4,a5
    8000a010:	f8046783          	lwu	a5,-128(s0)
    8000a014:	fcf766e3          	bltu	a4,a5,80009fe0 <_etoa+0x55c>
    8000a018:	f9843783          	ld	a5,-104(s0)
    8000a01c:	00078513          	mv	a0,a5
    8000a020:	09813083          	ld	ra,152(sp)
    8000a024:	09013403          	ld	s0,144(sp)
    8000a028:	0a010113          	addi	sp,sp,160
    8000a02c:	00008067          	ret

Disassembly of section .text._vsnprintf:

000000008000a030 <_vsnprintf>:
    8000a030:	f6010113          	addi	sp,sp,-160
    8000a034:	08113c23          	sd	ra,152(sp)
    8000a038:	08813823          	sd	s0,144(sp)
    8000a03c:	0a010413          	addi	s0,sp,160
    8000a040:	f8a43c23          	sd	a0,-104(s0)
    8000a044:	f8b43823          	sd	a1,-112(s0)
    8000a048:	f8c43423          	sd	a2,-120(s0)
    8000a04c:	f8d43023          	sd	a3,-128(s0)
    8000a050:	f6e43c23          	sd	a4,-136(s0)
    8000a054:	fc043c23          	sd	zero,-40(s0)
    8000a058:	f9043783          	ld	a5,-112(s0)
    8000a05c:	5c0798e3          	bnez	a5,8000ae2c <_vsnprintf+0xdfc>
    8000a060:	fffff797          	auipc	a5,0xfffff
    8000a064:	a7078793          	addi	a5,a5,-1424 # 80008ad0 <_out_null>
    8000a068:	f8f43c23          	sd	a5,-104(s0)
    8000a06c:	5c10006f          	j	8000ae2c <_vsnprintf+0xdfc>
    8000a070:	f8043783          	ld	a5,-128(s0)
    8000a074:	0007c783          	lbu	a5,0(a5)
    8000a078:	00078713          	mv	a4,a5
    8000a07c:	02500793          	li	a5,37
    8000a080:	02f70e63          	beq	a4,a5,8000a0bc <_vsnprintf+0x8c>
    8000a084:	f8043783          	ld	a5,-128(s0)
    8000a088:	0007c503          	lbu	a0,0(a5)
    8000a08c:	fd843783          	ld	a5,-40(s0)
    8000a090:	00178713          	addi	a4,a5,1
    8000a094:	fce43c23          	sd	a4,-40(s0)
    8000a098:	f9843703          	ld	a4,-104(s0)
    8000a09c:	f8843683          	ld	a3,-120(s0)
    8000a0a0:	00078613          	mv	a2,a5
    8000a0a4:	f9043583          	ld	a1,-112(s0)
    8000a0a8:	000700e7          	jalr	a4
    8000a0ac:	f8043783          	ld	a5,-128(s0)
    8000a0b0:	00178793          	addi	a5,a5,1
    8000a0b4:	f8f43023          	sd	a5,-128(s0)
    8000a0b8:	5750006f          	j	8000ae2c <_vsnprintf+0xdfc>
    8000a0bc:	f8043783          	ld	a5,-128(s0)
    8000a0c0:	00178793          	addi	a5,a5,1
    8000a0c4:	f8f43023          	sd	a5,-128(s0)
    8000a0c8:	fe042623          	sw	zero,-20(s0)
    8000a0cc:	f8043783          	ld	a5,-128(s0)
    8000a0d0:	0007c783          	lbu	a5,0(a5)
    8000a0d4:	0007879b          	sext.w	a5,a5
    8000a0d8:	fe07869b          	addiw	a3,a5,-32
    8000a0dc:	0006871b          	sext.w	a4,a3
    8000a0e0:	01000793          	li	a5,16
    8000a0e4:	0ee7e463          	bltu	a5,a4,8000a1cc <_vsnprintf+0x19c>
    8000a0e8:	02069793          	slli	a5,a3,0x20
    8000a0ec:	0207d793          	srli	a5,a5,0x20
    8000a0f0:	00279713          	slli	a4,a5,0x2
    8000a0f4:	00002797          	auipc	a5,0x2
    8000a0f8:	8ec78793          	addi	a5,a5,-1812 # 8000b9e0 <__am_mainargs+0xbb>
    8000a0fc:	00f707b3          	add	a5,a4,a5
    8000a100:	0007a783          	lw	a5,0(a5)
    8000a104:	0007871b          	sext.w	a4,a5
    8000a108:	00002797          	auipc	a5,0x2
    8000a10c:	8d878793          	addi	a5,a5,-1832 # 8000b9e0 <__am_mainargs+0xbb>
    8000a110:	00f707b3          	add	a5,a4,a5
    8000a114:	00078067          	jr	a5
    8000a118:	fec42783          	lw	a5,-20(s0)
    8000a11c:	0017e793          	ori	a5,a5,1
    8000a120:	fef42623          	sw	a5,-20(s0)
    8000a124:	f8043783          	ld	a5,-128(s0)
    8000a128:	00178793          	addi	a5,a5,1
    8000a12c:	f8f43023          	sd	a5,-128(s0)
    8000a130:	00100793          	li	a5,1
    8000a134:	fef42023          	sw	a5,-32(s0)
    8000a138:	09c0006f          	j	8000a1d4 <_vsnprintf+0x1a4>
    8000a13c:	fec42783          	lw	a5,-20(s0)
    8000a140:	0027e793          	ori	a5,a5,2
    8000a144:	fef42623          	sw	a5,-20(s0)
    8000a148:	f8043783          	ld	a5,-128(s0)
    8000a14c:	00178793          	addi	a5,a5,1
    8000a150:	f8f43023          	sd	a5,-128(s0)
    8000a154:	00100793          	li	a5,1
    8000a158:	fef42023          	sw	a5,-32(s0)
    8000a15c:	0780006f          	j	8000a1d4 <_vsnprintf+0x1a4>
    8000a160:	fec42783          	lw	a5,-20(s0)
    8000a164:	0047e793          	ori	a5,a5,4
    8000a168:	fef42623          	sw	a5,-20(s0)
    8000a16c:	f8043783          	ld	a5,-128(s0)
    8000a170:	00178793          	addi	a5,a5,1
    8000a174:	f8f43023          	sd	a5,-128(s0)
    8000a178:	00100793          	li	a5,1
    8000a17c:	fef42023          	sw	a5,-32(s0)
    8000a180:	0540006f          	j	8000a1d4 <_vsnprintf+0x1a4>
    8000a184:	fec42783          	lw	a5,-20(s0)
    8000a188:	0087e793          	ori	a5,a5,8
    8000a18c:	fef42623          	sw	a5,-20(s0)
    8000a190:	f8043783          	ld	a5,-128(s0)
    8000a194:	00178793          	addi	a5,a5,1
    8000a198:	f8f43023          	sd	a5,-128(s0)
    8000a19c:	00100793          	li	a5,1
    8000a1a0:	fef42023          	sw	a5,-32(s0)
    8000a1a4:	0300006f          	j	8000a1d4 <_vsnprintf+0x1a4>
    8000a1a8:	fec42783          	lw	a5,-20(s0)
    8000a1ac:	0107e793          	ori	a5,a5,16
    8000a1b0:	fef42623          	sw	a5,-20(s0)
    8000a1b4:	f8043783          	ld	a5,-128(s0)
    8000a1b8:	00178793          	addi	a5,a5,1
    8000a1bc:	f8f43023          	sd	a5,-128(s0)
    8000a1c0:	00100793          	li	a5,1
    8000a1c4:	fef42023          	sw	a5,-32(s0)
    8000a1c8:	00c0006f          	j	8000a1d4 <_vsnprintf+0x1a4>
    8000a1cc:	fe042023          	sw	zero,-32(s0)
    8000a1d0:	00000013          	nop
    8000a1d4:	fe042783          	lw	a5,-32(s0)
    8000a1d8:	0007879b          	sext.w	a5,a5
    8000a1dc:	ee0798e3          	bnez	a5,8000a0cc <_vsnprintf+0x9c>
    8000a1e0:	fe042423          	sw	zero,-24(s0)
    8000a1e4:	f8043783          	ld	a5,-128(s0)
    8000a1e8:	0007c783          	lbu	a5,0(a5)
    8000a1ec:	00078513          	mv	a0,a5
    8000a1f0:	9c9fe0ef          	jal	ra,80008bb8 <_is_digit>
    8000a1f4:	00050793          	mv	a5,a0
    8000a1f8:	00078e63          	beqz	a5,8000a214 <_vsnprintf+0x1e4>
    8000a1fc:	f8040793          	addi	a5,s0,-128
    8000a200:	00078513          	mv	a0,a5
    8000a204:	a0dfe0ef          	jal	ra,80008c10 <_atoi>
    8000a208:	00050793          	mv	a5,a0
    8000a20c:	fef42423          	sw	a5,-24(s0)
    8000a210:	06c0006f          	j	8000a27c <_vsnprintf+0x24c>
    8000a214:	f8043783          	ld	a5,-128(s0)
    8000a218:	0007c783          	lbu	a5,0(a5)
    8000a21c:	00078713          	mv	a4,a5
    8000a220:	02a00793          	li	a5,42
    8000a224:	04f71c63          	bne	a4,a5,8000a27c <_vsnprintf+0x24c>
    8000a228:	f7843783          	ld	a5,-136(s0)
    8000a22c:	00878713          	addi	a4,a5,8
    8000a230:	f6e43c23          	sd	a4,-136(s0)
    8000a234:	0007a783          	lw	a5,0(a5)
    8000a238:	fcf42023          	sw	a5,-64(s0)
    8000a23c:	fc042783          	lw	a5,-64(s0)
    8000a240:	0007879b          	sext.w	a5,a5
    8000a244:	0207d263          	bgez	a5,8000a268 <_vsnprintf+0x238>
    8000a248:	fec42783          	lw	a5,-20(s0)
    8000a24c:	0027e793          	ori	a5,a5,2
    8000a250:	fef42623          	sw	a5,-20(s0)
    8000a254:	fc042783          	lw	a5,-64(s0)
    8000a258:	40f007bb          	negw	a5,a5
    8000a25c:	0007879b          	sext.w	a5,a5
    8000a260:	fef42423          	sw	a5,-24(s0)
    8000a264:	00c0006f          	j	8000a270 <_vsnprintf+0x240>
    8000a268:	fc042783          	lw	a5,-64(s0)
    8000a26c:	fef42423          	sw	a5,-24(s0)
    8000a270:	f8043783          	ld	a5,-128(s0)
    8000a274:	00178793          	addi	a5,a5,1
    8000a278:	f8f43023          	sd	a5,-128(s0)
    8000a27c:	fe042223          	sw	zero,-28(s0)
    8000a280:	f8043783          	ld	a5,-128(s0)
    8000a284:	0007c783          	lbu	a5,0(a5)
    8000a288:	00078713          	mv	a4,a5
    8000a28c:	02e00793          	li	a5,46
    8000a290:	08f71c63          	bne	a4,a5,8000a328 <_vsnprintf+0x2f8>
    8000a294:	fec42783          	lw	a5,-20(s0)
    8000a298:	4007e793          	ori	a5,a5,1024
    8000a29c:	fef42623          	sw	a5,-20(s0)
    8000a2a0:	f8043783          	ld	a5,-128(s0)
    8000a2a4:	00178793          	addi	a5,a5,1
    8000a2a8:	f8f43023          	sd	a5,-128(s0)
    8000a2ac:	f8043783          	ld	a5,-128(s0)
    8000a2b0:	0007c783          	lbu	a5,0(a5)
    8000a2b4:	00078513          	mv	a0,a5
    8000a2b8:	901fe0ef          	jal	ra,80008bb8 <_is_digit>
    8000a2bc:	00050793          	mv	a5,a0
    8000a2c0:	00078e63          	beqz	a5,8000a2dc <_vsnprintf+0x2ac>
    8000a2c4:	f8040793          	addi	a5,s0,-128
    8000a2c8:	00078513          	mv	a0,a5
    8000a2cc:	945fe0ef          	jal	ra,80008c10 <_atoi>
    8000a2d0:	00050793          	mv	a5,a0
    8000a2d4:	fef42223          	sw	a5,-28(s0)
    8000a2d8:	0500006f          	j	8000a328 <_vsnprintf+0x2f8>
    8000a2dc:	f8043783          	ld	a5,-128(s0)
    8000a2e0:	0007c783          	lbu	a5,0(a5)
    8000a2e4:	00078713          	mv	a4,a5
    8000a2e8:	02a00793          	li	a5,42
    8000a2ec:	02f71e63          	bne	a4,a5,8000a328 <_vsnprintf+0x2f8>
    8000a2f0:	f7843783          	ld	a5,-136(s0)
    8000a2f4:	00878713          	addi	a4,a5,8
    8000a2f8:	f6e43c23          	sd	a4,-136(s0)
    8000a2fc:	0007a783          	lw	a5,0(a5)
    8000a300:	faf42e23          	sw	a5,-68(s0)
    8000a304:	fbc42783          	lw	a5,-68(s0)
    8000a308:	0007871b          	sext.w	a4,a5
    8000a30c:	00075463          	bgez	a4,8000a314 <_vsnprintf+0x2e4>
    8000a310:	00000793          	li	a5,0
    8000a314:	0007879b          	sext.w	a5,a5
    8000a318:	fef42223          	sw	a5,-28(s0)
    8000a31c:	f8043783          	ld	a5,-128(s0)
    8000a320:	00178793          	addi	a5,a5,1
    8000a324:	f8f43023          	sd	a5,-128(s0)
    8000a328:	f8043783          	ld	a5,-128(s0)
    8000a32c:	0007c783          	lbu	a5,0(a5)
    8000a330:	0007879b          	sext.w	a5,a5
    8000a334:	f987869b          	addiw	a3,a5,-104
    8000a338:	0006871b          	sext.w	a4,a3
    8000a33c:	01200793          	li	a5,18
    8000a340:	10e7ec63          	bltu	a5,a4,8000a458 <_vsnprintf+0x428>
    8000a344:	02069793          	slli	a5,a3,0x20
    8000a348:	0207d793          	srli	a5,a5,0x20
    8000a34c:	00279713          	slli	a4,a5,0x2
    8000a350:	00001797          	auipc	a5,0x1
    8000a354:	6d478793          	addi	a5,a5,1748 # 8000ba24 <__am_mainargs+0xff>
    8000a358:	00f707b3          	add	a5,a4,a5
    8000a35c:	0007a783          	lw	a5,0(a5)
    8000a360:	0007871b          	sext.w	a4,a5
    8000a364:	00001797          	auipc	a5,0x1
    8000a368:	6c078793          	addi	a5,a5,1728 # 8000ba24 <__am_mainargs+0xff>
    8000a36c:	00f707b3          	add	a5,a4,a5
    8000a370:	00078067          	jr	a5
    8000a374:	fec42783          	lw	a5,-20(s0)
    8000a378:	1007e793          	ori	a5,a5,256
    8000a37c:	fef42623          	sw	a5,-20(s0)
    8000a380:	f8043783          	ld	a5,-128(s0)
    8000a384:	00178793          	addi	a5,a5,1
    8000a388:	f8f43023          	sd	a5,-128(s0)
    8000a38c:	f8043783          	ld	a5,-128(s0)
    8000a390:	0007c783          	lbu	a5,0(a5)
    8000a394:	00078713          	mv	a4,a5
    8000a398:	06c00793          	li	a5,108
    8000a39c:	0cf71263          	bne	a4,a5,8000a460 <_vsnprintf+0x430>
    8000a3a0:	fec42783          	lw	a5,-20(s0)
    8000a3a4:	2007e793          	ori	a5,a5,512
    8000a3a8:	fef42623          	sw	a5,-20(s0)
    8000a3ac:	f8043783          	ld	a5,-128(s0)
    8000a3b0:	00178793          	addi	a5,a5,1
    8000a3b4:	f8f43023          	sd	a5,-128(s0)
    8000a3b8:	0a80006f          	j	8000a460 <_vsnprintf+0x430>
    8000a3bc:	fec42783          	lw	a5,-20(s0)
    8000a3c0:	0807e793          	ori	a5,a5,128
    8000a3c4:	fef42623          	sw	a5,-20(s0)
    8000a3c8:	f8043783          	ld	a5,-128(s0)
    8000a3cc:	00178793          	addi	a5,a5,1
    8000a3d0:	f8f43023          	sd	a5,-128(s0)
    8000a3d4:	f8043783          	ld	a5,-128(s0)
    8000a3d8:	0007c783          	lbu	a5,0(a5)
    8000a3dc:	00078713          	mv	a4,a5
    8000a3e0:	06800793          	li	a5,104
    8000a3e4:	08f71263          	bne	a4,a5,8000a468 <_vsnprintf+0x438>
    8000a3e8:	fec42783          	lw	a5,-20(s0)
    8000a3ec:	0407e793          	ori	a5,a5,64
    8000a3f0:	fef42623          	sw	a5,-20(s0)
    8000a3f4:	f8043783          	ld	a5,-128(s0)
    8000a3f8:	00178793          	addi	a5,a5,1
    8000a3fc:	f8f43023          	sd	a5,-128(s0)
    8000a400:	0680006f          	j	8000a468 <_vsnprintf+0x438>
    8000a404:	fec42783          	lw	a5,-20(s0)
    8000a408:	1007e793          	ori	a5,a5,256
    8000a40c:	fef42623          	sw	a5,-20(s0)
    8000a410:	f8043783          	ld	a5,-128(s0)
    8000a414:	00178793          	addi	a5,a5,1
    8000a418:	f8f43023          	sd	a5,-128(s0)
    8000a41c:	0500006f          	j	8000a46c <_vsnprintf+0x43c>
    8000a420:	fec42783          	lw	a5,-20(s0)
    8000a424:	1007e793          	ori	a5,a5,256
    8000a428:	fef42623          	sw	a5,-20(s0)
    8000a42c:	f8043783          	ld	a5,-128(s0)
    8000a430:	00178793          	addi	a5,a5,1
    8000a434:	f8f43023          	sd	a5,-128(s0)
    8000a438:	0340006f          	j	8000a46c <_vsnprintf+0x43c>
    8000a43c:	fec42783          	lw	a5,-20(s0)
    8000a440:	1007e793          	ori	a5,a5,256
    8000a444:	fef42623          	sw	a5,-20(s0)
    8000a448:	f8043783          	ld	a5,-128(s0)
    8000a44c:	00178793          	addi	a5,a5,1
    8000a450:	f8f43023          	sd	a5,-128(s0)
    8000a454:	0180006f          	j	8000a46c <_vsnprintf+0x43c>
    8000a458:	00000013          	nop
    8000a45c:	0100006f          	j	8000a46c <_vsnprintf+0x43c>
    8000a460:	00000013          	nop
    8000a464:	0080006f          	j	8000a46c <_vsnprintf+0x43c>
    8000a468:	00000013          	nop
    8000a46c:	f8043783          	ld	a5,-128(s0)
    8000a470:	0007c783          	lbu	a5,0(a5)
    8000a474:	0007879b          	sext.w	a5,a5
    8000a478:	fdb7869b          	addiw	a3,a5,-37
    8000a47c:	0006871b          	sext.w	a4,a3
    8000a480:	05300793          	li	a5,83
    8000a484:	16e7e8e3          	bltu	a5,a4,8000adf4 <_vsnprintf+0xdc4>
    8000a488:	02069793          	slli	a5,a3,0x20
    8000a48c:	0207d793          	srli	a5,a5,0x20
    8000a490:	00279713          	slli	a4,a5,0x2
    8000a494:	00001797          	auipc	a5,0x1
    8000a498:	5dc78793          	addi	a5,a5,1500 # 8000ba70 <__am_mainargs+0x14b>
    8000a49c:	00f707b3          	add	a5,a4,a5
    8000a4a0:	0007a783          	lw	a5,0(a5)
    8000a4a4:	0007871b          	sext.w	a4,a5
    8000a4a8:	00001797          	auipc	a5,0x1
    8000a4ac:	5c878793          	addi	a5,a5,1480 # 8000ba70 <__am_mainargs+0x14b>
    8000a4b0:	00f707b3          	add	a5,a4,a5
    8000a4b4:	00078067          	jr	a5
    8000a4b8:	f8043783          	ld	a5,-128(s0)
    8000a4bc:	0007c783          	lbu	a5,0(a5)
    8000a4c0:	00078713          	mv	a4,a5
    8000a4c4:	07800793          	li	a5,120
    8000a4c8:	00f70c63          	beq	a4,a5,8000a4e0 <_vsnprintf+0x4b0>
    8000a4cc:	f8043783          	ld	a5,-128(s0)
    8000a4d0:	0007c783          	lbu	a5,0(a5)
    8000a4d4:	00078713          	mv	a4,a5
    8000a4d8:	05800793          	li	a5,88
    8000a4dc:	00f71863          	bne	a4,a5,8000a4ec <_vsnprintf+0x4bc>
    8000a4e0:	01000793          	li	a5,16
    8000a4e4:	fcf42a23          	sw	a5,-44(s0)
    8000a4e8:	0580006f          	j	8000a540 <_vsnprintf+0x510>
    8000a4ec:	f8043783          	ld	a5,-128(s0)
    8000a4f0:	0007c783          	lbu	a5,0(a5)
    8000a4f4:	00078713          	mv	a4,a5
    8000a4f8:	06f00793          	li	a5,111
    8000a4fc:	00f71863          	bne	a4,a5,8000a50c <_vsnprintf+0x4dc>
    8000a500:	00800793          	li	a5,8
    8000a504:	fcf42a23          	sw	a5,-44(s0)
    8000a508:	0380006f          	j	8000a540 <_vsnprintf+0x510>
    8000a50c:	f8043783          	ld	a5,-128(s0)
    8000a510:	0007c783          	lbu	a5,0(a5)
    8000a514:	00078713          	mv	a4,a5
    8000a518:	06200793          	li	a5,98
    8000a51c:	00f71863          	bne	a4,a5,8000a52c <_vsnprintf+0x4fc>
    8000a520:	00200793          	li	a5,2
    8000a524:	fcf42a23          	sw	a5,-44(s0)
    8000a528:	0180006f          	j	8000a540 <_vsnprintf+0x510>
    8000a52c:	00a00793          	li	a5,10
    8000a530:	fcf42a23          	sw	a5,-44(s0)
    8000a534:	fec42783          	lw	a5,-20(s0)
    8000a538:	fef7f793          	andi	a5,a5,-17
    8000a53c:	fef42623          	sw	a5,-20(s0)
    8000a540:	f8043783          	ld	a5,-128(s0)
    8000a544:	0007c783          	lbu	a5,0(a5)
    8000a548:	00078713          	mv	a4,a5
    8000a54c:	05800793          	li	a5,88
    8000a550:	00f71863          	bne	a4,a5,8000a560 <_vsnprintf+0x530>
    8000a554:	fec42783          	lw	a5,-20(s0)
    8000a558:	0207e793          	ori	a5,a5,32
    8000a55c:	fef42623          	sw	a5,-20(s0)
    8000a560:	f8043783          	ld	a5,-128(s0)
    8000a564:	0007c783          	lbu	a5,0(a5)
    8000a568:	00078713          	mv	a4,a5
    8000a56c:	06900793          	li	a5,105
    8000a570:	02f70263          	beq	a4,a5,8000a594 <_vsnprintf+0x564>
    8000a574:	f8043783          	ld	a5,-128(s0)
    8000a578:	0007c783          	lbu	a5,0(a5)
    8000a57c:	00078713          	mv	a4,a5
    8000a580:	06400793          	li	a5,100
    8000a584:	00f70863          	beq	a4,a5,8000a594 <_vsnprintf+0x564>
    8000a588:	fec42783          	lw	a5,-20(s0)
    8000a58c:	ff37f793          	andi	a5,a5,-13
    8000a590:	fef42623          	sw	a5,-20(s0)
    8000a594:	fec42783          	lw	a5,-20(s0)
    8000a598:	4007f793          	andi	a5,a5,1024
    8000a59c:	0007879b          	sext.w	a5,a5
    8000a5a0:	00078863          	beqz	a5,8000a5b0 <_vsnprintf+0x580>
    8000a5a4:	fec42783          	lw	a5,-20(s0)
    8000a5a8:	ffe7f793          	andi	a5,a5,-2
    8000a5ac:	fef42623          	sw	a5,-20(s0)
    8000a5b0:	f8043783          	ld	a5,-128(s0)
    8000a5b4:	0007c783          	lbu	a5,0(a5)
    8000a5b8:	00078713          	mv	a4,a5
    8000a5bc:	06900793          	li	a5,105
    8000a5c0:	00f70c63          	beq	a4,a5,8000a5d8 <_vsnprintf+0x5a8>
    8000a5c4:	f8043783          	ld	a5,-128(s0)
    8000a5c8:	0007c783          	lbu	a5,0(a5)
    8000a5cc:	00078713          	mv	a4,a5
    8000a5d0:	06400793          	li	a5,100
    8000a5d4:	1ef71e63          	bne	a4,a5,8000a7d0 <_vsnprintf+0x7a0>
    8000a5d8:	fec42783          	lw	a5,-20(s0)
    8000a5dc:	2007f793          	andi	a5,a5,512
    8000a5e0:	0007879b          	sext.w	a5,a5
    8000a5e4:	08078063          	beqz	a5,8000a664 <_vsnprintf+0x634>
    8000a5e8:	f7843783          	ld	a5,-136(s0)
    8000a5ec:	00878713          	addi	a4,a5,8
    8000a5f0:	f6e43c23          	sd	a4,-136(s0)
    8000a5f4:	0007b783          	ld	a5,0(a5)
    8000a5f8:	faf43023          	sd	a5,-96(s0)
    8000a5fc:	fa043783          	ld	a5,-96(s0)
    8000a600:	43f7d713          	srai	a4,a5,0x3f
    8000a604:	fa043783          	ld	a5,-96(s0)
    8000a608:	00f747b3          	xor	a5,a4,a5
    8000a60c:	40e787b3          	sub	a5,a5,a4
    8000a610:	00078593          	mv	a1,a5
    8000a614:	fa043783          	ld	a5,-96(s0)
    8000a618:	03f7d793          	srli	a5,a5,0x3f
    8000a61c:	0ff7f713          	zext.b	a4,a5
    8000a620:	fd446683          	lwu	a3,-44(s0)
    8000a624:	fe442603          	lw	a2,-28(s0)
    8000a628:	fec42783          	lw	a5,-20(s0)
    8000a62c:	00f13423          	sd	a5,8(sp)
    8000a630:	fe842783          	lw	a5,-24(s0)
    8000a634:	00f13023          	sd	a5,0(sp)
    8000a638:	00060893          	mv	a7,a2
    8000a63c:	00068813          	mv	a6,a3
    8000a640:	00070793          	mv	a5,a4
    8000a644:	00058713          	mv	a4,a1
    8000a648:	f8843683          	ld	a3,-120(s0)
    8000a64c:	fd843603          	ld	a2,-40(s0)
    8000a650:	f9043583          	ld	a1,-112(s0)
    8000a654:	f9843503          	ld	a0,-104(s0)
    8000a658:	c59fe0ef          	jal	ra,800092b0 <_ntoa_long_long>
    8000a65c:	fca43c23          	sd	a0,-40(s0)
    8000a660:	2e40006f          	j	8000a944 <_vsnprintf+0x914>
    8000a664:	fec42783          	lw	a5,-20(s0)
    8000a668:	1007f793          	andi	a5,a5,256
    8000a66c:	0007879b          	sext.w	a5,a5
    8000a670:	08078063          	beqz	a5,8000a6f0 <_vsnprintf+0x6c0>
    8000a674:	f7843783          	ld	a5,-136(s0)
    8000a678:	00878713          	addi	a4,a5,8
    8000a67c:	f6e43c23          	sd	a4,-136(s0)
    8000a680:	0007b783          	ld	a5,0(a5)
    8000a684:	faf43423          	sd	a5,-88(s0)
    8000a688:	fa843783          	ld	a5,-88(s0)
    8000a68c:	43f7d713          	srai	a4,a5,0x3f
    8000a690:	fa843783          	ld	a5,-88(s0)
    8000a694:	00f747b3          	xor	a5,a4,a5
    8000a698:	40e787b3          	sub	a5,a5,a4
    8000a69c:	00078593          	mv	a1,a5
    8000a6a0:	fa843783          	ld	a5,-88(s0)
    8000a6a4:	03f7d793          	srli	a5,a5,0x3f
    8000a6a8:	0ff7f713          	zext.b	a4,a5
    8000a6ac:	fd446683          	lwu	a3,-44(s0)
    8000a6b0:	fe442603          	lw	a2,-28(s0)
    8000a6b4:	fec42783          	lw	a5,-20(s0)
    8000a6b8:	00f13423          	sd	a5,8(sp)
    8000a6bc:	fe842783          	lw	a5,-24(s0)
    8000a6c0:	00f13023          	sd	a5,0(sp)
    8000a6c4:	00060893          	mv	a7,a2
    8000a6c8:	00068813          	mv	a6,a3
    8000a6cc:	00070793          	mv	a5,a4
    8000a6d0:	00058713          	mv	a4,a1
    8000a6d4:	f8843683          	ld	a3,-120(s0)
    8000a6d8:	fd843603          	ld	a2,-40(s0)
    8000a6dc:	f9043583          	ld	a1,-112(s0)
    8000a6e0:	f9843503          	ld	a0,-104(s0)
    8000a6e4:	a69fe0ef          	jal	ra,8000914c <_ntoa_long>
    8000a6e8:	fca43c23          	sd	a0,-40(s0)
    8000a6ec:	2580006f          	j	8000a944 <_vsnprintf+0x914>
    8000a6f0:	fec42783          	lw	a5,-20(s0)
    8000a6f4:	0407f793          	andi	a5,a5,64
    8000a6f8:	0007879b          	sext.w	a5,a5
    8000a6fc:	02078063          	beqz	a5,8000a71c <_vsnprintf+0x6ec>
    8000a700:	f7843783          	ld	a5,-136(s0)
    8000a704:	00878713          	addi	a4,a5,8
    8000a708:	f6e43c23          	sd	a4,-136(s0)
    8000a70c:	0007a783          	lw	a5,0(a5)
    8000a710:	0ff7f793          	zext.b	a5,a5
    8000a714:	0007879b          	sext.w	a5,a5
    8000a718:	0440006f          	j	8000a75c <_vsnprintf+0x72c>
    8000a71c:	fec42783          	lw	a5,-20(s0)
    8000a720:	0807f793          	andi	a5,a5,128
    8000a724:	0007879b          	sext.w	a5,a5
    8000a728:	02078263          	beqz	a5,8000a74c <_vsnprintf+0x71c>
    8000a72c:	f7843783          	ld	a5,-136(s0)
    8000a730:	00878713          	addi	a4,a5,8
    8000a734:	f6e43c23          	sd	a4,-136(s0)
    8000a738:	0007a783          	lw	a5,0(a5)
    8000a73c:	0107979b          	slliw	a5,a5,0x10
    8000a740:	4107d79b          	sraiw	a5,a5,0x10
    8000a744:	0007879b          	sext.w	a5,a5
    8000a748:	0140006f          	j	8000a75c <_vsnprintf+0x72c>
    8000a74c:	f7843783          	ld	a5,-136(s0)
    8000a750:	00878713          	addi	a4,a5,8
    8000a754:	f6e43c23          	sd	a4,-136(s0)
    8000a758:	0007a783          	lw	a5,0(a5)
    8000a75c:	faf42823          	sw	a5,-80(s0)
    8000a760:	fb042783          	lw	a5,-80(s0)
    8000a764:	41f7d79b          	sraiw	a5,a5,0x1f
    8000a768:	fb042703          	lw	a4,-80(s0)
    8000a76c:	00e7c733          	xor	a4,a5,a4
    8000a770:	40f707bb          	subw	a5,a4,a5
    8000a774:	0007879b          	sext.w	a5,a5
    8000a778:	0007879b          	sext.w	a5,a5
    8000a77c:	02079713          	slli	a4,a5,0x20
    8000a780:	02075713          	srli	a4,a4,0x20
    8000a784:	fb042783          	lw	a5,-80(s0)
    8000a788:	01f7d79b          	srliw	a5,a5,0x1f
    8000a78c:	0ff7f693          	zext.b	a3,a5
    8000a790:	fd446603          	lwu	a2,-44(s0)
    8000a794:	fe442583          	lw	a1,-28(s0)
    8000a798:	fec42783          	lw	a5,-20(s0)
    8000a79c:	00f13423          	sd	a5,8(sp)
    8000a7a0:	fe842783          	lw	a5,-24(s0)
    8000a7a4:	00f13023          	sd	a5,0(sp)
    8000a7a8:	00058893          	mv	a7,a1
    8000a7ac:	00060813          	mv	a6,a2
    8000a7b0:	00068793          	mv	a5,a3
    8000a7b4:	f8843683          	ld	a3,-120(s0)
    8000a7b8:	fd843603          	ld	a2,-40(s0)
    8000a7bc:	f9043583          	ld	a1,-112(s0)
    8000a7c0:	f9843503          	ld	a0,-104(s0)
    8000a7c4:	989fe0ef          	jal	ra,8000914c <_ntoa_long>
    8000a7c8:	fca43c23          	sd	a0,-40(s0)
    8000a7cc:	1780006f          	j	8000a944 <_vsnprintf+0x914>
    8000a7d0:	fec42783          	lw	a5,-20(s0)
    8000a7d4:	2007f793          	andi	a5,a5,512
    8000a7d8:	0007879b          	sext.w	a5,a5
    8000a7dc:	04078a63          	beqz	a5,8000a830 <_vsnprintf+0x800>
    8000a7e0:	f7843783          	ld	a5,-136(s0)
    8000a7e4:	00878713          	addi	a4,a5,8
    8000a7e8:	f6e43c23          	sd	a4,-136(s0)
    8000a7ec:	0007b703          	ld	a4,0(a5)
    8000a7f0:	fd446683          	lwu	a3,-44(s0)
    8000a7f4:	fe442603          	lw	a2,-28(s0)
    8000a7f8:	fec42783          	lw	a5,-20(s0)
    8000a7fc:	00f13423          	sd	a5,8(sp)
    8000a800:	fe842783          	lw	a5,-24(s0)
    8000a804:	00f13023          	sd	a5,0(sp)
    8000a808:	00060893          	mv	a7,a2
    8000a80c:	00068813          	mv	a6,a3
    8000a810:	00000793          	li	a5,0
    8000a814:	f8843683          	ld	a3,-120(s0)
    8000a818:	fd843603          	ld	a2,-40(s0)
    8000a81c:	f9043583          	ld	a1,-112(s0)
    8000a820:	f9843503          	ld	a0,-104(s0)
    8000a824:	a8dfe0ef          	jal	ra,800092b0 <_ntoa_long_long>
    8000a828:	fca43c23          	sd	a0,-40(s0)
    8000a82c:	1180006f          	j	8000a944 <_vsnprintf+0x914>
    8000a830:	fec42783          	lw	a5,-20(s0)
    8000a834:	1007f793          	andi	a5,a5,256
    8000a838:	0007879b          	sext.w	a5,a5
    8000a83c:	04078a63          	beqz	a5,8000a890 <_vsnprintf+0x860>
    8000a840:	f7843783          	ld	a5,-136(s0)
    8000a844:	00878713          	addi	a4,a5,8
    8000a848:	f6e43c23          	sd	a4,-136(s0)
    8000a84c:	0007b703          	ld	a4,0(a5)
    8000a850:	fd446683          	lwu	a3,-44(s0)
    8000a854:	fe442603          	lw	a2,-28(s0)
    8000a858:	fec42783          	lw	a5,-20(s0)
    8000a85c:	00f13423          	sd	a5,8(sp)
    8000a860:	fe842783          	lw	a5,-24(s0)
    8000a864:	00f13023          	sd	a5,0(sp)
    8000a868:	00060893          	mv	a7,a2
    8000a86c:	00068813          	mv	a6,a3
    8000a870:	00000793          	li	a5,0
    8000a874:	f8843683          	ld	a3,-120(s0)
    8000a878:	fd843603          	ld	a2,-40(s0)
    8000a87c:	f9043583          	ld	a1,-112(s0)
    8000a880:	f9843503          	ld	a0,-104(s0)
    8000a884:	8c9fe0ef          	jal	ra,8000914c <_ntoa_long>
    8000a888:	fca43c23          	sd	a0,-40(s0)
    8000a88c:	0b80006f          	j	8000a944 <_vsnprintf+0x914>
    8000a890:	fec42783          	lw	a5,-20(s0)
    8000a894:	0407f793          	andi	a5,a5,64
    8000a898:	0007879b          	sext.w	a5,a5
    8000a89c:	02078063          	beqz	a5,8000a8bc <_vsnprintf+0x88c>
    8000a8a0:	f7843783          	ld	a5,-136(s0)
    8000a8a4:	00878713          	addi	a4,a5,8
    8000a8a8:	f6e43c23          	sd	a4,-136(s0)
    8000a8ac:	0007a783          	lw	a5,0(a5)
    8000a8b0:	0ff7f793          	zext.b	a5,a5
    8000a8b4:	0007879b          	sext.w	a5,a5
    8000a8b8:	0480006f          	j	8000a900 <_vsnprintf+0x8d0>
    8000a8bc:	fec42783          	lw	a5,-20(s0)
    8000a8c0:	0807f793          	andi	a5,a5,128
    8000a8c4:	0007879b          	sext.w	a5,a5
    8000a8c8:	02078263          	beqz	a5,8000a8ec <_vsnprintf+0x8bc>
    8000a8cc:	f7843783          	ld	a5,-136(s0)
    8000a8d0:	00878713          	addi	a4,a5,8
    8000a8d4:	f6e43c23          	sd	a4,-136(s0)
    8000a8d8:	0007a783          	lw	a5,0(a5)
    8000a8dc:	03079793          	slli	a5,a5,0x30
    8000a8e0:	0307d793          	srli	a5,a5,0x30
    8000a8e4:	0007879b          	sext.w	a5,a5
    8000a8e8:	0140006f          	j	8000a8fc <_vsnprintf+0x8cc>
    8000a8ec:	f7843783          	ld	a5,-136(s0)
    8000a8f0:	00878713          	addi	a4,a5,8
    8000a8f4:	f6e43c23          	sd	a4,-136(s0)
    8000a8f8:	0007a783          	lw	a5,0(a5)
    8000a8fc:	0007879b          	sext.w	a5,a5
    8000a900:	faf42a23          	sw	a5,-76(s0)
    8000a904:	fb446703          	lwu	a4,-76(s0)
    8000a908:	fd446683          	lwu	a3,-44(s0)
    8000a90c:	fe442603          	lw	a2,-28(s0)
    8000a910:	fec42783          	lw	a5,-20(s0)
    8000a914:	00f13423          	sd	a5,8(sp)
    8000a918:	fe842783          	lw	a5,-24(s0)
    8000a91c:	00f13023          	sd	a5,0(sp)
    8000a920:	00060893          	mv	a7,a2
    8000a924:	00068813          	mv	a6,a3
    8000a928:	00000793          	li	a5,0
    8000a92c:	f8843683          	ld	a3,-120(s0)
    8000a930:	fd843603          	ld	a2,-40(s0)
    8000a934:	f9043583          	ld	a1,-112(s0)
    8000a938:	f9843503          	ld	a0,-104(s0)
    8000a93c:	811fe0ef          	jal	ra,8000914c <_ntoa_long>
    8000a940:	fca43c23          	sd	a0,-40(s0)
    8000a944:	f8043783          	ld	a5,-128(s0)
    8000a948:	00178793          	addi	a5,a5,1
    8000a94c:	f8f43023          	sd	a5,-128(s0)
    8000a950:	4dc0006f          	j	8000ae2c <_vsnprintf+0xdfc>
    8000a954:	f8043783          	ld	a5,-128(s0)
    8000a958:	0007c783          	lbu	a5,0(a5)
    8000a95c:	00078713          	mv	a4,a5
    8000a960:	04600793          	li	a5,70
    8000a964:	00f71863          	bne	a4,a5,8000a974 <_vsnprintf+0x944>
    8000a968:	fec42783          	lw	a5,-20(s0)
    8000a96c:	0207e793          	ori	a5,a5,32
    8000a970:	fef42623          	sw	a5,-20(s0)
    8000a974:	f7843783          	ld	a5,-136(s0)
    8000a978:	00878713          	addi	a4,a5,8
    8000a97c:	f6e43c23          	sd	a4,-136(s0)
    8000a980:	0007b787          	fld	fa5,0(a5)
    8000a984:	fec42683          	lw	a3,-20(s0)
    8000a988:	fe842783          	lw	a5,-24(s0)
    8000a98c:	fe442703          	lw	a4,-28(s0)
    8000a990:	00068813          	mv	a6,a3
    8000a994:	22f78553          	fmv.d	fa0,fa5
    8000a998:	f8843683          	ld	a3,-120(s0)
    8000a99c:	fd843603          	ld	a2,-40(s0)
    8000a9a0:	f9043583          	ld	a1,-112(s0)
    8000a9a4:	f9843503          	ld	a0,-104(s0)
    8000a9a8:	a6dfe0ef          	jal	ra,80009414 <_ftoa>
    8000a9ac:	fca43c23          	sd	a0,-40(s0)
    8000a9b0:	f8043783          	ld	a5,-128(s0)
    8000a9b4:	00178793          	addi	a5,a5,1
    8000a9b8:	f8f43023          	sd	a5,-128(s0)
    8000a9bc:	4700006f          	j	8000ae2c <_vsnprintf+0xdfc>
    8000a9c0:	f8043783          	ld	a5,-128(s0)
    8000a9c4:	0007c783          	lbu	a5,0(a5)
    8000a9c8:	00078713          	mv	a4,a5
    8000a9cc:	06700793          	li	a5,103
    8000a9d0:	00f70c63          	beq	a4,a5,8000a9e8 <_vsnprintf+0x9b8>
    8000a9d4:	f8043783          	ld	a5,-128(s0)
    8000a9d8:	0007c783          	lbu	a5,0(a5)
    8000a9dc:	00078713          	mv	a4,a5
    8000a9e0:	04700793          	li	a5,71
    8000a9e4:	00f71c63          	bne	a4,a5,8000a9fc <_vsnprintf+0x9cc>
    8000a9e8:	fec42703          	lw	a4,-20(s0)
    8000a9ec:	000017b7          	lui	a5,0x1
    8000a9f0:	80078793          	addi	a5,a5,-2048 # 800 <_start-0x7ffff800>
    8000a9f4:	00f767b3          	or	a5,a4,a5
    8000a9f8:	fef42623          	sw	a5,-20(s0)
    8000a9fc:	f8043783          	ld	a5,-128(s0)
    8000aa00:	0007c783          	lbu	a5,0(a5)
    8000aa04:	00078713          	mv	a4,a5
    8000aa08:	04500793          	li	a5,69
    8000aa0c:	00f70c63          	beq	a4,a5,8000aa24 <_vsnprintf+0x9f4>
    8000aa10:	f8043783          	ld	a5,-128(s0)
    8000aa14:	0007c783          	lbu	a5,0(a5)
    8000aa18:	00078713          	mv	a4,a5
    8000aa1c:	04700793          	li	a5,71
    8000aa20:	00f71863          	bne	a4,a5,8000aa30 <_vsnprintf+0xa00>
    8000aa24:	fec42783          	lw	a5,-20(s0)
    8000aa28:	0207e793          	ori	a5,a5,32
    8000aa2c:	fef42623          	sw	a5,-20(s0)
    8000aa30:	f7843783          	ld	a5,-136(s0)
    8000aa34:	00878713          	addi	a4,a5,8
    8000aa38:	f6e43c23          	sd	a4,-136(s0)
    8000aa3c:	0007b787          	fld	fa5,0(a5)
    8000aa40:	fec42683          	lw	a3,-20(s0)
    8000aa44:	fe842783          	lw	a5,-24(s0)
    8000aa48:	fe442703          	lw	a4,-28(s0)
    8000aa4c:	00068813          	mv	a6,a3
    8000aa50:	22f78553          	fmv.d	fa0,fa5
    8000aa54:	f8843683          	ld	a3,-120(s0)
    8000aa58:	fd843603          	ld	a2,-40(s0)
    8000aa5c:	f9043583          	ld	a1,-112(s0)
    8000aa60:	f9843503          	ld	a0,-104(s0)
    8000aa64:	820ff0ef          	jal	ra,80009a84 <_etoa>
    8000aa68:	fca43c23          	sd	a0,-40(s0)
    8000aa6c:	f8043783          	ld	a5,-128(s0)
    8000aa70:	00178793          	addi	a5,a5,1
    8000aa74:	f8f43023          	sd	a5,-128(s0)
    8000aa78:	3b40006f          	j	8000ae2c <_vsnprintf+0xdfc>
    8000aa7c:	00100793          	li	a5,1
    8000aa80:	fcf42823          	sw	a5,-48(s0)
    8000aa84:	fec42783          	lw	a5,-20(s0)
    8000aa88:	0027f793          	andi	a5,a5,2
    8000aa8c:	0007879b          	sext.w	a5,a5
    8000aa90:	04079263          	bnez	a5,8000aad4 <_vsnprintf+0xaa4>
    8000aa94:	0280006f          	j	8000aabc <_vsnprintf+0xa8c>
    8000aa98:	fd843783          	ld	a5,-40(s0)
    8000aa9c:	00178713          	addi	a4,a5,1
    8000aaa0:	fce43c23          	sd	a4,-40(s0)
    8000aaa4:	f9843703          	ld	a4,-104(s0)
    8000aaa8:	f8843683          	ld	a3,-120(s0)
    8000aaac:	00078613          	mv	a2,a5
    8000aab0:	f9043583          	ld	a1,-112(s0)
    8000aab4:	02000513          	li	a0,32
    8000aab8:	000700e7          	jalr	a4
    8000aabc:	fd042783          	lw	a5,-48(s0)
    8000aac0:	0017871b          	addiw	a4,a5,1
    8000aac4:	fce42823          	sw	a4,-48(s0)
    8000aac8:	fe842703          	lw	a4,-24(s0)
    8000aacc:	0007071b          	sext.w	a4,a4
    8000aad0:	fce7e4e3          	bltu	a5,a4,8000aa98 <_vsnprintf+0xa68>
    8000aad4:	f7843783          	ld	a5,-136(s0)
    8000aad8:	00878713          	addi	a4,a5,8
    8000aadc:	f6e43c23          	sd	a4,-136(s0)
    8000aae0:	0007a783          	lw	a5,0(a5)
    8000aae4:	0ff7f513          	zext.b	a0,a5
    8000aae8:	fd843783          	ld	a5,-40(s0)
    8000aaec:	00178713          	addi	a4,a5,1
    8000aaf0:	fce43c23          	sd	a4,-40(s0)
    8000aaf4:	f9843703          	ld	a4,-104(s0)
    8000aaf8:	f8843683          	ld	a3,-120(s0)
    8000aafc:	00078613          	mv	a2,a5
    8000ab00:	f9043583          	ld	a1,-112(s0)
    8000ab04:	000700e7          	jalr	a4
    8000ab08:	fec42783          	lw	a5,-20(s0)
    8000ab0c:	0027f793          	andi	a5,a5,2
    8000ab10:	0007879b          	sext.w	a5,a5
    8000ab14:	04078263          	beqz	a5,8000ab58 <_vsnprintf+0xb28>
    8000ab18:	0280006f          	j	8000ab40 <_vsnprintf+0xb10>
    8000ab1c:	fd843783          	ld	a5,-40(s0)
    8000ab20:	00178713          	addi	a4,a5,1
    8000ab24:	fce43c23          	sd	a4,-40(s0)
    8000ab28:	f9843703          	ld	a4,-104(s0)
    8000ab2c:	f8843683          	ld	a3,-120(s0)
    8000ab30:	00078613          	mv	a2,a5
    8000ab34:	f9043583          	ld	a1,-112(s0)
    8000ab38:	02000513          	li	a0,32
    8000ab3c:	000700e7          	jalr	a4
    8000ab40:	fd042783          	lw	a5,-48(s0)
    8000ab44:	0017871b          	addiw	a4,a5,1
    8000ab48:	fce42823          	sw	a4,-48(s0)
    8000ab4c:	fe842703          	lw	a4,-24(s0)
    8000ab50:	0007071b          	sext.w	a4,a4
    8000ab54:	fce7e4e3          	bltu	a5,a4,8000ab1c <_vsnprintf+0xaec>
    8000ab58:	f8043783          	ld	a5,-128(s0)
    8000ab5c:	00178793          	addi	a5,a5,1
    8000ab60:	f8f43023          	sd	a5,-128(s0)
    8000ab64:	2c80006f          	j	8000ae2c <_vsnprintf+0xdfc>
    8000ab68:	f7843783          	ld	a5,-136(s0)
    8000ab6c:	00878713          	addi	a4,a5,8
    8000ab70:	f6e43c23          	sd	a4,-136(s0)
    8000ab74:	0007b783          	ld	a5,0(a5)
    8000ab78:	fcf43423          	sd	a5,-56(s0)
    8000ab7c:	fe442783          	lw	a5,-28(s0)
    8000ab80:	0007879b          	sext.w	a5,a5
    8000ab84:	00078663          	beqz	a5,8000ab90 <_vsnprintf+0xb60>
    8000ab88:	fe446783          	lwu	a5,-28(s0)
    8000ab8c:	0080006f          	j	8000ab94 <_vsnprintf+0xb64>
    8000ab90:	fff00793          	li	a5,-1
    8000ab94:	00078593          	mv	a1,a5
    8000ab98:	fc843503          	ld	a0,-56(s0)
    8000ab9c:	fb5fd0ef          	jal	ra,80008b50 <_strnlen_s>
    8000aba0:	00050793          	mv	a5,a0
    8000aba4:	fcf42223          	sw	a5,-60(s0)
    8000aba8:	fec42783          	lw	a5,-20(s0)
    8000abac:	4007f793          	andi	a5,a5,1024
    8000abb0:	0007879b          	sext.w	a5,a5
    8000abb4:	02078063          	beqz	a5,8000abd4 <_vsnprintf+0xba4>
    8000abb8:	fc442603          	lw	a2,-60(s0)
    8000abbc:	fe442783          	lw	a5,-28(s0)
    8000abc0:	0007869b          	sext.w	a3,a5
    8000abc4:	0006071b          	sext.w	a4,a2
    8000abc8:	00d77463          	bgeu	a4,a3,8000abd0 <_vsnprintf+0xba0>
    8000abcc:	00060793          	mv	a5,a2
    8000abd0:	fcf42223          	sw	a5,-60(s0)
    8000abd4:	fec42783          	lw	a5,-20(s0)
    8000abd8:	0027f793          	andi	a5,a5,2
    8000abdc:	0007879b          	sext.w	a5,a5
    8000abe0:	06079c63          	bnez	a5,8000ac58 <_vsnprintf+0xc28>
    8000abe4:	0280006f          	j	8000ac0c <_vsnprintf+0xbdc>
    8000abe8:	fd843783          	ld	a5,-40(s0)
    8000abec:	00178713          	addi	a4,a5,1
    8000abf0:	fce43c23          	sd	a4,-40(s0)
    8000abf4:	f9843703          	ld	a4,-104(s0)
    8000abf8:	f8843683          	ld	a3,-120(s0)
    8000abfc:	00078613          	mv	a2,a5
    8000ac00:	f9043583          	ld	a1,-112(s0)
    8000ac04:	02000513          	li	a0,32
    8000ac08:	000700e7          	jalr	a4
    8000ac0c:	fc442783          	lw	a5,-60(s0)
    8000ac10:	0017871b          	addiw	a4,a5,1
    8000ac14:	fce42223          	sw	a4,-60(s0)
    8000ac18:	fe842703          	lw	a4,-24(s0)
    8000ac1c:	0007071b          	sext.w	a4,a4
    8000ac20:	fce7e4e3          	bltu	a5,a4,8000abe8 <_vsnprintf+0xbb8>
    8000ac24:	0340006f          	j	8000ac58 <_vsnprintf+0xc28>
    8000ac28:	fc843783          	ld	a5,-56(s0)
    8000ac2c:	00178713          	addi	a4,a5,1
    8000ac30:	fce43423          	sd	a4,-56(s0)
    8000ac34:	0007c503          	lbu	a0,0(a5)
    8000ac38:	fd843783          	ld	a5,-40(s0)
    8000ac3c:	00178713          	addi	a4,a5,1
    8000ac40:	fce43c23          	sd	a4,-40(s0)
    8000ac44:	f9843703          	ld	a4,-104(s0)
    8000ac48:	f8843683          	ld	a3,-120(s0)
    8000ac4c:	00078613          	mv	a2,a5
    8000ac50:	f9043583          	ld	a1,-112(s0)
    8000ac54:	000700e7          	jalr	a4
    8000ac58:	fc843783          	ld	a5,-56(s0)
    8000ac5c:	0007c783          	lbu	a5,0(a5)
    8000ac60:	02078263          	beqz	a5,8000ac84 <_vsnprintf+0xc54>
    8000ac64:	fec42783          	lw	a5,-20(s0)
    8000ac68:	4007f793          	andi	a5,a5,1024
    8000ac6c:	0007879b          	sext.w	a5,a5
    8000ac70:	fa078ce3          	beqz	a5,8000ac28 <_vsnprintf+0xbf8>
    8000ac74:	fe442783          	lw	a5,-28(s0)
    8000ac78:	fff7871b          	addiw	a4,a5,-1
    8000ac7c:	fee42223          	sw	a4,-28(s0)
    8000ac80:	fa0794e3          	bnez	a5,8000ac28 <_vsnprintf+0xbf8>
    8000ac84:	fec42783          	lw	a5,-20(s0)
    8000ac88:	0027f793          	andi	a5,a5,2
    8000ac8c:	0007879b          	sext.w	a5,a5
    8000ac90:	04078263          	beqz	a5,8000acd4 <_vsnprintf+0xca4>
    8000ac94:	0280006f          	j	8000acbc <_vsnprintf+0xc8c>
    8000ac98:	fd843783          	ld	a5,-40(s0)
    8000ac9c:	00178713          	addi	a4,a5,1
    8000aca0:	fce43c23          	sd	a4,-40(s0)
    8000aca4:	f9843703          	ld	a4,-104(s0)
    8000aca8:	f8843683          	ld	a3,-120(s0)
    8000acac:	00078613          	mv	a2,a5
    8000acb0:	f9043583          	ld	a1,-112(s0)
    8000acb4:	02000513          	li	a0,32
    8000acb8:	000700e7          	jalr	a4
    8000acbc:	fc442783          	lw	a5,-60(s0)
    8000acc0:	0017871b          	addiw	a4,a5,1
    8000acc4:	fce42223          	sw	a4,-60(s0)
    8000acc8:	fe842703          	lw	a4,-24(s0)
    8000accc:	0007071b          	sext.w	a4,a4
    8000acd0:	fce7e4e3          	bltu	a5,a4,8000ac98 <_vsnprintf+0xc68>
    8000acd4:	f8043783          	ld	a5,-128(s0)
    8000acd8:	00178793          	addi	a5,a5,1
    8000acdc:	f8f43023          	sd	a5,-128(s0)
    8000ace0:	14c0006f          	j	8000ae2c <_vsnprintf+0xdfc>
    8000ace4:	01000793          	li	a5,16
    8000ace8:	fef42423          	sw	a5,-24(s0)
    8000acec:	fec42783          	lw	a5,-20(s0)
    8000acf0:	0217e793          	ori	a5,a5,33
    8000acf4:	fef42623          	sw	a5,-20(s0)
    8000acf8:	00100793          	li	a5,1
    8000acfc:	faf40da3          	sb	a5,-69(s0)
    8000ad00:	fbb44783          	lbu	a5,-69(s0)
    8000ad04:	0ff7f793          	zext.b	a5,a5
    8000ad08:	04078c63          	beqz	a5,8000ad60 <_vsnprintf+0xd30>
    8000ad0c:	f7843783          	ld	a5,-136(s0)
    8000ad10:	00878713          	addi	a4,a5,8
    8000ad14:	f6e43c23          	sd	a4,-136(s0)
    8000ad18:	0007b783          	ld	a5,0(a5)
    8000ad1c:	00078693          	mv	a3,a5
    8000ad20:	fe442703          	lw	a4,-28(s0)
    8000ad24:	fec42783          	lw	a5,-20(s0)
    8000ad28:	00f13423          	sd	a5,8(sp)
    8000ad2c:	fe842783          	lw	a5,-24(s0)
    8000ad30:	00f13023          	sd	a5,0(sp)
    8000ad34:	00070893          	mv	a7,a4
    8000ad38:	01000813          	li	a6,16
    8000ad3c:	00000793          	li	a5,0
    8000ad40:	00068713          	mv	a4,a3
    8000ad44:	f8843683          	ld	a3,-120(s0)
    8000ad48:	fd843603          	ld	a2,-40(s0)
    8000ad4c:	f9043583          	ld	a1,-112(s0)
    8000ad50:	f9843503          	ld	a0,-104(s0)
    8000ad54:	d5cfe0ef          	jal	ra,800092b0 <_ntoa_long_long>
    8000ad58:	fca43c23          	sd	a0,-40(s0)
    8000ad5c:	0540006f          	j	8000adb0 <_vsnprintf+0xd80>
    8000ad60:	f7843783          	ld	a5,-136(s0)
    8000ad64:	00878713          	addi	a4,a5,8
    8000ad68:	f6e43c23          	sd	a4,-136(s0)
    8000ad6c:	0007b783          	ld	a5,0(a5)
    8000ad70:	00078693          	mv	a3,a5
    8000ad74:	fe442703          	lw	a4,-28(s0)
    8000ad78:	fec42783          	lw	a5,-20(s0)
    8000ad7c:	00f13423          	sd	a5,8(sp)
    8000ad80:	fe842783          	lw	a5,-24(s0)
    8000ad84:	00f13023          	sd	a5,0(sp)
    8000ad88:	00070893          	mv	a7,a4
    8000ad8c:	01000813          	li	a6,16
    8000ad90:	00000793          	li	a5,0
    8000ad94:	00068713          	mv	a4,a3
    8000ad98:	f8843683          	ld	a3,-120(s0)
    8000ad9c:	fd843603          	ld	a2,-40(s0)
    8000ada0:	f9043583          	ld	a1,-112(s0)
    8000ada4:	f9843503          	ld	a0,-104(s0)
    8000ada8:	ba4fe0ef          	jal	ra,8000914c <_ntoa_long>
    8000adac:	fca43c23          	sd	a0,-40(s0)
    8000adb0:	f8043783          	ld	a5,-128(s0)
    8000adb4:	00178793          	addi	a5,a5,1
    8000adb8:	f8f43023          	sd	a5,-128(s0)
    8000adbc:	0700006f          	j	8000ae2c <_vsnprintf+0xdfc>
    8000adc0:	fd843783          	ld	a5,-40(s0)
    8000adc4:	00178713          	addi	a4,a5,1
    8000adc8:	fce43c23          	sd	a4,-40(s0)
    8000adcc:	f9843703          	ld	a4,-104(s0)
    8000add0:	f8843683          	ld	a3,-120(s0)
    8000add4:	00078613          	mv	a2,a5
    8000add8:	f9043583          	ld	a1,-112(s0)
    8000addc:	02500513          	li	a0,37
    8000ade0:	000700e7          	jalr	a4
    8000ade4:	f8043783          	ld	a5,-128(s0)
    8000ade8:	00178793          	addi	a5,a5,1
    8000adec:	f8f43023          	sd	a5,-128(s0)
    8000adf0:	03c0006f          	j	8000ae2c <_vsnprintf+0xdfc>
    8000adf4:	f8043783          	ld	a5,-128(s0)
    8000adf8:	0007c503          	lbu	a0,0(a5)
    8000adfc:	fd843783          	ld	a5,-40(s0)
    8000ae00:	00178713          	addi	a4,a5,1
    8000ae04:	fce43c23          	sd	a4,-40(s0)
    8000ae08:	f9843703          	ld	a4,-104(s0)
    8000ae0c:	f8843683          	ld	a3,-120(s0)
    8000ae10:	00078613          	mv	a2,a5
    8000ae14:	f9043583          	ld	a1,-112(s0)
    8000ae18:	000700e7          	jalr	a4
    8000ae1c:	f8043783          	ld	a5,-128(s0)
    8000ae20:	00178793          	addi	a5,a5,1
    8000ae24:	f8f43023          	sd	a5,-128(s0)
    8000ae28:	00000013          	nop
    8000ae2c:	f8043783          	ld	a5,-128(s0)
    8000ae30:	0007c783          	lbu	a5,0(a5)
    8000ae34:	a2079e63          	bnez	a5,8000a070 <_vsnprintf+0x40>
    8000ae38:	fd843703          	ld	a4,-40(s0)
    8000ae3c:	f8843783          	ld	a5,-120(s0)
    8000ae40:	00f76863          	bltu	a4,a5,8000ae50 <_vsnprintf+0xe20>
    8000ae44:	f8843783          	ld	a5,-120(s0)
    8000ae48:	fff78793          	addi	a5,a5,-1
    8000ae4c:	0080006f          	j	8000ae54 <_vsnprintf+0xe24>
    8000ae50:	fd843783          	ld	a5,-40(s0)
    8000ae54:	f9843703          	ld	a4,-104(s0)
    8000ae58:	f8843683          	ld	a3,-120(s0)
    8000ae5c:	00078613          	mv	a2,a5
    8000ae60:	f9043583          	ld	a1,-112(s0)
    8000ae64:	00000513          	li	a0,0
    8000ae68:	000700e7          	jalr	a4
    8000ae6c:	fd843783          	ld	a5,-40(s0)
    8000ae70:	0007879b          	sext.w	a5,a5
    8000ae74:	00078513          	mv	a0,a5
    8000ae78:	09813083          	ld	ra,152(sp)
    8000ae7c:	09013403          	ld	s0,144(sp)
    8000ae80:	0a010113          	addi	sp,sp,160
    8000ae84:	00008067          	ret

Disassembly of section .text.printf_:

000000008000ae88 <printf_>:
    8000ae88:	f8010113          	addi	sp,sp,-128
    8000ae8c:	02113c23          	sd	ra,56(sp)
    8000ae90:	02813823          	sd	s0,48(sp)
    8000ae94:	04010413          	addi	s0,sp,64
    8000ae98:	fca43423          	sd	a0,-56(s0)
    8000ae9c:	00b43423          	sd	a1,8(s0)
    8000aea0:	00c43823          	sd	a2,16(s0)
    8000aea4:	00d43c23          	sd	a3,24(s0)
    8000aea8:	02e43023          	sd	a4,32(s0)
    8000aeac:	02f43423          	sd	a5,40(s0)
    8000aeb0:	03043823          	sd	a6,48(s0)
    8000aeb4:	03143c23          	sd	a7,56(s0)
    8000aeb8:	04040793          	addi	a5,s0,64
    8000aebc:	fcf43023          	sd	a5,-64(s0)
    8000aec0:	fc043783          	ld	a5,-64(s0)
    8000aec4:	fc878793          	addi	a5,a5,-56
    8000aec8:	fef43023          	sd	a5,-32(s0)
    8000aecc:	fe043703          	ld	a4,-32(s0)
    8000aed0:	fd840793          	addi	a5,s0,-40
    8000aed4:	fc843683          	ld	a3,-56(s0)
    8000aed8:	fff00613          	li	a2,-1
    8000aedc:	00078593          	mv	a1,a5
    8000aee0:	ffffe517          	auipc	a0,0xffffe
    8000aee4:	c2050513          	addi	a0,a0,-992 # 80008b00 <_out_char>
    8000aee8:	948ff0ef          	jal	ra,8000a030 <_vsnprintf>
    8000aeec:	00050793          	mv	a5,a0
    8000aef0:	fef42623          	sw	a5,-20(s0)
    8000aef4:	fec42783          	lw	a5,-20(s0)
    8000aef8:	00078513          	mv	a0,a5
    8000aefc:	03813083          	ld	ra,56(sp)
    8000af00:	03013403          	ld	s0,48(sp)
    8000af04:	08010113          	addi	sp,sp,128
    8000af08:	00008067          	ret

Disassembly of section .text.strcmp:

000000008000af0c <strcmp>:
    8000af0c:	fe010113          	addi	sp,sp,-32
    8000af10:	00813c23          	sd	s0,24(sp)
    8000af14:	02010413          	addi	s0,sp,32
    8000af18:	fea43423          	sd	a0,-24(s0)
    8000af1c:	feb43023          	sd	a1,-32(s0)
    8000af20:	01c0006f          	j	8000af3c <strcmp+0x30>
    8000af24:	fe843783          	ld	a5,-24(s0)
    8000af28:	00178793          	addi	a5,a5,1
    8000af2c:	fef43423          	sd	a5,-24(s0)
    8000af30:	fe043783          	ld	a5,-32(s0)
    8000af34:	00178793          	addi	a5,a5,1
    8000af38:	fef43023          	sd	a5,-32(s0)
    8000af3c:	fe843783          	ld	a5,-24(s0)
    8000af40:	0007c783          	lbu	a5,0(a5)
    8000af44:	00078c63          	beqz	a5,8000af5c <strcmp+0x50>
    8000af48:	fe843783          	ld	a5,-24(s0)
    8000af4c:	0007c703          	lbu	a4,0(a5)
    8000af50:	fe043783          	ld	a5,-32(s0)
    8000af54:	0007c783          	lbu	a5,0(a5)
    8000af58:	fcf706e3          	beq	a4,a5,8000af24 <strcmp+0x18>
    8000af5c:	fe843783          	ld	a5,-24(s0)
    8000af60:	0007c783          	lbu	a5,0(a5)
    8000af64:	0007871b          	sext.w	a4,a5
    8000af68:	fe043783          	ld	a5,-32(s0)
    8000af6c:	0007c783          	lbu	a5,0(a5)
    8000af70:	0007879b          	sext.w	a5,a5
    8000af74:	40f707bb          	subw	a5,a4,a5
    8000af78:	0007879b          	sext.w	a5,a5
    8000af7c:	00078513          	mv	a0,a5
    8000af80:	01813403          	ld	s0,24(sp)
    8000af84:	02010113          	addi	sp,sp,32
    8000af88:	00008067          	ret

Disassembly of section .text.uptime:

000000008000af8c <uptime>:
    8000af8c:	fe010113          	addi	sp,sp,-32
    8000af90:	00113c23          	sd	ra,24(sp)
    8000af94:	00813823          	sd	s0,16(sp)
    8000af98:	02010413          	addi	s0,sp,32
    8000af9c:	fe840793          	addi	a5,s0,-24
    8000afa0:	00800693          	li	a3,8
    8000afa4:	00078613          	mv	a2,a5
    8000afa8:	00100593          	li	a1,1
    8000afac:	0000b7b7          	lui	a5,0xb
    8000afb0:	c0378513          	addi	a0,a5,-1021 # ac03 <_start-0x7fff53fd>
    8000afb4:	ce4fd0ef          	jal	ra,80008498 <_io_read>
    8000afb8:	fec42783          	lw	a5,-20(s0)
    8000afbc:	00078513          	mv	a0,a5
    8000afc0:	01813083          	ld	ra,24(sp)
    8000afc4:	01013403          	ld	s0,16(sp)
    8000afc8:	02010113          	addi	sp,sp,32
    8000afcc:	00008067          	ret
